

HI-TECH Software PIC LITE Macro Assembler V9.82 build 9453 
                                                                                               Tue Dec 11 03:11:59 2018

HI-TECH Software Omniscient Code Generator (Lite mode) build 9453
     1  0000                     opt subtitle "HI-TECH Software Omniscient Code Generator (Lite mode) build 9453"
     2                           
     3                           opt pagewidth 120
     4                           
     5                           	opt lm
     6                           
     7                           	processor	16F877
     8                           clrc	macro
     9                           	bcf	3,0
    10  0000                     	endm
    11                           clrz	macro
    12                           	bcf	3,2
    13  0000                     	endm
    14                           setc	macro
    15                           	bsf	3,0
    16  0000                     	endm
    17                           setz	macro
    18                           	bsf	3,2
    19  0000                     	endm
    20                           skipc	macro
    21                           	btfss	3,0
    22  0000                     	endm
    23                           skipz	macro
    24                           	btfss	3,2
    25  0000                     	endm
    26                           skipnc	macro
    27                           	btfsc	3,0
    28  0000                     	endm
    29                           skipnz	macro
    30                           	btfsc	3,2
    31  0000                     	endm
    32  0000                     indf	equ	0
    33  0000                     indf0	equ	0
    34  0002                     pc	equ	2
    35  0002                     pcl	equ	2
    36  0003                     status	equ	3
    37  0004                     fsr	equ	4
    38  0004                     fsr0	equ	4
    39  0001                     c	equ	1
    40  0000                     z	equ	0
    41  000A                     pclath	equ	10
    42                           # 14 "../Main.c"
    43                           	psect config,class=CONFIG,delta=2 ;#
    44                           # 14 "../Main.c"
    45  2007  FF72               	dw 0xFFFE & 0xFFFB & 0xFFF7 & 0xFFFF & 0xFFFF & 0xFF7F & 0xFFFF & 0xFFFF & 0xFFFF ;#
    46                           	FNCALL	_main,_InitKeypad
    47                           	FNCALL	_main,_InitLCD
    48                           	FNCALL	_main,_ClearLCDScreen
    49                           	FNCALL	_main,_WriteCommandToLCD
    50                           	FNCALL	_main,_GetKey
    51                           	FNCALL	_main,_get_num
    52                           	FNCALL	_main,_WriteDataToLCD
    53                           	FNCALL	_main,___lmul
    54                           	FNCALL	_main,___altoft
    55                           	FNCALL	_main,_DispError
    56                           	FNCALL	_main,___aldiv
    57                           	FNCALL	_main,_sqrt
    58                           	FNCALL	_main,_sprintf
    59                           	FNCALL	_DispError,_ClearLCDScreen
    60                           	FNCALL	_DispError,_WriteStringToLCD
    61                           	FNCALL	_get_num,_ClearLCDScreen
    62                           	FNCALL	_sprintf,___wmul
    63                           	FNCALL	_sprintf,_isdigit
    64                           	FNCALL	_sprintf,___ftge
    65                           	FNCALL	_sprintf,___ftneg
    66                           	FNCALL	_sprintf,___awdiv
    67                           	FNCALL	_sprintf,_scale
    68                           	FNCALL	_sprintf,___ftmul
    69                           	FNCALL	_sprintf,_fround
    70                           	FNCALL	_sprintf,___ftadd
    71                           	FNCALL	_sprintf,___fttol
    72                           	FNCALL	_sprintf,__div_to_l_
    73                           	FNCALL	_sprintf,__tdiv_to_l_
    74                           	FNCALL	_sprintf,___lltoft
    75                           	FNCALL	_sprintf,___ftsub
    76                           	FNCALL	_sprintf,___lldiv
    77                           	FNCALL	_sprintf,___llmod
    78                           	FNCALL	_sqrt,___ftge
    79                           	FNCALL	_sqrt,___ftmul
    80                           	FNCALL	_sqrt,___ftsub
    81                           	FNCALL	_ClearLCDScreen,_WriteCommandToLCD
    82                           	FNCALL	_WriteStringToLCD,_WriteDataToLCD
    83                           	FNCALL	_InitLCD,_ToggleEpinOfLCD
    84                           	FNCALL	_InitLCD,_WriteCommandToLCD
    85                           	FNCALL	___ftsub,___ftadd
    86                           	FNCALL	_scale,___awmod
    87                           	FNCALL	_scale,___bmul
    88                           	FNCALL	_scale,___awdiv
    89                           	FNCALL	_scale,___ftmul
    90                           	FNCALL	_fround,___awmod
    91                           	FNCALL	_fround,___bmul
    92                           	FNCALL	_fround,___awdiv
    93                           	FNCALL	_fround,___ftmul
    94                           	FNCALL	_WriteDataToLCD,_ToggleEpinOfLCD
    95                           	FNCALL	_WriteCommandToLCD,_ToggleEpinOfLCD
    96                           	FNCALL	_GetKey,_READ_SWITCHES
    97                           	FNCALL	___lltoft,___ftpack
    98                           	FNCALL	___altoft,___ftpack
    99                           	FNCALL	___ftmul,___ftpack
   100                           	FNCALL	___ftadd,___ftpack
   101                           	FNROOT	_main
   102                           	global	_dpowers
   103                           psect	strings,class=STRING,delta=2
   104                           global __pstrings
   105  1000                     __pstrings:
   106                           ;	global	stringdir,stringtab,__stringbase
   107  1000                     stringtab:
   108                           ;	String table - string pointers are 1 byte each
   109  1000                     stringcode:stringdir:
      + 1000                     stringdir:	
   110  1000  3010               movlw high(stringdir)
   111  1001  008A               movwf pclath
   112  1002  0804               movf fsr,w
   113  1003  0A84               incf fsr
   114  1004  0782               	addwf pc
   115  1005                     __stringbase:
   116  1005  3400               	retlw	0
   117                           psect	strings
   118                           	file	"C:\Program Files (x86)\HI-TECH Software\PICC\9.82\lib\doprnt.c"
   119                           	line	350
   120  1006                     _dpowers:
   121  1006  3401               	retlw	01h
   122  1007  3400               	retlw	0
   123  1008  3400               	retlw	0
   124  1009  3400               	retlw	0
   125                           
   126  100A  340A               	retlw	0Ah
   127  100B  3400               	retlw	0
   128  100C  3400               	retlw	0
   129  100D  3400               	retlw	0
   130                           
   131  100E  3464               	retlw	064h
   132  100F  3400               	retlw	0
   133  1010  3400               	retlw	0
   134  1011  3400               	retlw	0
   135                           
   136  1012  34E8               	retlw	0E8h
   137  1013  3403               	retlw	03h
   138  1014  3400               	retlw	0
   139  1015  3400               	retlw	0
   140                           
   141  1016  3410               	retlw	010h
   142  1017  3427               	retlw	027h
   143  1018  3400               	retlw	0
   144  1019  3400               	retlw	0
   145                           
   146  101A  34A0               	retlw	0A0h
   147  101B  3486               	retlw	086h
   148  101C  3401               	retlw	01h
   149  101D  3400               	retlw	0
   150                           
   151  101E  3440               	retlw	040h
   152  101F  3442               	retlw	042h
   153  1020  340F               	retlw	0Fh
   154  1021  3400               	retlw	0
   155                           
   156  1022  3480               	retlw	080h
   157  1023  3496               	retlw	096h
   158  1024  3498               	retlw	098h
   159  1025  3400               	retlw	0
   160                           
   161  1026  3400               	retlw	0
   162  1027  34E1               	retlw	0E1h
   163  1028  34F5               	retlw	0F5h
   164  1029  3405               	retlw	05h
   165                           
   166  102A  3400               	retlw	0
   167  102B  34CA               	retlw	0CAh
   168  102C  349A               	retlw	09Ah
   169  102D  343B               	retlw	03Bh
   170                           
   171                           	global	__npowers_
   172                           psect	strings
   173                           	file	"C:\Program Files (x86)\HI-TECH Software\PICC\9.82\sources\powers.c"
   174                           	line	39
   175  102E                     __npowers_:
   176  102E  3400               	retlw	0x0
   177  102F  3480               	retlw	0x80
   178  1030  343F               	retlw	0x3f
   179                           
   180  1031  34CD               	retlw	0xcd
   181  1032  34CC               	retlw	0xcc
   182  1033  343D               	retlw	0x3d
   183                           
   184  1034  34D7               	retlw	0xd7
   185  1035  3423               	retlw	0x23
   186  1036  343C               	retlw	0x3c
   187                           
   188  1037  3412               	retlw	0x12
   189  1038  3483               	retlw	0x83
   190  1039  343A               	retlw	0x3a
   191                           
   192  103A  34B7               	retlw	0xb7
   193  103B  34D1               	retlw	0xd1
   194  103C  3438               	retlw	0x38
   195                           
   196  103D  34C6               	retlw	0xc6
   197  103E  3427               	retlw	0x27
   198  103F  3437               	retlw	0x37
   199                           
   200  1040  3438               	retlw	0x38
   201  1041  3486               	retlw	0x86
   202  1042  3435               	retlw	0x35
   203                           
   204  1043  34C0               	retlw	0xc0
   205  1044  34D6               	retlw	0xd6
   206  1045  3433               	retlw	0x33
   207                           
   208  1046  34CC               	retlw	0xcc
   209  1047  342B               	retlw	0x2b
   210  1048  3432               	retlw	0x32
   211                           
   212  1049  3470               	retlw	0x70
   213  104A  3489               	retlw	0x89
   214  104B  3430               	retlw	0x30
   215                           
   216  104C  34E7               	retlw	0xe7
   217  104D  34DB               	retlw	0xdb
   218  104E  342E               	retlw	0x2e
   219                           
   220  104F  34E5               	retlw	0xe5
   221  1050  343C               	retlw	0x3c
   222  1051  341E               	retlw	0x1e
   223                           
   224  1052  3442               	retlw	0x42
   225  1053  34A2               	retlw	0xa2
   226  1054  340D               	retlw	0xd
   227                           
   228                           	global	__powers_
   229                           psect	strings
   230                           	file	"C:\Program Files (x86)\HI-TECH Software\PICC\9.82\sources\powers.c"
   231                           	line	7
   232  1055                     __powers_:
   233  1055  3400               	retlw	0x0
   234  1056  3480               	retlw	0x80
   235  1057  343F               	retlw	0x3f
   236                           
   237  1058  3400               	retlw	0x0
   238  1059  3420               	retlw	0x20
   239  105A  3441               	retlw	0x41
   240                           
   241  105B  3400               	retlw	0x0
   242  105C  34C8               	retlw	0xc8
   243  105D  3442               	retlw	0x42
   244                           
   245  105E  3400               	retlw	0x0
   246  105F  347A               	retlw	0x7a
   247  1060  3444               	retlw	0x44
   248                           
   249  1061  3440               	retlw	0x40
   250  1062  341C               	retlw	0x1c
   251  1063  3446               	retlw	0x46
   252                           
   253  1064  3450               	retlw	0x50
   254  1065  34C3               	retlw	0xc3
   255  1066  3447               	retlw	0x47
   256                           
   257  1067  3424               	retlw	0x24
   258  1068  3474               	retlw	0x74
   259  1069  3449               	retlw	0x49
   260                           
   261  106A  3497               	retlw	0x97
   262  106B  3418               	retlw	0x18
   263  106C  344B               	retlw	0x4b
   264                           
   265  106D  34BC               	retlw	0xbc
   266  106E  34BE               	retlw	0xbe
   267  106F  344C               	retlw	0x4c
   268                           
   269  1070  346B               	retlw	0x6b
   270  1071  346E               	retlw	0x6e
   271  1072  344E               	retlw	0x4e
   272                           
   273  1073  3403               	retlw	0x3
   274  1074  3415               	retlw	0x15
   275  1075  3450               	retlw	0x50
   276                           
   277  1076  3479               	retlw	0x79
   278  1077  34AD               	retlw	0xad
   279  1078  3460               	retlw	0x60
   280                           
   281  1079  34F3               	retlw	0xf3
   282  107A  3449               	retlw	0x49
   283  107B  3471               	retlw	0x71
   284                           
   285                           	global	_dpowers
   286                           	global	__npowers_
   287                           	global	__powers_
   288                           	global	_errno
   289                           	global	_PORTB
   290  0006                     _PORTB	set	6
   291                           	global	_PORTD
   292  0008                     _PORTD	set	8
   293                           	global	_CARRY
   294  0018                     _CARRY	set	24
   295                           	global	_GIE
   296  005F                     _GIE	set	95
   297                           	global	_RB0
   298  0030                     _RB0	set	48
   299                           	global	_RB1
   300  0031                     _RB1	set	49
   301                           	global	_RB2
   302  0032                     _RB2	set	50
   303                           	global	_RB3
   304  0033                     _RB3	set	51
   305                           	global	_RB4
   306  0034                     _RB4	set	52
   307                           	global	_RB5
   308  0035                     _RB5	set	53
   309                           	global	_RB6
   310  0036                     _RB6	set	54
   311                           	global	_RB7
   312  0037                     _RB7	set	55
   313                           	global	_RD0
   314  0040                     _RD0	set	64
   315                           	global	_RD1
   316  0041                     _RD1	set	65
   317                           	global	_RD4
   318  0044                     _RD4	set	68
   319                           	global	_RD5
   320  0045                     _RD5	set	69
   321                           	global	_RD6
   322  0046                     _RD6	set	70
   323                           	global	_RD7
   324  0047                     _RD7	set	71
   325                           	global	_OPTION_REG
   326  0081                     _OPTION_REG	set	129
   327                           	global	_TRISB
   328  0086                     _TRISB	set	134
   329                           	global	_TRISD0
   330  0440                     _TRISD0	set	1088
   331                           	global	_TRISD1
   332  0441                     _TRISD1	set	1089
   333                           	global	_TRISD4
   334  0444                     _TRISD4	set	1092
   335                           	global	_TRISD5
   336  0445                     _TRISD5	set	1093
   337                           	global	_TRISD6
   338  0446                     _TRISD6	set	1094
   339                           	global	_TRISD7
   340  0447                     _TRISD7	set	1095
   341                           	global	_EEADR
   342  010D                     _EEADR	set	269
   343                           	global	_EEDATA
   344  010C                     _EEDATA	set	268
   345                           	global	_EECON1
   346  018C                     _EECON1	set	396
   347                           	global	_EECON2
   348  018D                     _EECON2	set	397
   349                           	global	_RD
   350  0C60                     _RD	set	3168
   351                           	global	_WR
   352  0C61                     _WR	set	3169
   353                           	global	_WREN
   354  0C62                     _WREN	set	3170
   355                           	
   356  107C                     STR_3:	
   357  107C  3457               	retlw	87	;'W'
   358  107D  3472               	retlw	114	;'r'
   359  107E  346F               	retlw	111	;'o'
   360  107F  346E               	retlw	110	;'n'
   361  1080  3467               	retlw	103	;'g'
   362  1081  3420               	retlw	32	;' '
   363  1082  3446               	retlw	70	;'F'
   364  1083  3475               	retlw	117	;'u'
   365  1084  346E               	retlw	110	;'n'
   366  1085  3463               	retlw	99	;'c'
   367  1086  3474               	retlw	116	;'t'
   368  1087  3469               	retlw	105	;'i'
   369  1088  346F               	retlw	111	;'o'
   370  1089  346E               	retlw	110	;'n'
   371  108A  3400               	retlw	0
   372                           psect	strings
   373                           	
   374  108B                     STR_4:	
   375  108B  3457               	retlw	87	;'W'
   376  108C  3472               	retlw	114	;'r'
   377  108D  346F               	retlw	111	;'o'
   378  108E  346E               	retlw	110	;'n'
   379  108F  3467               	retlw	103	;'g'
   380  1090  3420               	retlw	32	;' '
   381  1091  3441               	retlw	65	;'A'
   382  1092  3472               	retlw	114	;'r'
   383  1093  3467               	retlw	103	;'g'
   384  1094  3475               	retlw	117	;'u'
   385  1095  346D               	retlw	109	;'m'
   386  1096  3465               	retlw	101	;'e'
   387  1097  346E               	retlw	110	;'n'
   388  1098  3474               	retlw	116	;'t'
   389  1099  3400               	retlw	0
   390                           psect	strings
   391                           	
   392  109A                     STR_2:	
   393  109A  3457               	retlw	87	;'W'
   394  109B  3472               	retlw	114	;'r'
   395  109C  346F               	retlw	111	;'o'
   396  109D  346E               	retlw	110	;'n'
   397  109E  3467               	retlw	103	;'g'
   398  109F  3420               	retlw	32	;' '
   399  10A0  3449               	retlw	73	;'I'
   400  10A1  346E               	retlw	110	;'n'
   401  10A2  3470               	retlw	112	;'p'
   402  10A3  3475               	retlw	117	;'u'
   403  10A4  3474               	retlw	116	;'t'
   404  10A5  3400               	retlw	0
   405                           psect	strings
   406                           	
   407  10A6                     STR_1:	
   408  10A6  3425               	retlw	37	;'%'
   409  10A7  342E               	retlw	46	;'.'
   410  10A8  3432               	retlw	50	;'2'
   411  10A9  3466               	retlw	102	;'f'
   412  10AA  3400               	retlw	0
   413                           psect	strings
   414  109A                     STR_5	equ	STR_2+0
   415                           	file	"C:\Users\DELL-06\AppData\Local\Temp\sa7g."
   416                           	line	#
   417                           psect cinit,class=CODE,delta=2
   418                           global start_initialization
   419  10B0                     start_initialization:
   420                           
   421                           psect	bssBANK0,class=BANK0,space=1
   422                           global __pbssBANK0
   423  006E                     __pbssBANK0:
   424  006E                     _errno:
   425  006E                            ds      2
   426                           
   427                           ; Clear objects allocated to BANK0
   428                           psect cinit,class=CODE,delta=2
   429  10B0  01EE               	clrf	((__pbssBANK0)+0)&07Fh
   430  10B1  01EF               	clrf	((__pbssBANK0)+1)&07Fh
   431                           psect cinit,class=CODE,delta=2
   432                           global end_of_initialization
   433                           
   434                           ;End of C runtime variable initialization code
   435                           
   436  10B2                     end_of_initialization:
   437  10B2  0183               clrf status
   438  10B3  120A  158A  2BD2   ljmp _main	;jump to C main() function
   439                           psect	cstackBANK1,class=BANK1,space=1
   440                           global __pcstackBANK1
   441  00A0                     __pcstackBANK1:
   442                           	global	_sprintf$2820
   443  00A0                     _sprintf$2820:	; 4 bytes @ 0x0
   444  00A0                     	ds	4
   445                           	global	sprintf@ap
   446  00A4                     sprintf@ap:	; 1 bytes @ 0x4
   447  00A4                     	ds	1
   448                           	global	sprintf@flag
   449  00A5                     sprintf@flag:	; 2 bytes @ 0x5
   450  00A5                     	ds	2
   451                           	global	sprintf@integ
   452  00A7                     sprintf@integ:	; 3 bytes @ 0x7
   453  00A7                     	ds	3
   454                           	global	sprintf@_val
   455  00AA                     sprintf@_val:	; 4 bytes @ 0xA
   456  00AA                     	ds	4
   457                           	global	sprintf@exp
   458  00AE                     sprintf@exp:	; 2 bytes @ 0xE
   459  00AE                     	ds	2
   460                           	global	sprintf@sp
   461  00B0                     sprintf@sp:	; 1 bytes @ 0x10
   462  00B0                     	ds	1
   463                           	global	sprintf@prec
   464  00B1                     sprintf@prec:	; 2 bytes @ 0x11
   465  00B1                     	ds	2
   466                           	global	sprintf@fval
   467  00B3                     sprintf@fval:	; 3 bytes @ 0x13
   468  00B3                     	ds	3
   469                           	global	sprintf@c
   470  00B6                     sprintf@c:	; 1 bytes @ 0x16
   471  00B6                     	ds	1
   472                           	global	??_main
   473  00B7                     ??_main:	; 0 bytes @ 0x17
   474  00B7                     	ds	8
   475                           	global	main@msg
   476  00BF                     main@msg:	; 16 bytes @ 0x1F
   477  00BF                     	ds	16
   478                           	global	main@result
   479  00CF                     main@result:	; 3 bytes @ 0x2F
   480  00CF                     	ds	3
   481                           	global	main@shift
   482  00D2                     main@shift:	; 2 bytes @ 0x32
   483  00D2                     	ds	2
   484                           	global	main@next
   485  00D4                     main@next:	; 2 bytes @ 0x34
   486  00D4                     	ds	2
   487                           	global	main@i
   488  00D6                     main@i:	; 2 bytes @ 0x36
   489  00D6                     	ds	2
   490                           	global	main@tmp
   491  00D8                     main@tmp:	; 2 bytes @ 0x38
   492  00D8                     	ds	2
   493                           	global	main@func
   494  00DA                     main@func:	; 1 bytes @ 0x3A
   495  00DA                     	ds	1
   496                           	global	main@num1
   497  00DB                     main@num1:	; 4 bytes @ 0x3B
   498  00DB                     	ds	4
   499                           	global	main@num2
   500  00DF                     main@num2:	; 4 bytes @ 0x3F
   501  00DF                     	ds	4
   502                           	global	main@key
   503  00E3                     main@key:	; 1 bytes @ 0x43
   504  00E3                     	ds	1
   505                           psect	cstackCOMMON,class=COMMON,space=1
   506                           global __pcstackCOMMON
   507  0070                     __pcstackCOMMON:
   508                           	global	?_isdigit
   509  0070                     ?_isdigit:	; 1 bit 
   510                           	global	??_isdigit
   511  0070                     ??_isdigit:	; 0 bytes @ 0x0
   512                           	global	?_InitKeypad
   513  0070                     ?_InitKeypad:	; 0 bytes @ 0x0
   514                           	global	??_InitKeypad
   515  0070                     ??_InitKeypad:	; 0 bytes @ 0x0
   516                           	global	??_READ_SWITCHES
   517  0070                     ??_READ_SWITCHES:	; 0 bytes @ 0x0
   518                           	global	?_ToggleEpinOfLCD
   519  0070                     ?_ToggleEpinOfLCD:	; 0 bytes @ 0x0
   520                           	global	??_ToggleEpinOfLCD
   521  0070                     ??_ToggleEpinOfLCD:	; 0 bytes @ 0x0
   522                           	global	?_WriteCommandToLCD
   523  0070                     ?_WriteCommandToLCD:	; 0 bytes @ 0x0
   524                           	global	?_WriteDataToLCD
   525  0070                     ?_WriteDataToLCD:	; 0 bytes @ 0x0
   526                           	global	?_InitLCD
   527  0070                     ?_InitLCD:	; 0 bytes @ 0x0
   528                           	global	?_WriteStringToLCD
   529  0070                     ?_WriteStringToLCD:	; 0 bytes @ 0x0
   530                           	global	?_ClearLCDScreen
   531  0070                     ?_ClearLCDScreen:	; 0 bytes @ 0x0
   532                           	global	?_main
   533  0070                     ?_main:	; 0 bytes @ 0x0
   534                           	global	?___ftge
   535  0070                     ?___ftge:	; 1 bit 
   536                           	global	?_READ_SWITCHES
   537  0070                     ?_READ_SWITCHES:	; 1 bytes @ 0x0
   538                           	global	?_GetKey
   539  0070                     ?_GetKey:	; 1 bytes @ 0x0
   540                           	global	?___wmul
   541  0070                     ?___wmul:	; 2 bytes @ 0x0
   542                           	global	?___awmod
   543  0070                     ?___awmod:	; 2 bytes @ 0x0
   544                           	global	?___ftpack
   545  0070                     ?___ftpack:	; 3 bytes @ 0x0
   546                           	global	?___ftneg
   547  0070                     ?___ftneg:	; 3 bytes @ 0x0
   548                           	global	?__tdiv_to_l_
   549  0070                     ?__tdiv_to_l_:	; 4 bytes @ 0x0
   550                           	global	?__div_to_l_
   551  0070                     ?__div_to_l_:	; 4 bytes @ 0x0
   552                           	global	?___lmul
   553  0070                     ?___lmul:	; 4 bytes @ 0x0
   554                           	global	?___lldiv
   555  0070                     ?___lldiv:	; 4 bytes @ 0x0
   556                           	global	?___aldiv
   557  0070                     ?___aldiv:	; 4 bytes @ 0x0
   558                           	global	_isdigit$3155
   559  0070                     _isdigit$3155:	; 1 bytes @ 0x0
   560                           	global	___wmul@multiplier
   561  0070                     ___wmul@multiplier:	; 2 bytes @ 0x0
   562                           	global	___awmod@divisor
   563  0070                     ___awmod@divisor:	; 2 bytes @ 0x0
   564                           	global	___ftneg@f1
   565  0070                     ___ftneg@f1:	; 3 bytes @ 0x0
   566                           	global	___ftge@ff1
   567  0070                     ___ftge@ff1:	; 3 bytes @ 0x0
   568                           	global	__tdiv_to_l_@f1
   569  0070                     __tdiv_to_l_@f1:	; 3 bytes @ 0x0
   570                           	global	__div_to_l_@f1
   571  0070                     __div_to_l_@f1:	; 3 bytes @ 0x0
   572                           	global	___ftpack@arg
   573  0070                     ___ftpack@arg:	; 3 bytes @ 0x0
   574                           	global	___lmul@multiplier
   575  0070                     ___lmul@multiplier:	; 4 bytes @ 0x0
   576                           	global	___lldiv@divisor
   577  0070                     ___lldiv@divisor:	; 4 bytes @ 0x0
   578                           	global	___aldiv@divisor
   579  0070                     ___aldiv@divisor:	; 4 bytes @ 0x0
   580  0070                     	ds	1
   581                           	global	isdigit@c
   582  0071                     isdigit@c:	; 1 bytes @ 0x1
   583  0071                     	ds	1
   584                           	global	??_WriteCommandToLCD
   585  0072                     ??_WriteCommandToLCD:	; 0 bytes @ 0x2
   586                           	global	??_WriteDataToLCD
   587  0072                     ??_WriteDataToLCD:	; 0 bytes @ 0x2
   588                           	global	___wmul@multiplicand
   589  0072                     ___wmul@multiplicand:	; 2 bytes @ 0x2
   590                           	global	___awmod@dividend
   591  0072                     ___awmod@dividend:	; 2 bytes @ 0x2
   592  0072                     	ds	1
   593                           	global	??_GetKey
   594  0073                     ??_GetKey:	; 0 bytes @ 0x3
   595                           	global	??___ftneg
   596  0073                     ??___ftneg:	; 0 bytes @ 0x3
   597                           	global	___ftpack@exp
   598  0073                     ___ftpack@exp:	; 1 bytes @ 0x3
   599                           	global	___ftge@ff2
   600  0073                     ___ftge@ff2:	; 3 bytes @ 0x3
   601                           	global	__tdiv_to_l_@f2
   602  0073                     __tdiv_to_l_@f2:	; 3 bytes @ 0x3
   603                           	global	__div_to_l_@f2
   604  0073                     __div_to_l_@f2:	; 3 bytes @ 0x3
   605  0073                     	ds	1
   606                           	global	??___wmul
   607  0074                     ??___wmul:	; 0 bytes @ 0x4
   608                           	global	??___awmod
   609  0074                     ??___awmod:	; 0 bytes @ 0x4
   610                           	global	GetKey@key
   611  0074                     GetKey@key:	; 1 bytes @ 0x4
   612                           	global	WriteCommandToLCD@Command
   613  0074                     WriteCommandToLCD@Command:	; 1 bytes @ 0x4
   614                           	global	WriteDataToLCD@LCDChar
   615  0074                     WriteDataToLCD@LCDChar:	; 1 bytes @ 0x4
   616                           	global	___ftpack@sign
   617  0074                     ___ftpack@sign:	; 1 bytes @ 0x4
   618                           	global	___wmul@product
   619  0074                     ___wmul@product:	; 2 bytes @ 0x4
   620                           	global	___lmul@multiplicand
   621  0074                     ___lmul@multiplicand:	; 4 bytes @ 0x4
   622                           	global	___lldiv@dividend
   623  0074                     ___lldiv@dividend:	; 4 bytes @ 0x4
   624                           	global	___aldiv@dividend
   625  0074                     ___aldiv@dividend:	; 4 bytes @ 0x4
   626  0074                     	ds	1
   627                           	global	??___ftpack
   628  0075                     ??___ftpack:	; 0 bytes @ 0x5
   629                           	global	??_InitLCD
   630  0075                     ??_InitLCD:	; 0 bytes @ 0x5
   631                           	global	??_WriteStringToLCD
   632  0075                     ??_WriteStringToLCD:	; 0 bytes @ 0x5
   633                           	global	??_ClearLCDScreen
   634  0075                     ??_ClearLCDScreen:	; 0 bytes @ 0x5
   635                           	global	___awmod@counter
   636  0075                     ___awmod@counter:	; 1 bytes @ 0x5
   637  0075                     	ds	1
   638                           	global	??__tdiv_to_l_
   639  0076                     ??__tdiv_to_l_:	; 0 bytes @ 0x6
   640                           	global	??__div_to_l_
   641  0076                     ??__div_to_l_:	; 0 bytes @ 0x6
   642                           	global	??___ftge
   643  0076                     ??___ftge:	; 0 bytes @ 0x6
   644                           	global	WriteStringToLCD@s
   645  0076                     WriteStringToLCD@s:	; 1 bytes @ 0x6
   646                           	global	___awmod@sign
   647  0076                     ___awmod@sign:	; 1 bytes @ 0x6
   648  0076                     	ds	1
   649                           	global	?_DispError
   650  0077                     ?_DispError:	; 0 bytes @ 0x7
   651                           	global	?_get_num
   652  0077                     ?_get_num:	; 2 bytes @ 0x7
   653                           	global	?___awdiv
   654  0077                     ?___awdiv:	; 2 bytes @ 0x7
   655                           	global	DispError@numb
   656  0077                     DispError@numb:	; 2 bytes @ 0x7
   657                           	global	___awdiv@divisor
   658  0077                     ___awdiv@divisor:	; 2 bytes @ 0x7
   659  0077                     	ds	1
   660                           	global	??___lmul
   661  0078                     ??___lmul:	; 0 bytes @ 0x8
   662                           	global	??___lldiv
   663  0078                     ??___lldiv:	; 0 bytes @ 0x8
   664                           	global	??___aldiv
   665  0078                     ??___aldiv:	; 0 bytes @ 0x8
   666                           	global	?___lltoft
   667  0078                     ?___lltoft:	; 3 bytes @ 0x8
   668                           	global	___lltoft@c
   669  0078                     ___lltoft@c:	; 4 bytes @ 0x8
   670  0078                     	ds	1
   671                           	global	??_get_num
   672  0079                     ??_get_num:	; 0 bytes @ 0x9
   673                           	global	??_DispError
   674  0079                     ??_DispError:	; 0 bytes @ 0x9
   675                           	global	get_num@ch
   676  0079                     get_num@ch:	; 1 bytes @ 0x9
   677                           	global	___awdiv@dividend
   678  0079                     ___awdiv@dividend:	; 2 bytes @ 0x9
   679                           	global	___lmul@product
   680  0079                     ___lmul@product:	; 4 bytes @ 0x9
   681                           	global	___lldiv@quotient
   682  0079                     ___lldiv@quotient:	; 4 bytes @ 0x9
   683  0079                     	ds	1
   684                           	global	get_num@num
   685  007A                     get_num@num:	; 2 bytes @ 0xA
   686  007A                     	ds	1
   687                           	global	??___awdiv
   688  007B                     ??___awdiv:	; 0 bytes @ 0xB
   689  007B                     	ds	1
   690                           	global	??___bmul
   691  007C                     ??___bmul:	; 0 bytes @ 0xC
   692                           	global	??___lltoft
   693  007C                     ??___lltoft:	; 0 bytes @ 0xC
   694  007C                     	ds	1
   695                           	global	___lldiv@counter
   696  007D                     ___lldiv@counter:	; 1 bytes @ 0xD
   697                           	global	___lltoft@exp
   698  007D                     ___lltoft@exp:	; 1 bytes @ 0xD
   699  007D                     	ds	1
   700                           	global	??___ftsub
   701  007E                     ??___ftsub:	; 0 bytes @ 0xE
   702                           psect	cstackBANK0,class=BANK0,space=1
   703                           global __pcstackBANK0
   704  0020                     __pcstackBANK0:
   705                           	global	?___llmod
   706  0020                     ?___llmod:	; 4 bytes @ 0x0
   707                           	global	___awdiv@counter
   708  0020                     ___awdiv@counter:	; 1 bytes @ 0x0
   709                           	global	___aldiv@counter
   710  0020                     ___aldiv@counter:	; 1 bytes @ 0x0
   711                           	global	___llmod@divisor
   712  0020                     ___llmod@divisor:	; 4 bytes @ 0x0
   713                           	global	__tdiv_to_l_@quot
   714  0020                     __tdiv_to_l_@quot:	; 4 bytes @ 0x0
   715                           	global	__div_to_l_@quot
   716  0020                     __div_to_l_@quot:	; 4 bytes @ 0x0
   717  0020                     	ds	1
   718                           	global	___awdiv@sign
   719  0021                     ___awdiv@sign:	; 1 bytes @ 0x1
   720                           	global	___aldiv@sign
   721  0021                     ___aldiv@sign:	; 1 bytes @ 0x1
   722  0021                     	ds	1
   723                           	global	___awdiv@quotient
   724  0022                     ___awdiv@quotient:	; 2 bytes @ 0x2
   725                           	global	___aldiv@quotient
   726  0022                     ___aldiv@quotient:	; 4 bytes @ 0x2
   727  0022                     	ds	2
   728                           	global	?___bmul
   729  0024                     ?___bmul:	; 1 bytes @ 0x4
   730                           	global	___bmul@multiplicand
   731  0024                     ___bmul@multiplicand:	; 1 bytes @ 0x4
   732                           	global	__tdiv_to_l_@cntr
   733  0024                     __tdiv_to_l_@cntr:	; 1 bytes @ 0x4
   734                           	global	__div_to_l_@cntr
   735  0024                     __div_to_l_@cntr:	; 1 bytes @ 0x4
   736                           	global	___llmod@dividend
   737  0024                     ___llmod@dividend:	; 4 bytes @ 0x4
   738  0024                     	ds	1
   739                           	global	___bmul@product
   740  0025                     ___bmul@product:	; 1 bytes @ 0x5
   741                           	global	__tdiv_to_l_@exp1
   742  0025                     __tdiv_to_l_@exp1:	; 1 bytes @ 0x5
   743                           	global	__div_to_l_@exp1
   744  0025                     __div_to_l_@exp1:	; 1 bytes @ 0x5
   745  0025                     	ds	1
   746                           	global	?___altoft
   747  0026                     ?___altoft:	; 3 bytes @ 0x6
   748                           	global	___bmul@multiplier
   749  0026                     ___bmul@multiplier:	; 1 bytes @ 0x6
   750                           	global	___altoft@c
   751  0026                     ___altoft@c:	; 4 bytes @ 0x6
   752  0026                     	ds	1
   753                           	global	?___fttol
   754  0027                     ?___fttol:	; 4 bytes @ 0x7
   755                           	global	___fttol@f1
   756  0027                     ___fttol@f1:	; 3 bytes @ 0x7
   757  0027                     	ds	1
   758                           	global	??___llmod
   759  0028                     ??___llmod:	; 0 bytes @ 0x8
   760  0028                     	ds	1
   761                           	global	___llmod@counter
   762  0029                     ___llmod@counter:	; 1 bytes @ 0x9
   763  0029                     	ds	1
   764                           	global	??___altoft
   765  002A                     ??___altoft:	; 0 bytes @ 0xA
   766  002A                     	ds	1
   767                           	global	??___fttol
   768  002B                     ??___fttol:	; 0 bytes @ 0xB
   769  002B                     	ds	1
   770                           	global	___altoft@exp
   771  002C                     ___altoft@exp:	; 1 bytes @ 0xC
   772  002C                     	ds	1
   773                           	global	___altoft@sign
   774  002D                     ___altoft@sign:	; 1 bytes @ 0xD
   775  002D                     	ds	2
   776                           	global	___fttol@sign1
   777  002F                     ___fttol@sign1:	; 1 bytes @ 0xF
   778  002F                     	ds	1
   779                           	global	___fttol@lval
   780  0030                     ___fttol@lval:	; 4 bytes @ 0x10
   781  0030                     	ds	4
   782                           	global	___fttol@exp1
   783  0034                     ___fttol@exp1:	; 1 bytes @ 0x14
   784  0034                     	ds	1
   785                           	global	?___ftmul
   786  0035                     ?___ftmul:	; 3 bytes @ 0x15
   787                           	global	___ftmul@f1
   788  0035                     ___ftmul@f1:	; 3 bytes @ 0x15
   789  0035                     	ds	3
   790                           	global	___ftmul@f2
   791  0038                     ___ftmul@f2:	; 3 bytes @ 0x18
   792  0038                     	ds	3
   793                           	global	??___ftmul
   794  003B                     ??___ftmul:	; 0 bytes @ 0x1B
   795  003B                     	ds	4
   796                           	global	___ftmul@exp
   797  003F                     ___ftmul@exp:	; 1 bytes @ 0x1F
   798  003F                     	ds	1
   799                           	global	___ftmul@f3_as_product
   800  0040                     ___ftmul@f3_as_product:	; 3 bytes @ 0x20
   801  0040                     	ds	3
   802                           	global	___ftmul@cntr
   803  0043                     ___ftmul@cntr:	; 1 bytes @ 0x23
   804  0043                     	ds	1
   805                           	global	___ftmul@sign
   806  0044                     ___ftmul@sign:	; 1 bytes @ 0x24
   807  0044                     	ds	1
   808                           	global	?_scale
   809  0045                     ?_scale:	; 3 bytes @ 0x25
   810                           	global	?___ftadd
   811  0045                     ?___ftadd:	; 3 bytes @ 0x25
   812                           	global	___ftadd@f1
   813  0045                     ___ftadd@f1:	; 3 bytes @ 0x25
   814  0045                     	ds	3
   815                           	global	??_scale
   816  0048                     ??_scale:	; 0 bytes @ 0x28
   817                           	global	___ftadd@f2
   818  0048                     ___ftadd@f2:	; 3 bytes @ 0x28
   819  0048                     	ds	2
   820                           	global	_scale$3635
   821  004A                     _scale$3635:	; 3 bytes @ 0x2A
   822  004A                     	ds	1
   823                           	global	??___ftadd
   824  004B                     ??___ftadd:	; 0 bytes @ 0x2B
   825  004B                     	ds	2
   826                           	global	scale@scl
   827  004D                     scale@scl:	; 1 bytes @ 0x2D
   828  004D                     	ds	2
   829                           	global	___ftadd@sign
   830  004F                     ___ftadd@sign:	; 1 bytes @ 0x2F
   831  004F                     	ds	1
   832                           	global	___ftadd@exp2
   833  0050                     ___ftadd@exp2:	; 1 bytes @ 0x30
   834  0050                     	ds	1
   835                           	global	___ftadd@exp1
   836  0051                     ___ftadd@exp1:	; 1 bytes @ 0x31
   837  0051                     	ds	1
   838                           	global	?_fround
   839  0052                     ?_fround:	; 3 bytes @ 0x32
   840                           	global	?___ftsub
   841  0052                     ?___ftsub:	; 3 bytes @ 0x32
   842                           	global	___ftsub@f2
   843  0052                     ___ftsub@f2:	; 3 bytes @ 0x32
   844  0052                     	ds	3
   845                           	global	??_fround
   846  0055                     ??_fround:	; 0 bytes @ 0x35
   847                           	global	___ftsub@f1
   848  0055                     ___ftsub@f1:	; 3 bytes @ 0x35
   849  0055                     	ds	3
   850                           	global	?_sqrt
   851  0058                     ?_sqrt:	; 3 bytes @ 0x38
   852                           	global	sqrt@y
   853  0058                     sqrt@y:	; 3 bytes @ 0x38
   854  0058                     	ds	3
   855                           	global	??_sqrt
   856  005B                     ??_sqrt:	; 0 bytes @ 0x3B
   857                           	global	_fround$3634
   858  005B                     _fround$3634:	; 3 bytes @ 0x3B
   859  005B                     	ds	3
   860                           	global	_fround$3633
   861  005E                     _fround$3633:	; 3 bytes @ 0x3E
   862  005E                     	ds	3
   863                           	global	fround@prec
   864  0061                     fround@prec:	; 1 bytes @ 0x41
   865                           	global	sqrt@og
   866  0061                     sqrt@og:	; 3 bytes @ 0x41
   867  0061                     	ds	1
   868                           	global	?_sprintf
   869  0062                     ?_sprintf:	; 2 bytes @ 0x42
   870                           	global	sprintf@f
   871  0062                     sprintf@f:	; 1 bytes @ 0x42
   872  0062                     	ds	2
   873                           	global	sqrt@z
   874  0064                     sqrt@z:	; 3 bytes @ 0x44
   875  0064                     	ds	2
   876                           	global	??_sprintf
   877  0066                     ??_sprintf:	; 0 bytes @ 0x46
   878  0066                     	ds	1
   879                           	global	sqrt@i
   880  0067                     sqrt@i:	; 1 bytes @ 0x47
   881  0067                     	ds	1
   882                           	global	sqrt@q
   883  0068                     sqrt@q:	; 3 bytes @ 0x48
   884  0068                     	ds	3
   885                           	global	sqrt@x
   886  006B                     sqrt@x:	; 3 bytes @ 0x4B
   887  006B                     	ds	3
   888 ;;Data sizes: Strings 47, constant 118, data 0, bss 2, persistent 0 stack 0
   889 ;;Auto spaces:   Size  Autos    Used
   890 ;; COMMON          14     14      14
   891 ;; BANK0           80     78      80
   892 ;; BANK1           80     68      68
   893 ;; BANK3           96      0       0
   894 ;; BANK2           96      0       0
   895                           
   896 ;;
   897 ;; Pointer list with targets:
   898                           
   899 ;; ?___ftpack	float  size(1) Largest target is 0
   900 ;;
   901 ;; ?___lldiv	unsigned long  size(1) Largest target is 0
   902 ;;
   903 ;; ?___llmod	unsigned long  size(1) Largest target is 0
   904 ;;
   905 ;; ?___ftsub	float  size(1) Largest target is 0
   906 ;;
   907 ;; ?___lltoft	float  size(1) Largest target is 0
   908 ;;
   909 ;; ?__tdiv_to_l_	unsigned long  size(1) Largest target is 0
   910 ;;
   911 ;; ?__div_to_l_	unsigned long  size(1) Largest target is 0
   912 ;;
   913 ;; ?___fttol	long  size(1) Largest target is 0
   914 ;;
   915 ;; ?___ftadd	float  size(1) Largest target is 0
   916 ;;
   917 ;; ?___ftneg	float  size(1) Largest target is 0
   918 ;;
   919 ;; ?_scale	float  size(1) Largest target is 0
   920 ;;
   921 ;; ?___awmod	int  size(1) Largest target is 0
   922 ;;
   923 ;; ?_fround	int  size(1) Largest target is 0
   924 ;;
   925 ;; ?___wmul	unsigned int  size(1) Largest target is 0
   926 ;;
   927 ;; ?___ftmul	float  size(1) Largest target is 0
   928 ;;
   929 ;; ?___awdiv	int  size(1) Largest target is 0
   930 ;;
   931 ;; ?_get_num	int  size(1) Largest target is 0
   932 ;;
   933 ;; ?_sqrt	int  size(1) Largest target is 0
   934 ;;
   935 ;; ?___aldiv	long  size(1) Largest target is 0
   936 ;;
   937 ;; ?___altoft	float  size(1) Largest target is 0
   938 ;;
   939 ;; ?___lmul	unsigned long  size(1) Largest target is 0
   940 ;;
   941 ;; sprintf@f	PTR const unsigned char  size(1) Largest target is 5
   942 ;;		 -> STR_1(CODE[5]), 
   943 ;;
   944 ;; sprintf@sp	PTR unsigned char  size(1) Largest target is 16
   945 ;;		 -> main@msg(BANK1[16]), 
   946 ;;
   947 ;; ?_sprintf	int  size(1) Largest target is 0
   948 ;;
   949 ;; sprintf@ap	PTR void [1] size(1) Largest target is 2
   950 ;;		 -> ?_sprintf(BANK0[2]), 
   951 ;;
   952 ;; S2809$_cp	PTR const unsigned char  size(1) Largest target is 0
   953 ;;
   954 ;; _val._str._cp	PTR const unsigned char  size(1) Largest target is 0
   955 ;;
   956 ;; WriteStringToLCD@s	PTR const unsigned char  size(1) Largest target is 15
   957 ;;		 -> STR_5(CODE[12]), STR_4(CODE[15]), STR_3(CODE[15]), STR_2(CODE[12]), 
   958 ;;
   959                           
   960                           
   961 ;;
   962 ;; Critical Paths under _main in COMMON
   963 ;;
   964 ;;   _DispError->_ClearLCDScreen
   965 ;;   _DispError->_WriteStringToLCD
   966 ;;   _get_num->_ClearLCDScreen
   967 ;;   _sprintf->__div_to_l_
   968 ;;   _sprintf->___lltoft
   969 ;;   _sprintf->___lldiv
   970 ;;   _ClearLCDScreen->_WriteCommandToLCD
   971 ;;   _WriteStringToLCD->_WriteDataToLCD
   972 ;;   _InitLCD->_WriteCommandToLCD
   973 ;;   ___ftsub->___lltoft
   974 ;;   _scale->___bmul
   975 ;;   _fround->___bmul
   976 ;;   _WriteDataToLCD->_ToggleEpinOfLCD
   977 ;;   _WriteCommandToLCD->_ToggleEpinOfLCD
   978 ;;   _GetKey->_READ_SWITCHES
   979 ;;   ___lltoft->___ftpack
   980 ;;   ___altoft->___lmul
   981 ;;   ___ftmul->___bmul
   982 ;;   ___ftadd->___bmul
   983 ;;   ___llmod->___lldiv
   984 ;;   ___awdiv->___awmod
   985 ;;   ___fttol->___bmul
   986 ;;   ___bmul->___awdiv
   987 ;;
   988 ;; Critical Paths under _main in BANK0
   989 ;;
   990 ;;   _main->_sqrt
   991 ;;   _sprintf->_fround
   992 ;;   _sqrt->___ftsub
   993 ;;   ___ftsub->___ftadd
   994 ;;   _scale->___ftmul
   995 ;;   _fround->___ftadd
   996 ;;   ___altoft->___aldiv
   997 ;;   ___ftmul->___fttol
   998 ;;   ___ftadd->___ftmul
   999 ;;   ___fttol->___bmul
  1000 ;;   ___bmul->___awdiv
  1001 ;;
  1002 ;; Critical Paths under _main in BANK1
  1003 ;;
  1004 ;;   _main->_sprintf
  1005 ;;
  1006 ;; Critical Paths under _main in BANK3
  1007 ;;
  1008 ;;   None.
  1009 ;;
  1010 ;; Critical Paths under _main in BANK2
  1011 ;;
  1012 ;;   None.
  1013                           
  1014 ;;
  1015 ;;Main: autosize = 0, tempsize = 8, incstack = 0, save=0
  1016 ;;
  1017                           
  1018 ;;
  1019 ;;Call Graph Tables:
  1020 ;;
  1021 ;; ---------------------------------------------------------------------------------
  1022 ;; (Depth) Function   	        Calls       Base Space   Used Autos Params    Refs
  1023 ;; ---------------------------------------------------------------------------------
  1024 ;; (0) _main                                                45    45      0   14335
  1025 ;;                                             23 BANK1     45    45      0
  1026 ;;                         _InitKeypad
  1027 ;;                            _InitLCD
  1028 ;;                     _ClearLCDScreen
  1029 ;;                  _WriteCommandToLCD
  1030 ;;                             _GetKey
  1031 ;;                            _get_num
  1032 ;;                     _WriteDataToLCD
  1033 ;;                             ___lmul
  1034 ;;                           ___altoft
  1035 ;;                          _DispError
  1036 ;;                            ___aldiv
  1037 ;;                               _sqrt
  1038 ;;                            _sprintf
  1039 ;; ---------------------------------------------------------------------------------
  1040 ;; (1) _DispError                                            2     0      2     155
  1041 ;;                                              7 COMMON     2     0      2
  1042 ;;                     _ClearLCDScreen
  1043 ;;                   _WriteStringToLCD
  1044 ;; ---------------------------------------------------------------------------------
  1045 ;; (1) _get_num                                              5     3      2     101
  1046 ;;                                              7 COMMON     5     3      2
  1047 ;;                     _ClearLCDScreen
  1048 ;; ---------------------------------------------------------------------------------
  1049 ;; (1) _sprintf                                             39    35      4    9894
  1050 ;;                                             66 BANK0     10     6      4
  1051 ;;                                              0 BANK1     23    23      0
  1052 ;;                             ___wmul
  1053 ;;                            _isdigit
  1054 ;;                             ___ftge
  1055 ;;                            ___ftneg
  1056 ;;                            ___awdiv
  1057 ;;                              _scale
  1058 ;;                            ___ftmul
  1059 ;;                             _fround
  1060 ;;                            ___ftadd
  1061 ;;                            ___fttol
  1062 ;;                         __div_to_l_
  1063 ;;                        __tdiv_to_l_
  1064 ;;                           ___lltoft
  1065 ;;                            ___ftsub
  1066 ;;                            ___lldiv
  1067 ;;                            ___llmod
  1068 ;; ---------------------------------------------------------------------------------
  1069 ;; (1) _sqrt                                                22    19      3    2150
  1070 ;;                                             56 BANK0     22    19      3
  1071 ;;                             ___ftge
  1072 ;;                            ___ftmul
  1073 ;;                            ___ftsub
  1074 ;;                           ___altoft (ARG)
  1075 ;; ---------------------------------------------------------------------------------
  1076 ;; (2) _ClearLCDScreen                                       2     2      0      44
  1077 ;;                                              5 COMMON     2     2      0
  1078 ;;                  _WriteCommandToLCD
  1079 ;; ---------------------------------------------------------------------------------
  1080 ;; (2) _WriteStringToLCD                                     2     2      0      89
  1081 ;;                                              5 COMMON     2     2      0
  1082 ;;                     _WriteDataToLCD
  1083 ;; ---------------------------------------------------------------------------------
  1084 ;; (1) _InitLCD                                              3     3      0      44
  1085 ;;                                              5 COMMON     3     3      0
  1086 ;;                    _ToggleEpinOfLCD
  1087 ;;                  _WriteCommandToLCD
  1088 ;; ---------------------------------------------------------------------------------
  1089 ;; (2) ___ftsub                                              6     0      6    1094
  1090 ;;                                             50 BANK0      6     0      6
  1091 ;;                            ___ftadd
  1092 ;;                           ___lltoft (ARG)
  1093 ;; ---------------------------------------------------------------------------------
  1094 ;; (2) _scale                                               12     9      3    1688
  1095 ;;                                             37 BANK0      9     6      3
  1096 ;;                            ___awmod
  1097 ;;                             ___bmul
  1098 ;;                            ___awdiv
  1099 ;;                            ___ftmul
  1100 ;;                            ___fttol (ARG)
  1101 ;; ---------------------------------------------------------------------------------
  1102 ;; (2) _fround                                              19    16      3    1490
  1103 ;;                                             50 BANK0     16    13      3
  1104 ;;                            ___awmod
  1105 ;;                             ___bmul
  1106 ;;                            ___awdiv
  1107 ;;                            ___ftmul
  1108 ;;                            ___ftadd (ARG)
  1109 ;; ---------------------------------------------------------------------------------
  1110 ;; (3) _WriteDataToLCD                                       3     3      0      44
  1111 ;;                                              2 COMMON     3     3      0
  1112 ;;                    _ToggleEpinOfLCD
  1113 ;; ---------------------------------------------------------------------------------
  1114 ;; (3) _WriteCommandToLCD                                    3     3      0      44
  1115 ;;                                              2 COMMON     3     3      0
  1116 ;;                    _ToggleEpinOfLCD
  1117 ;; ---------------------------------------------------------------------------------
  1118 ;; (1) _GetKey                                               2     2      0      46
  1119 ;;                                              3 COMMON     2     2      0
  1120 ;;                      _READ_SWITCHES
  1121 ;; ---------------------------------------------------------------------------------
  1122 ;; (2) ___lltoft                                             6     2      4     278
  1123 ;;                                              8 COMMON     6     2      4
  1124 ;;                           ___ftpack
  1125 ;; ---------------------------------------------------------------------------------
  1126 ;; (1) ___altoft                                             8     4      4     347
  1127 ;;                                              6 BANK0      8     4      4
  1128 ;;                           ___ftpack
  1129 ;;                             ___lmul (ARG)
  1130 ;;                            ___aldiv (ARG)
  1131 ;; ---------------------------------------------------------------------------------
  1132 ;; (3) ___ftmul                                             16    10      6     535
  1133 ;;                                             21 BANK0     16    10      6
  1134 ;;                           ___ftpack
  1135 ;;                            ___fttol (ARG)
  1136 ;;                             ___bmul (ARG)
  1137 ;;                            ___awdiv (ARG)
  1138 ;;                            ___awmod (ARG)
  1139 ;; ---------------------------------------------------------------------------------
  1140 ;; (3) ___ftadd                                             13     7      6    1049
  1141 ;;                                             37 BANK0     13     7      6
  1142 ;;                           ___ftpack
  1143 ;;                            ___awmod (ARG)
  1144 ;;                             ___bmul (ARG)
  1145 ;;                            ___awdiv (ARG)
  1146 ;;                            ___ftmul (ARG)
  1147 ;; ---------------------------------------------------------------------------------
  1148 ;; (4) _ToggleEpinOfLCD                                      2     2      0       0
  1149 ;;                                              0 COMMON     2     2      0
  1150 ;; ---------------------------------------------------------------------------------
  1151 ;; (2) _READ_SWITCHES                                        3     3      0       0
  1152 ;;                                              0 COMMON     3     3      0
  1153 ;; ---------------------------------------------------------------------------------
  1154 ;; (3) ___awmod                                              7     3      4     296
  1155 ;;                                              0 COMMON     7     3      4
  1156 ;; ---------------------------------------------------------------------------------
  1157 ;; (1) ___aldiv                                             15     7      8     300
  1158 ;;                                              0 COMMON     9     1      8
  1159 ;;                                              0 BANK0      6     6      0
  1160 ;; ---------------------------------------------------------------------------------
  1161 ;; (2) ___lldiv                                             14     6      8     162
  1162 ;;                                              0 COMMON    14     6      8
  1163 ;; ---------------------------------------------------------------------------------
  1164 ;; (2) ___ftge                                              12     6      6     136
  1165 ;;                                              0 COMMON    12     6      6
  1166 ;; ---------------------------------------------------------------------------------
  1167 ;; (2) ___ftneg                                              3     0      3      45
  1168 ;;                                              0 COMMON     3     0      3
  1169 ;; ---------------------------------------------------------------------------------
  1170 ;; (2) ___llmod                                             10     2      8     159
  1171 ;;                                              0 BANK0     10     2      8
  1172 ;;                            ___lldiv (ARG)
  1173 ;; ---------------------------------------------------------------------------------
  1174 ;; (3) ___awdiv                                              9     5      4     300
  1175 ;;                                              7 COMMON     5     1      4
  1176 ;;                                              0 BANK0      4     4      0
  1177 ;;                            ___awmod (ARG)
  1178 ;; ---------------------------------------------------------------------------------
  1179 ;; (2) ___fttol                                             14    10      4     252
  1180 ;;                                              7 BANK0     14    10      4
  1181 ;;                           ___ftpack (ARG)
  1182 ;;                            ___awmod (ARG)
  1183 ;;                             ___bmul (ARG)
  1184 ;;                            ___awdiv (ARG)
  1185 ;; ---------------------------------------------------------------------------------
  1186 ;; (1) ___lmul                                              13     5      8      92
  1187 ;;                                              0 COMMON    13     5      8
  1188 ;; ---------------------------------------------------------------------------------
  1189 ;; (4) ___ftpack                                             8     3      5     209
  1190 ;;                                              0 COMMON     8     3      5
  1191 ;; ---------------------------------------------------------------------------------
  1192 ;; (2) ___wmul                                               6     2      4      92
  1193 ;;                                              0 COMMON     6     2      4
  1194 ;; ---------------------------------------------------------------------------------
  1195 ;; (3) ___bmul                                               4     3      1      68
  1196 ;;                                             12 COMMON     1     1      0
  1197 ;;                                              4 BANK0      3     2      1
  1198 ;;                            ___awmod (ARG)
  1199 ;;                            ___awdiv (ARG)
  1200 ;; ---------------------------------------------------------------------------------
  1201 ;; (2) __div_to_l_                                          20    14      6     446
  1202 ;;                                              0 COMMON    14     8      6
  1203 ;;                                              0 BANK0      6     6      0
  1204 ;; ---------------------------------------------------------------------------------
  1205 ;; (2) __tdiv_to_l_                                         16    10      6     303
  1206 ;;                                              0 COMMON    10     4      6
  1207 ;;                                              0 BANK0      6     6      0
  1208 ;; ---------------------------------------------------------------------------------
  1209 ;; (2) _isdigit                                              2     2      0      68
  1210 ;;                                              0 COMMON     2     2      0
  1211 ;; ---------------------------------------------------------------------------------
  1212 ;; (1) _InitKeypad                                           1     1      0       0
  1213 ;;                                              0 COMMON     1     1      0
  1214 ;; ---------------------------------------------------------------------------------
  1215 ;; Estimated maximum stack depth 4
  1216 ;; ---------------------------------------------------------------------------------
  1217                           
  1218 ;; Call Graph Graphs:
  1219                           
  1220 ;; _main (ROOT)
  1221 ;;   _InitKeypad
  1222 ;;   _InitLCD
  1223 ;;     _ToggleEpinOfLCD
  1224 ;;     _WriteCommandToLCD
  1225 ;;       _ToggleEpinOfLCD
  1226 ;;   _ClearLCDScreen
  1227 ;;     _WriteCommandToLCD
  1228 ;;       _ToggleEpinOfLCD
  1229 ;;   _WriteCommandToLCD
  1230 ;;     _ToggleEpinOfLCD
  1231 ;;   _GetKey
  1232 ;;     _READ_SWITCHES
  1233 ;;   _get_num
  1234 ;;     _ClearLCDScreen
  1235 ;;       _WriteCommandToLCD
  1236 ;;         _ToggleEpinOfLCD
  1237 ;;   _WriteDataToLCD
  1238 ;;     _ToggleEpinOfLCD
  1239 ;;   ___lmul
  1240 ;;   ___altoft
  1241 ;;     ___ftpack
  1242 ;;     ___lmul (ARG)
  1243 ;;     ___aldiv (ARG)
  1244 ;;   _DispError
  1245 ;;     _ClearLCDScreen
  1246 ;;       _WriteCommandToLCD
  1247 ;;         _ToggleEpinOfLCD
  1248 ;;     _WriteStringToLCD
  1249 ;;       _WriteDataToLCD
  1250 ;;         _ToggleEpinOfLCD
  1251 ;;   ___aldiv
  1252 ;;   _sqrt
  1253 ;;     ___ftge
  1254 ;;     ___ftmul
  1255 ;;       ___ftpack
  1256 ;;       ___fttol (ARG)
  1257 ;;         ___ftpack (ARG)
  1258 ;;         ___awmod (ARG)
  1259 ;;         ___bmul (ARG)
  1260 ;;           ___awmod (ARG)
  1261 ;;           ___awdiv (ARG)
  1262 ;;             ___awmod (ARG)
  1263 ;;         ___awdiv (ARG)
  1264 ;;           ___awmod (ARG)
  1265 ;;       ___bmul (ARG)
  1266 ;;         ___awmod (ARG)
  1267 ;;         ___awdiv (ARG)
  1268 ;;           ___awmod (ARG)
  1269 ;;       ___awdiv (ARG)
  1270 ;;         ___awmod (ARG)
  1271 ;;       ___awmod (ARG)
  1272 ;;     ___ftsub
  1273 ;;       ___ftadd
  1274 ;;         ___ftpack
  1275 ;;         ___awmod (ARG)
  1276 ;;         ___bmul (ARG)
  1277 ;;           ___awmod (ARG)
  1278 ;;           ___awdiv (ARG)
  1279 ;;             ___awmod (ARG)
  1280 ;;         ___awdiv (ARG)
  1281 ;;           ___awmod (ARG)
  1282 ;;         ___ftmul (ARG)
  1283 ;;           ___ftpack
  1284 ;;           ___fttol (ARG)
  1285 ;;             ___ftpack (ARG)
  1286 ;;             ___awmod (ARG)
  1287 ;;             ___bmul (ARG)
  1288 ;;               ___awmod (ARG)
  1289 ;;               ___awdiv (ARG)
  1290 ;;                 ___awmod (ARG)
  1291 ;;             ___awdiv (ARG)
  1292 ;;               ___awmod (ARG)
  1293 ;;           ___bmul (ARG)
  1294 ;;             ___awmod (ARG)
  1295 ;;             ___awdiv (ARG)
  1296 ;;               ___awmod (ARG)
  1297 ;;           ___awdiv (ARG)
  1298 ;;             ___awmod (ARG)
  1299 ;;           ___awmod (ARG)
  1300 ;;       ___lltoft (ARG)
  1301 ;;         ___ftpack
  1302 ;;     ___altoft (ARG)
  1303 ;;       ___ftpack
  1304 ;;       ___lmul (ARG)
  1305 ;;       ___aldiv (ARG)
  1306 ;;   _sprintf
  1307 ;;     ___wmul
  1308 ;;     _isdigit
  1309 ;;     ___ftge
  1310 ;;     ___ftneg
  1311 ;;     ___awdiv
  1312 ;;       ___awmod (ARG)
  1313 ;;     _scale
  1314 ;;       ___awmod
  1315 ;;       ___bmul
  1316 ;;         ___awmod (ARG)
  1317 ;;         ___awdiv (ARG)
  1318 ;;           ___awmod (ARG)
  1319 ;;       ___awdiv
  1320 ;;         ___awmod (ARG)
  1321 ;;       ___ftmul
  1322 ;;         ___ftpack
  1323 ;;         ___fttol (ARG)
  1324 ;;           ___ftpack (ARG)
  1325 ;;           ___awmod (ARG)
  1326 ;;           ___bmul (ARG)
  1327 ;;             ___awmod (ARG)
  1328 ;;             ___awdiv (ARG)
  1329 ;;               ___awmod (ARG)
  1330 ;;           ___awdiv (ARG)
  1331 ;;             ___awmod (ARG)
  1332 ;;         ___bmul (ARG)
  1333 ;;           ___awmod (ARG)
  1334 ;;           ___awdiv (ARG)
  1335 ;;             ___awmod (ARG)
  1336 ;;         ___awdiv (ARG)
  1337 ;;           ___awmod (ARG)
  1338 ;;         ___awmod (ARG)
  1339 ;;       ___fttol (ARG)
  1340 ;;         ___ftpack (ARG)
  1341 ;;         ___awmod (ARG)
  1342 ;;         ___bmul (ARG)
  1343 ;;           ___awmod (ARG)
  1344 ;;           ___awdiv (ARG)
  1345 ;;             ___awmod (ARG)
  1346 ;;         ___awdiv (ARG)
  1347 ;;           ___awmod (ARG)
  1348 ;;     ___ftmul
  1349 ;;       ___ftpack
  1350 ;;       ___fttol (ARG)
  1351 ;;         ___ftpack (ARG)
  1352 ;;         ___awmod (ARG)
  1353 ;;         ___bmul (ARG)
  1354 ;;           ___awmod (ARG)
  1355 ;;           ___awdiv (ARG)
  1356 ;;             ___awmod (ARG)
  1357 ;;         ___awdiv (ARG)
  1358 ;;           ___awmod (ARG)
  1359 ;;       ___bmul (ARG)
  1360 ;;         ___awmod (ARG)
  1361 ;;         ___awdiv (ARG)
  1362 ;;           ___awmod (ARG)
  1363 ;;       ___awdiv (ARG)
  1364 ;;         ___awmod (ARG)
  1365 ;;       ___awmod (ARG)
  1366 ;;     _fround
  1367 ;;       ___awmod
  1368 ;;       ___bmul
  1369 ;;         ___awmod (ARG)
  1370 ;;         ___awdiv (ARG)
  1371 ;;           ___awmod (ARG)
  1372 ;;       ___awdiv
  1373 ;;         ___awmod (ARG)
  1374 ;;       ___ftmul
  1375 ;;         ___ftpack
  1376 ;;         ___fttol (ARG)
  1377 ;;           ___ftpack (ARG)
  1378 ;;           ___awmod (ARG)
  1379 ;;           ___bmul (ARG)
  1380 ;;             ___awmod (ARG)
  1381 ;;             ___awdiv (ARG)
  1382 ;;               ___awmod (ARG)
  1383 ;;           ___awdiv (ARG)
  1384 ;;             ___awmod (ARG)
  1385 ;;         ___bmul (ARG)
  1386 ;;           ___awmod (ARG)
  1387 ;;           ___awdiv (ARG)
  1388 ;;             ___awmod (ARG)
  1389 ;;         ___awdiv (ARG)
  1390 ;;           ___awmod (ARG)
  1391 ;;         ___awmod (ARG)
  1392 ;;       ___ftadd (ARG)
  1393 ;;         ___ftpack
  1394 ;;         ___awmod (ARG)
  1395 ;;         ___bmul (ARG)
  1396 ;;           ___awmod (ARG)
  1397 ;;           ___awdiv (ARG)
  1398 ;;             ___awmod (ARG)
  1399 ;;         ___awdiv (ARG)
  1400 ;;           ___awmod (ARG)
  1401 ;;         ___ftmul (ARG)
  1402 ;;           ___ftpack
  1403 ;;           ___fttol (ARG)
  1404 ;;             ___ftpack (ARG)
  1405 ;;             ___awmod (ARG)
  1406 ;;             ___bmul (ARG)
  1407 ;;               ___awmod (ARG)
  1408 ;;               ___awdiv (ARG)
  1409 ;;                 ___awmod (ARG)
  1410 ;;             ___awdiv (ARG)
  1411 ;;               ___awmod (ARG)
  1412 ;;           ___bmul (ARG)
  1413 ;;             ___awmod (ARG)
  1414 ;;             ___awdiv (ARG)
  1415 ;;               ___awmod (ARG)
  1416 ;;           ___awdiv (ARG)
  1417 ;;             ___awmod (ARG)
  1418 ;;           ___awmod (ARG)
  1419 ;;     ___ftadd
  1420 ;;       ___ftpack
  1421 ;;       ___awmod (ARG)
  1422 ;;       ___bmul (ARG)
  1423 ;;         ___awmod (ARG)
  1424 ;;         ___awdiv (ARG)
  1425 ;;           ___awmod (ARG)
  1426 ;;       ___awdiv (ARG)
  1427 ;;         ___awmod (ARG)
  1428 ;;       ___ftmul (ARG)
  1429 ;;         ___ftpack
  1430 ;;         ___fttol (ARG)
  1431 ;;           ___ftpack (ARG)
  1432 ;;           ___awmod (ARG)
  1433 ;;           ___bmul (ARG)
  1434 ;;             ___awmod (ARG)
  1435 ;;             ___awdiv (ARG)
  1436 ;;               ___awmod (ARG)
  1437 ;;           ___awdiv (ARG)
  1438 ;;             ___awmod (ARG)
  1439 ;;         ___bmul (ARG)
  1440 ;;           ___awmod (ARG)
  1441 ;;           ___awdiv (ARG)
  1442 ;;             ___awmod (ARG)
  1443 ;;         ___awdiv (ARG)
  1444 ;;           ___awmod (ARG)
  1445 ;;         ___awmod (ARG)
  1446 ;;     ___fttol
  1447 ;;       ___ftpack (ARG)
  1448 ;;       ___awmod (ARG)
  1449 ;;       ___bmul (ARG)
  1450 ;;         ___awmod (ARG)
  1451 ;;         ___awdiv (ARG)
  1452 ;;           ___awmod (ARG)
  1453 ;;       ___awdiv (ARG)
  1454 ;;         ___awmod (ARG)
  1455 ;;     __div_to_l_
  1456 ;;     __tdiv_to_l_
  1457 ;;     ___lltoft
  1458 ;;       ___ftpack
  1459 ;;     ___ftsub
  1460 ;;       ___ftadd
  1461 ;;         ___ftpack
  1462 ;;         ___awmod (ARG)
  1463 ;;         ___bmul (ARG)
  1464 ;;           ___awmod (ARG)
  1465 ;;           ___awdiv (ARG)
  1466 ;;             ___awmod (ARG)
  1467 ;;         ___awdiv (ARG)
  1468 ;;           ___awmod (ARG)
  1469 ;;         ___ftmul (ARG)
  1470 ;;           ___ftpack
  1471 ;;           ___fttol (ARG)
  1472 ;;             ___ftpack (ARG)
  1473 ;;             ___awmod (ARG)
  1474 ;;             ___bmul (ARG)
  1475 ;;               ___awmod (ARG)
  1476 ;;               ___awdiv (ARG)
  1477 ;;                 ___awmod (ARG)
  1478 ;;             ___awdiv (ARG)
  1479 ;;               ___awmod (ARG)
  1480 ;;           ___bmul (ARG)
  1481 ;;             ___awmod (ARG)
  1482 ;;             ___awdiv (ARG)
  1483 ;;               ___awmod (ARG)
  1484 ;;           ___awdiv (ARG)
  1485 ;;             ___awmod (ARG)
  1486 ;;           ___awmod (ARG)
  1487 ;;       ___lltoft (ARG)
  1488 ;;         ___ftpack
  1489 ;;     ___lldiv
  1490 ;;     ___llmod
  1491 ;;       ___lldiv (ARG)
  1492 ;;
  1493                           
  1494 ;; Address spaces:
  1495                           
  1496 ;;Name               Size   Autos  Total    Cost      Usage
  1497 ;;BITCOMMON            E      0       0       0        0.0%
  1498 ;;EEDATA             100      0       0       0        0.0%
  1499 ;;NULL                 0      0       0       0        0.0%
  1500 ;;CODE                 0      0       0       0        0.0%
  1501 ;;COMMON               E      E       E       1      100.0%
  1502 ;;BITSFR0              0      0       0       1        0.0%
  1503 ;;SFR0                 0      0       0       1        0.0%
  1504 ;;BITSFR1              0      0       0       2        0.0%
  1505 ;;SFR1                 0      0       0       2        0.0%
  1506 ;;STACK                0      0       4       2        0.0%
  1507 ;;ABS                  0      0      A2       3        0.0%
  1508 ;;BITBANK0            50      0       0       4        0.0%
  1509 ;;BITSFR3              0      0       0       4        0.0%
  1510 ;;SFR3                 0      0       0       4        0.0%
  1511 ;;BANK0               50     4E      50       5      100.0%
  1512 ;;BITSFR2              0      0       0       5        0.0%
  1513 ;;SFR2                 0      0       0       5        0.0%
  1514 ;;BITBANK1            50      0       0       6        0.0%
  1515 ;;BANK1               50     44      44       7       85.0%
  1516 ;;BITBANK3            60      0       0       8        0.0%
  1517 ;;BANK3               60      0       0       9        0.0%
  1518 ;;BITBANK2            60      0       0      10        0.0%
  1519 ;;BANK2               60      0       0      11        0.0%
  1520 ;;DATA                 0      0      A6      12        0.0%
  1521                           
  1522                           	global	_main
  1523                           psect	maintext,global,class=CODE,delta=2
  1524                           global __pmaintext
  1525  0BD2                     __pmaintext:
  1526                           
  1527 ;; *************** function _main *****************
  1528 ;; Defined at:
  1529 ;;		line 19 in file "../Main.c"
  1530 ;; Parameters:    Size  Location     Type
  1531 ;;		None
  1532 ;; Auto vars:     Size  Location     Type
  1533 ;;  i               2   54[BANK1 ] int 
  1534 ;;  msg            16   31[BANK1 ] unsigned char [16]
  1535 ;;  num2            4   63[BANK1 ] long 
  1536 ;;  num1            4   59[BANK1 ] long 
  1537 ;;  result          3   47[BANK1 ] long 
  1538 ;;  tmp             2   56[BANK1 ] int 
  1539 ;;  next            2   52[BANK1 ] int 
  1540 ;;  shift           2   50[BANK1 ] int 
  1541 ;;  key             1   67[BANK1 ] unsigned char 
  1542 ;;  func            1   58[BANK1 ] unsigned char 
  1543 ;; Return value:  Size  Location     Type
  1544 ;;		None               void
  1545 ;; Registers used:
  1546 ;;		wreg, fsr0l, fsr0h, status,2, status,0, btemp+1, pclath, cstack
  1547 ;; Tracked objects:
  1548 ;;		On entry : 17F/0
  1549 ;;		On exit  : 0/0
  1550 ;;		Unchanged: 0/0
  1551 ;; Data sizes:     COMMON   BANK0   BANK1   BANK3   BANK2
  1552 ;;      Params:         0       0       0       0       0
  1553 ;;      Locals:         0       0      37       0       0
  1554 ;;      Temps:          0       0       8       0       0
  1555 ;;      Totals:         0       0      45       0       0
  1556 ;;Total ram usage:       45 bytes
  1557 ;; Hardware stack levels required when called:    4
  1558 ;; This function calls:
  1559 ;;		_InitKeypad
  1560 ;;		_InitLCD
  1561 ;;		_ClearLCDScreen
  1562 ;;		_WriteCommandToLCD
  1563 ;;		_GetKey
  1564 ;;		_get_num
  1565 ;;		_WriteDataToLCD
  1566 ;;		___lmul
  1567 ;;		___altoft
  1568 ;;		_DispError
  1569 ;;		___aldiv
  1570 ;;		_sqrt
  1571 ;;		_sprintf
  1572 ;; This function is called by:
  1573 ;;		Startup code after reset
  1574 ;; This function uses a non-reentrant model
  1575 ;;
  1576                           psect	maintext
  1577                           	file	"../Main.c"
  1578                           	line	19
  1579                           	global	__size_of_main
  1580  042E                     	__size_of_main	equ	__end_of_main-_main
  1581                           	
  1582  0BD2                     _main:	
  1583                           	opt	stack 4
  1584                           ; Regs used in _main: [wreg-fsr0h+status,2+status,0+btemp+1+pclath+cstack]
  1585                           	line	22
  1586                           	
  1587  0BD2                     l7712:	
  1588                           ;Main.c: 20: char msg[16];
  1589                           ;Main.c: 21: char key;
  1590                           ;Main.c: 22: long int num1 = 0;
  1591  0BD2  3000               	movlw	0
  1592  0BD3  1683               	bsf	status, 5	;RP0=1, select bank1
  1593  0BD4  1303               	bcf	status, 6	;RP1=0, select bank1
  1594  0BD5  00DE               	movwf	(main@num1+3)^080h
  1595  0BD6  3000               	movlw	0
  1596  0BD7  00DD               	movwf	(main@num1+2)^080h
  1597  0BD8  3000               	movlw	0
  1598  0BD9  00DC               	movwf	(main@num1+1)^080h
  1599  0BDA  3000               	movlw	0
  1600  0BDB  00DB               	movwf	(main@num1)^080h
  1601                           
  1602                           	line	23
  1603                           ;Main.c: 23: char func = '.';
  1604  0BDC  302E               	movlw	(02Eh)
  1605  0BDD  00B7               	movwf	(??_main+0)^080h+0
  1606  0BDE  0837               	movf	(??_main+0)^080h+0,w
  1607  0BDF  00DA               	movwf	(main@func)^080h
  1608                           	line	24
  1609                           ;Main.c: 24: long int num2 = 0;
  1610  0BE0  3000               	movlw	0
  1611  0BE1  00E2               	movwf	(main@num2+3)^080h
  1612  0BE2  3000               	movlw	0
  1613  0BE3  00E1               	movwf	(main@num2+2)^080h
  1614  0BE4  3000               	movlw	0
  1615  0BE5  00E0               	movwf	(main@num2+1)^080h
  1616  0BE6  3000               	movlw	0
  1617  0BE7  00DF               	movwf	(main@num2)^080h
  1618                           
  1619                           	line	25
  1620                           	
  1621  0BE8                     l7714:	
  1622                           ;Main.c: 25: int tmp = 0;
  1623  0BE8  01D8               	clrf	(main@tmp)^080h
  1624  0BE9  01D9               	clrf	(main@tmp+1)^080h
  1625                           	line	26
  1626                           	
  1627  0BEA                     l7716:	
  1628                           ;Main.c: 26: int shift = 0;
  1629  0BEA  01D2               	clrf	(main@shift)^080h
  1630  0BEB  01D3               	clrf	(main@shift+1)^080h
  1631                           	line	27
  1632                           	
  1633  0BEC                     l7718:	
  1634                           ;Main.c: 27: int next = 0;
  1635  0BEC  01D4               	clrf	(main@next)^080h
  1636  0BED  01D5               	clrf	(main@next+1)^080h
  1637                           	line	28
  1638                           	
  1639  0BEE                     l7720:	
  1640                           ;Main.c: 28: long double result = 0;
  1641  0BEE  3000               	movlw	0x0
  1642  0BEF  00CF               	movwf	(main@result)^080h
  1643  0BF0  3000               	movlw	0x0
  1644  0BF1  00D0               	movwf	(main@result+1)^080h
  1645  0BF2  3000               	movlw	0x0
  1646  0BF3  00D1               	movwf	(main@result+2)^080h
  1647                           	line	30
  1648                           	
  1649  0BF4                     l7722:	
  1650                           ;Main.c: 30: InitKeypad();
  1651  0BF4  160A  158A  211D   	fcall	_InitKeypad
              120A  158A         
  1652                           	line	31
  1653                           	
  1654  0BF9                     l7724:	
  1655                           ;Main.c: 31: InitLCD();
  1656  0BF9  160A  158A  2622   	fcall	_InitLCD
              120A  158A         
  1657                           	line	32
  1658                           	
  1659  0BFE                     l7726:	
  1660                           ;Main.c: 32: ClearLCDScreen();
  1661  0BFE  160A  158A  214A   	fcall	_ClearLCDScreen
              120A  158A         
  1662  0C03  2C04               	goto	l7728
  1663                           	line	33
  1664                           ;Main.c: 33: while(1)
  1665                           	
  1666  0C04                     l2040:	
  1667                           	line	36
  1668                           	
  1669  0C04                     l7728:	
  1670                           ;Main.c: 34: {
  1671                           ;Main.c: 36: WriteCommandToLCD(0x02);
  1672  0C04  3002               	movlw	(02h)
  1673  0C05  160A  158A  21FB   	fcall	_WriteCommandToLCD
              120A  158A         
  1674                           	line	37
  1675                           ;Main.c: 37: while(!next)
  1676  0C0A  2CC5               	goto	l7760
  1677                           	
  1678  0C0B                     l2042:	
  1679                           	line	39
  1680                           	
  1681  0C0B                     l7730:	
  1682                           ;Main.c: 38: {
  1683                           ;Main.c: 39: key = GetKey();
  1684  0C0B  160A  158A  2160   	fcall	_GetKey
              120A  158A         
  1685  0C10  1683               	bsf	status, 5	;RP0=1, select bank1
  1686  0C11  1303               	bcf	status, 6	;RP1=0, select bank1
  1687  0C12  00B7               	movwf	(??_main+0)^080h+0
  1688  0C13  0837               	movf	(??_main+0)^080h+0,w
  1689  0C14  00E3               	movwf	(main@key)^080h
  1690                           	line	40
  1691                           	
  1692  0C15                     l7732:	
  1693                           ;Main.c: 40: tmp = get_num(key);
  1694  0C15  0863               	movf	(main@key)^080h,w
  1695  0C16  160A  158A  24C2   	fcall	_get_num
              120A  158A         
  1696  0C1B  0878               	movf	(1+(?_get_num)),w
  1697  0C1C  1683               	bsf	status, 5	;RP0=1, select bank1
  1698  0C1D  1303               	bcf	status, 6	;RP1=0, select bank1
  1699  0C1E  01D9               	clrf	(main@tmp+1)^080h
  1700  0C1F  07D9               	addwf	(main@tmp+1)^080h
  1701  0C20  0877               	movf	(0+(?_get_num)),w
  1702  0C21  01D8               	clrf	(main@tmp)^080h
  1703  0C22  07D8               	addwf	(main@tmp)^080h
  1704                           
  1705                           	line	41
  1706                           	
  1707  0C23                     l7734:	
  1708                           ;Main.c: 41: if(tmp != 13)
  1709  0C23  300D               	movlw	0Dh
  1710  0C24  0658               	xorwf	(main@tmp)^080h,w
  1711  0C25  0459               	iorwf	(main@tmp+1)^080h,w
  1712  0C26  1903               	skipnz
  1713  0C27  2C29               	goto	u6171
  1714  0C28  2C2A               	goto	u6170
  1715  0C29                     u6171:
  1716  0C29  2C93               	goto	l7748
  1717  0C2A                     u6170:
  1718                           	line	43
  1719                           	
  1720  0C2A                     l7736:	
  1721                           ;Main.c: 42: {
  1722                           ;Main.c: 43: WriteDataToLCD(key);
  1723  0C2A  0863               	movf	(main@key)^080h,w
  1724  0C2B  120A  158A  2005   	fcall	_WriteDataToLCD
              120A  158A         
  1725                           	line	44
  1726                           ;Main.c: 44: num1 = num1*10 + tmp;
  1727  0C30  1683               	bsf	status, 5	;RP0=1, select bank1
  1728  0C31  1303               	bcf	status, 6	;RP1=0, select bank1
  1729  0C32  0858               	movf	(main@tmp)^080h,w
  1730  0C33  00B7               	movwf	((??_main+0)^080h+0)
  1731  0C34  0859               	movf	(main@tmp+1)^080h,w
  1732  0C35  00B8               	movwf	((??_main+0)^080h+0+1)
  1733  0C36  3000               	movlw	0
  1734  0C37  1BB8               	btfsc	((??_main+0)^080h+0+1),7
  1735  0C38  30FF               	movlw	255
  1736  0C39  00B9               	movwf	((??_main+0)^080h+0+2)
  1737  0C3A  00BA               	movwf	((??_main+0)^080h+0+3)
  1738  0C3B  085E               	movf	(main@num1+3)^080h,w
  1739  0C3C  00F3               	movwf	(?___lmul+3)
  1740  0C3D  085D               	movf	(main@num1+2)^080h,w
  1741  0C3E  00F2               	movwf	(?___lmul+2)
  1742  0C3F  085C               	movf	(main@num1+1)^080h,w
  1743  0C40  00F1               	movwf	(?___lmul+1)
  1744  0C41  085B               	movf	(main@num1)^080h,w
  1745  0C42  00F0               	movwf	(?___lmul)
  1746                           
  1747  0C43  3000               	movlw	0
  1748  0C44  00F7               	movwf	3+(?___lmul)+04h
  1749  0C45  3000               	movlw	0
  1750  0C46  00F6               	movwf	2+(?___lmul)+04h
  1751  0C47  3000               	movlw	0
  1752  0C48  00F5               	movwf	1+(?___lmul)+04h
  1753  0C49  300A               	movlw	0Ah
  1754  0C4A  00F4               	movwf	0+(?___lmul)+04h
  1755                           
  1756  0C4B  160A  158A  228D   	fcall	___lmul
              120A  158A         
  1757  0C50  0870               	movf	(0+(?___lmul)),w
  1758  0C51  1683               	bsf	status, 5	;RP0=1, select bank1
  1759  0C52  1303               	bcf	status, 6	;RP1=0, select bank1
  1760  0C53  07B7               	addwf	(??_main+0)^080h+0,f
  1761  0C54  0871               	movf	(1+(?___lmul)),w
  1762  0C55  1803               	skipnc
  1763  0C56  0F71               	incfsz	(1+(?___lmul)),w
  1764  0C57  2C59               	goto	u6180
  1765  0C58  2C5A               	goto	u6181
  1766  0C59                     u6180:
  1767  0C59  07B8               	addwf	(??_main+0)^080h+1,f
  1768  0C5A                     u6181:
  1769  0C5A  0872               	movf	(2+(?___lmul)),w
  1770  0C5B  1803               	skipnc
  1771  0C5C  0F72               	incfsz	(2+(?___lmul)),w
  1772  0C5D  2C5F               	goto	u6182
  1773  0C5E  2C60               	goto	u6183
  1774  0C5F                     u6182:
  1775  0C5F  07B9               	addwf	(??_main+0)^080h+2,f
  1776  0C60                     u6183:
  1777  0C60  0873               	movf	(3+(?___lmul)),w
  1778  0C61  1803               	skipnc
  1779  0C62  0A73               	incf	(3+(?___lmul)),w
  1780  0C63  07BA               	addwf	(??_main+0)^080h+3,f
  1781  0C64  083A               	movf	3+(??_main+0)^080h+0,w
  1782  0C65  00DE               	movwf	(main@num1+3)^080h
  1783  0C66  0839               	movf	2+(??_main+0)^080h+0,w
  1784  0C67  00DD               	movwf	(main@num1+2)^080h
  1785  0C68  0838               	movf	1+(??_main+0)^080h+0,w
  1786  0C69  00DC               	movwf	(main@num1+1)^080h
  1787  0C6A  0837               	movf	0+(??_main+0)^080h+0,w
  1788  0C6B  00DB               	movwf	(main@num1)^080h
  1789                           
  1790                           	line	45
  1791                           ;Main.c: 45: }
  1792  0C6C  2CC5               	goto	l7760
  1793                           	line	46
  1794                           	
  1795  0C6D                     l2043:	
  1796                           	line	48
  1797                           ;Main.c: 46: else
  1798                           ;Main.c: 47: {
  1799                           ;Main.c: 48: switch(key)
  1800  0C6D  2C93               	goto	l7748
  1801                           	line	50
  1802                           ;Main.c: 49: {
  1803                           ;Main.c: 50: case '+': func = '+'; next = 1; break;
  1804                           	
  1805  0C6E                     l2046:	
  1806                           	
  1807  0C6E                     l7738:	
  1808  0C6E  302B               	movlw	(02Bh)
  1809  0C6F  00B7               	movwf	(??_main+0)^080h+0
  1810  0C70  0837               	movf	(??_main+0)^080h+0,w
  1811  0C71  00DA               	movwf	(main@func)^080h
  1812  0C72  3001               	movlw	low(01h)
  1813  0C73  00D4               	movwf	(main@next)^080h
  1814  0C74  3000               	movlw	high(01h)
  1815  0C75  00D5               	movwf	((main@next)^080h)+1
  1816  0C76  2CA1               	goto	l7750
  1817                           	line	51
  1818                           ;Main.c: 51: case '-': func = '-'; next = 1; break;
  1819                           	
  1820  0C77                     l2048:	
  1821                           	
  1822  0C77                     l7740:	
  1823  0C77  302D               	movlw	(02Dh)
  1824  0C78  00B7               	movwf	(??_main+0)^080h+0
  1825  0C79  0837               	movf	(??_main+0)^080h+0,w
  1826  0C7A  00DA               	movwf	(main@func)^080h
  1827  0C7B  3001               	movlw	low(01h)
  1828  0C7C  00D4               	movwf	(main@next)^080h
  1829  0C7D  3000               	movlw	high(01h)
  1830  0C7E  00D5               	movwf	((main@next)^080h)+1
  1831  0C7F  2CA1               	goto	l7750
  1832                           	line	52
  1833                           ;Main.c: 52: case 'x': func = '^'; next = 1; break;
  1834                           	
  1835  0C80                     l2049:	
  1836                           	
  1837  0C80                     l7742:	
  1838  0C80  305E               	movlw	(05Eh)
  1839  0C81  00B7               	movwf	(??_main+0)^080h+0
  1840  0C82  0837               	movf	(??_main+0)^080h+0,w
  1841  0C83  00DA               	movwf	(main@func)^080h
  1842  0C84  3001               	movlw	low(01h)
  1843  0C85  00D4               	movwf	(main@next)^080h
  1844  0C86  3000               	movlw	high(01h)
  1845  0C87  00D5               	movwf	((main@next)^080h)+1
  1846  0C88  2CA1               	goto	l7750
  1847                           	line	53
  1848                           ;Main.c: 53: case '/': shift = 1; next = 1; break;
  1849                           	
  1850  0C89                     l2050:	
  1851                           	
  1852  0C89                     l7744:	
  1853  0C89  3001               	movlw	low(01h)
  1854  0C8A  00D2               	movwf	(main@shift)^080h
  1855  0C8B  3000               	movlw	high(01h)
  1856  0C8C  00D3               	movwf	((main@shift)^080h)+1
  1857  0C8D  3001               	movlw	low(01h)
  1858  0C8E  00D4               	movwf	(main@next)^080h
  1859  0C8F  3000               	movlw	high(01h)
  1860  0C90  00D5               	movwf	((main@next)^080h)+1
  1861  0C91  2CA1               	goto	l7750
  1862                           	line	54
  1863                           	
  1864  0C92                     l7746:	
  1865                           ;Main.c: 54: }
  1866  0C92  2CA1               	goto	l7750
  1867                           	line	48
  1868                           	
  1869  0C93                     l2045:	
  1870                           	
  1871  0C93                     l7748:	
  1872  0C93  0863               	movf	(main@key)^080h,w
  1873                           	; Switch size 1, requested type "space"
  1874                           ; Number of cases is 4, Range of values is 43 to 120
  1875                           ; switch strategies available:
  1876                           ; Name         Instructions Cycles
  1877                           ; simple_byte           13     7 (average)
  1878                           ; direct_byte          245    11 (fixed)
  1879                           ; jumptable            263     9 (fixed)
  1880                           ;	Chosen strategy is simple_byte
  1881                           
  1882                           	opt asmopt_off
  1883  0C94  3A2B               	xorlw	43^0	; case 43
  1884  0C95  1903               	skipnz
  1885  0C96  2C6E               	goto	l7738
  1886  0C97  3A06               	xorlw	45^43	; case 45
  1887  0C98  1903               	skipnz
  1888  0C99  2C77               	goto	l7740
  1889  0C9A  3A02               	xorlw	47^45	; case 47
  1890  0C9B  1903               	skipnz
  1891  0C9C  2C89               	goto	l7744
  1892  0C9D  3A57               	xorlw	120^47	; case 120
  1893  0C9E  1903               	skipnz
  1894  0C9F  2C80               	goto	l7742
  1895  0CA0  2CA1               	goto	l7750
  1896                           	opt asmopt_on
  1897                           
  1898                           	line	54
  1899                           	
  1900  0CA1                     l2047:	
  1901                           	line	55
  1902                           	
  1903  0CA1                     l7750:	
  1904                           ;Main.c: 55: if(!shift && func != '.') WriteDataToLCD(func);
  1905  0CA1  0853               	movf	((main@shift+1)^080h),w
  1906  0CA2  0452               	iorwf	((main@shift)^080h),w
  1907  0CA3  1D03               	skipz
  1908  0CA4  2CA6               	goto	u6191
  1909  0CA5  2CA7               	goto	u6190
  1910  0CA6                     u6191:
  1911  0CA6  2CB4               	goto	l7756
  1912  0CA7                     u6190:
  1913                           	
  1914  0CA7                     l7752:	
  1915  0CA7  085A               	movf	(main@func)^080h,w
  1916  0CA8  3A2E               	xorlw	02Eh
  1917  0CA9  1903               	skipnz
  1918  0CAA  2CAC               	goto	u6201
  1919  0CAB  2CAD               	goto	u6200
  1920  0CAC                     u6201:
  1921  0CAC  2CB4               	goto	l7756
  1922  0CAD                     u6200:
  1923                           	
  1924  0CAD                     l7754:	
  1925  0CAD  085A               	movf	(main@func)^080h,w
  1926  0CAE  120A  158A  2005   	fcall	_WriteDataToLCD
              120A  158A         
  1927  0CB3  2CB4               	goto	l7756
  1928                           	
  1929  0CB4                     l2051:	
  1930                           	line	56
  1931                           	
  1932  0CB4                     l7756:	
  1933                           ;Main.c: 56: if(func == '^') WriteDataToLCD(0x32);
  1934  0CB4  1683               	bsf	status, 5	;RP0=1, select bank1
  1935  0CB5  1303               	bcf	status, 6	;RP1=0, select bank1
  1936  0CB6  085A               	movf	(main@func)^080h,w
  1937  0CB7  3A5E               	xorlw	05Eh
  1938  0CB8  1D03               	skipz
  1939  0CB9  2CBB               	goto	u6211
  1940  0CBA  2CBC               	goto	u6210
  1941  0CBB                     u6211:
  1942  0CBB  2CC5               	goto	l7760
  1943  0CBC                     u6210:
  1944                           	
  1945  0CBC                     l7758:	
  1946  0CBC  3032               	movlw	(032h)
  1947  0CBD  120A  158A  2005   	fcall	_WriteDataToLCD
              120A  158A         
  1948  0CC2  2CC5               	goto	l7760
  1949                           	
  1950  0CC3                     l2052:	
  1951  0CC3  2CC5               	goto	l7760
  1952                           	line	57
  1953                           	
  1954  0CC4                     l2044:	
  1955  0CC4  2CC5               	goto	l7760
  1956                           	line	58
  1957                           	
  1958  0CC5                     l2041:	
  1959                           	line	37
  1960                           	
  1961  0CC5                     l7760:	
  1962  0CC5  1683               	bsf	status, 5	;RP0=1, select bank1
  1963  0CC6  1303               	bcf	status, 6	;RP1=0, select bank1
  1964  0CC7  0855               	movf	(main@next+1)^080h,w
  1965  0CC8  0454               	iorwf	(main@next)^080h,w
  1966  0CC9  1903               	skipnz
  1967  0CCA  2CCC               	goto	u6221
  1968  0CCB  2CCD               	goto	u6220
  1969  0CCC                     u6221:
  1970  0CCC  2C0B               	goto	l7730
  1971  0CCD                     u6220:
  1972  0CCD  2D18               	goto	l7786
  1973                           	
  1974  0CCE                     l2053:	
  1975                           	line	60
  1976                           ;Main.c: 57: }
  1977                           ;Main.c: 58: }
  1978                           ;Main.c: 60: while(shift)
  1979  0CCE  2D18               	goto	l7786
  1980                           	
  1981  0CCF                     l2055:	
  1982                           	line	62
  1983                           	
  1984  0CCF                     l7762:	
  1985                           ;Main.c: 61: {
  1986                           ;Main.c: 62: key = GetKey();
  1987  0CCF  160A  158A  2160   	fcall	_GetKey
              120A  158A         
  1988  0CD4  1683               	bsf	status, 5	;RP0=1, select bank1
  1989  0CD5  1303               	bcf	status, 6	;RP1=0, select bank1
  1990  0CD6  00B7               	movwf	(??_main+0)^080h+0
  1991  0CD7  0837               	movf	(??_main+0)^080h+0,w
  1992  0CD8  00E3               	movwf	(main@key)^080h
  1993                           	line	63
  1994                           ;Main.c: 63: switch(key)
  1995  0CD9  2CF0               	goto	l7778
  1996                           	line	65
  1997                           ;Main.c: 64: {
  1998                           ;Main.c: 65: case '+': func = 'x'; shift = 0; break;
  1999                           	
  2000  0CDA                     l2057:	
  2001                           	
  2002  0CDA                     l7764:	
  2003  0CDA  3078               	movlw	(078h)
  2004  0CDB  00B7               	movwf	(??_main+0)^080h+0
  2005  0CDC  0837               	movf	(??_main+0)^080h+0,w
  2006  0CDD  00DA               	movwf	(main@func)^080h
  2007                           	
  2008  0CDE                     l7766:	
  2009  0CDE  01D2               	clrf	(main@shift)^080h
  2010  0CDF  01D3               	clrf	(main@shift+1)^080h
  2011  0CE0  2CFB               	goto	l7780
  2012                           	line	66
  2013                           ;Main.c: 66: case '-': func = '/'; shift = 0; break;
  2014                           	
  2015  0CE1                     l2059:	
  2016                           	
  2017  0CE1                     l7768:	
  2018  0CE1  302F               	movlw	(02Fh)
  2019  0CE2  00B7               	movwf	(??_main+0)^080h+0
  2020  0CE3  0837               	movf	(??_main+0)^080h+0,w
  2021  0CE4  00DA               	movwf	(main@func)^080h
  2022                           	
  2023  0CE5                     l7770:	
  2024  0CE5  01D2               	clrf	(main@shift)^080h
  2025  0CE6  01D3               	clrf	(main@shift+1)^080h
  2026  0CE7  2CFB               	goto	l7780
  2027                           	line	67
  2028                           ;Main.c: 67: case 'x': func = 'f'; shift = 0; break;
  2029                           	
  2030  0CE8                     l2060:	
  2031                           	
  2032  0CE8                     l7772:	
  2033  0CE8  3066               	movlw	(066h)
  2034  0CE9  00B7               	movwf	(??_main+0)^080h+0
  2035  0CEA  0837               	movf	(??_main+0)^080h+0,w
  2036  0CEB  00DA               	movwf	(main@func)^080h
  2037                           	
  2038  0CEC                     l7774:	
  2039  0CEC  01D2               	clrf	(main@shift)^080h
  2040  0CED  01D3               	clrf	(main@shift+1)^080h
  2041  0CEE  2CFB               	goto	l7780
  2042                           	line	68
  2043                           	
  2044  0CEF                     l7776:	
  2045                           ;Main.c: 68: }
  2046  0CEF  2CFB               	goto	l7780
  2047                           	line	63
  2048                           	
  2049  0CF0                     l2056:	
  2050                           	
  2051  0CF0                     l7778:	
  2052  0CF0  0863               	movf	(main@key)^080h,w
  2053                           	; Switch size 1, requested type "space"
  2054                           ; Number of cases is 3, Range of values is 43 to 120
  2055                           ; switch strategies available:
  2056                           ; Name         Instructions Cycles
  2057                           ; simple_byte           10     6 (average)
  2058                           ; direct_byte          245    11 (fixed)
  2059                           ; jumptable            263     9 (fixed)
  2060                           ;	Chosen strategy is simple_byte
  2061                           
  2062                           	opt asmopt_off
  2063  0CF1  3A2B               	xorlw	43^0	; case 43
  2064  0CF2  1903               	skipnz
  2065  0CF3  2CDA               	goto	l7764
  2066  0CF4  3A06               	xorlw	45^43	; case 45
  2067  0CF5  1903               	skipnz
  2068  0CF6  2CE1               	goto	l7768
  2069  0CF7  3A55               	xorlw	120^45	; case 120
  2070  0CF8  1903               	skipnz
  2071  0CF9  2CE8               	goto	l7772
  2072  0CFA  2CFB               	goto	l7780
  2073                           	opt asmopt_on
  2074                           
  2075                           	line	68
  2076                           	
  2077  0CFB                     l2058:	
  2078                           	line	69
  2079                           	
  2080  0CFB                     l7780:	
  2081                           ;Main.c: 69: if(func=='f')
  2082  0CFB  085A               	movf	(main@func)^080h,w
  2083  0CFC  3A66               	xorlw	066h
  2084  0CFD  1D03               	skipz
  2085  0CFE  2D00               	goto	u6231
  2086  0CFF  2D01               	goto	u6230
  2087  0D00                     u6231:
  2088  0D00  2D0E               	goto	l7784
  2089  0D01                     u6230:
  2090                           	line	71
  2091                           	
  2092  0D01                     l7782:	
  2093                           ;Main.c: 70: {
  2094                           ;Main.c: 71: WriteDataToLCD(0xE8);
  2095  0D01  30E8               	movlw	(0E8h)
  2096  0D02  120A  158A  2005   	fcall	_WriteDataToLCD
              120A  158A         
  2097                           	line	72
  2098                           ;Main.c: 72: WriteDataToLCD(0x32);
  2099  0D07  3032               	movlw	(032h)
  2100  0D08  120A  158A  2005   	fcall	_WriteDataToLCD
              120A  158A         
  2101                           	line	73
  2102                           ;Main.c: 73: }
  2103  0D0D  2D18               	goto	l7786
  2104                           	line	74
  2105                           	
  2106  0D0E                     l2061:	
  2107                           	
  2108  0D0E                     l7784:	
  2109                           ;Main.c: 74: else WriteDataToLCD(func);
  2110  0D0E  1683               	bsf	status, 5	;RP0=1, select bank1
  2111  0D0F  1303               	bcf	status, 6	;RP1=0, select bank1
  2112  0D10  085A               	movf	(main@func)^080h,w
  2113  0D11  120A  158A  2005   	fcall	_WriteDataToLCD
              120A  158A         
  2114  0D16  2D18               	goto	l7786
  2115                           	
  2116  0D17                     l2062:	
  2117  0D17  2D18               	goto	l7786
  2118                           	line	75
  2119                           	
  2120  0D18                     l2054:	
  2121                           	line	60
  2122                           	
  2123  0D18                     l7786:	
  2124  0D18  1683               	bsf	status, 5	;RP0=1, select bank1
  2125  0D19  1303               	bcf	status, 6	;RP1=0, select bank1
  2126  0D1A  0853               	movf	((main@shift+1)^080h),w
  2127  0D1B  0452               	iorwf	((main@shift)^080h),w
  2128  0D1C  1D03               	skipz
  2129  0D1D  2D1F               	goto	u6241
  2130  0D1E  2D20               	goto	u6240
  2131  0D1F                     u6241:
  2132  0D1F  2CCF               	goto	l7762
  2133  0D20                     u6240:
  2134  0D20  2D21               	goto	l7788
  2135                           	
  2136  0D21                     l2063:	
  2137                           	line	77
  2138                           	
  2139  0D21                     l7788:	
  2140                           ;Main.c: 75: }
  2141                           ;Main.c: 77: next = 0;
  2142  0D21  01D4               	clrf	(main@next)^080h
  2143  0D22  01D5               	clrf	(main@next+1)^080h
  2144                           	line	78
  2145                           ;Main.c: 78: while(!next)
  2146  0D23  2DA4               	goto	l7806
  2147                           	
  2148  0D24                     l2065:	
  2149                           	line	80
  2150                           	
  2151  0D24                     l7790:	
  2152                           ;Main.c: 79: {
  2153                           ;Main.c: 80: key = GetKey();
  2154  0D24  160A  158A  2160   	fcall	_GetKey
              120A  158A         
  2155  0D29  1683               	bsf	status, 5	;RP0=1, select bank1
  2156  0D2A  1303               	bcf	status, 6	;RP1=0, select bank1
  2157  0D2B  00B7               	movwf	(??_main+0)^080h+0
  2158  0D2C  0837               	movf	(??_main+0)^080h+0,w
  2159  0D2D  00E3               	movwf	(main@key)^080h
  2160                           	line	81
  2161                           	
  2162  0D2E                     l7792:	
  2163                           ;Main.c: 81: tmp = get_num(key);
  2164  0D2E  0863               	movf	(main@key)^080h,w
  2165  0D2F  160A  158A  24C2   	fcall	_get_num
              120A  158A         
  2166  0D34  0878               	movf	(1+(?_get_num)),w
  2167  0D35  1683               	bsf	status, 5	;RP0=1, select bank1
  2168  0D36  1303               	bcf	status, 6	;RP1=0, select bank1
  2169  0D37  01D9               	clrf	(main@tmp+1)^080h
  2170  0D38  07D9               	addwf	(main@tmp+1)^080h
  2171  0D39  0877               	movf	(0+(?_get_num)),w
  2172  0D3A  01D8               	clrf	(main@tmp)^080h
  2173  0D3B  07D8               	addwf	(main@tmp)^080h
  2174                           
  2175                           	line	82
  2176                           	
  2177  0D3C                     l7794:	
  2178                           ;Main.c: 82: if(tmp != 13)
  2179  0D3C  300D               	movlw	0Dh
  2180  0D3D  0658               	xorwf	(main@tmp)^080h,w
  2181  0D3E  0459               	iorwf	(main@tmp+1)^080h,w
  2182  0D3F  1903               	skipnz
  2183  0D40  2D42               	goto	u6251
  2184  0D41  2D43               	goto	u6250
  2185  0D42                     u6251:
  2186  0D42  2D9D               	goto	l7804
  2187  0D43                     u6250:
  2188                           	line	84
  2189                           	
  2190  0D43                     l7796:	
  2191                           ;Main.c: 83: {
  2192                           ;Main.c: 84: WriteDataToLCD(key);
  2193  0D43  0863               	movf	(main@key)^080h,w
  2194  0D44  120A  158A  2005   	fcall	_WriteDataToLCD
              120A  158A         
  2195                           	line	85
  2196                           ;Main.c: 85: num2 = num2*10 + tmp;
  2197  0D49  1683               	bsf	status, 5	;RP0=1, select bank1
  2198  0D4A  1303               	bcf	status, 6	;RP1=0, select bank1
  2199  0D4B  0858               	movf	(main@tmp)^080h,w
  2200  0D4C  00B7               	movwf	((??_main+0)^080h+0)
  2201  0D4D  0859               	movf	(main@tmp+1)^080h,w
  2202  0D4E  00B8               	movwf	((??_main+0)^080h+0+1)
  2203  0D4F  3000               	movlw	0
  2204  0D50  1BB8               	btfsc	((??_main+0)^080h+0+1),7
  2205  0D51  30FF               	movlw	255
  2206  0D52  00B9               	movwf	((??_main+0)^080h+0+2)
  2207  0D53  00BA               	movwf	((??_main+0)^080h+0+3)
  2208  0D54  0862               	movf	(main@num2+3)^080h,w
  2209  0D55  00F3               	movwf	(?___lmul+3)
  2210  0D56  0861               	movf	(main@num2+2)^080h,w
  2211  0D57  00F2               	movwf	(?___lmul+2)
  2212  0D58  0860               	movf	(main@num2+1)^080h,w
  2213  0D59  00F1               	movwf	(?___lmul+1)
  2214  0D5A  085F               	movf	(main@num2)^080h,w
  2215  0D5B  00F0               	movwf	(?___lmul)
  2216                           
  2217  0D5C  3000               	movlw	0
  2218  0D5D  00F7               	movwf	3+(?___lmul)+04h
  2219  0D5E  3000               	movlw	0
  2220  0D5F  00F6               	movwf	2+(?___lmul)+04h
  2221  0D60  3000               	movlw	0
  2222  0D61  00F5               	movwf	1+(?___lmul)+04h
  2223  0D62  300A               	movlw	0Ah
  2224  0D63  00F4               	movwf	0+(?___lmul)+04h
  2225                           
  2226  0D64  160A  158A  228D   	fcall	___lmul
              120A  158A         
  2227  0D69  0870               	movf	(0+(?___lmul)),w
  2228  0D6A  1683               	bsf	status, 5	;RP0=1, select bank1
  2229  0D6B  1303               	bcf	status, 6	;RP1=0, select bank1
  2230  0D6C  07B7               	addwf	(??_main+0)^080h+0,f
  2231  0D6D  0871               	movf	(1+(?___lmul)),w
  2232  0D6E  1803               	skipnc
  2233  0D6F  0F71               	incfsz	(1+(?___lmul)),w
  2234  0D70  2D72               	goto	u6260
  2235  0D71  2D73               	goto	u6261
  2236  0D72                     u6260:
  2237  0D72  07B8               	addwf	(??_main+0)^080h+1,f
  2238  0D73                     u6261:
  2239  0D73  0872               	movf	(2+(?___lmul)),w
  2240  0D74  1803               	skipnc
  2241  0D75  0F72               	incfsz	(2+(?___lmul)),w
  2242  0D76  2D78               	goto	u6262
  2243  0D77  2D79               	goto	u6263
  2244  0D78                     u6262:
  2245  0D78  07B9               	addwf	(??_main+0)^080h+2,f
  2246  0D79                     u6263:
  2247  0D79  0873               	movf	(3+(?___lmul)),w
  2248  0D7A  1803               	skipnc
  2249  0D7B  0A73               	incf	(3+(?___lmul)),w
  2250  0D7C  07BA               	addwf	(??_main+0)^080h+3,f
  2251  0D7D  083A               	movf	3+(??_main+0)^080h+0,w
  2252  0D7E  00E2               	movwf	(main@num2+3)^080h
  2253  0D7F  0839               	movf	2+(??_main+0)^080h+0,w
  2254  0D80  00E1               	movwf	(main@num2+2)^080h
  2255  0D81  0838               	movf	1+(??_main+0)^080h+0,w
  2256  0D82  00E0               	movwf	(main@num2+1)^080h
  2257  0D83  0837               	movf	0+(??_main+0)^080h+0,w
  2258  0D84  00DF               	movwf	(main@num2)^080h
  2259                           
  2260                           	line	86
  2261                           ;Main.c: 86: }
  2262  0D85  2DA4               	goto	l7806
  2263                           	line	87
  2264                           	
  2265  0D86                     l2066:	
  2266                           	line	89
  2267                           ;Main.c: 87: else
  2268                           ;Main.c: 88: {
  2269                           ;Main.c: 89: switch(key)
  2270  0D86  2D9D               	goto	l7804
  2271                           	line	91
  2272                           ;Main.c: 90: {
  2273                           ;Main.c: 91: case '=': WriteCommandToLCD(0xC0); WriteDataToLCD(key); next = 1; break;
  2274                           	
  2275  0D87                     l2069:	
  2276                           	
  2277  0D87                     l7798:	
  2278  0D87  30C0               	movlw	(0C0h)
  2279  0D88  160A  158A  21FB   	fcall	_WriteCommandToLCD
              120A  158A         
  2280  0D8D  1683               	bsf	status, 5	;RP0=1, select bank1
  2281  0D8E  1303               	bcf	status, 6	;RP1=0, select bank1
  2282  0D8F  0863               	movf	(main@key)^080h,w
  2283  0D90  120A  158A  2005   	fcall	_WriteDataToLCD
              120A  158A         
  2284                           	
  2285  0D95                     l7800:	
  2286  0D95  3001               	movlw	low(01h)
  2287  0D96  1683               	bsf	status, 5	;RP0=1, select bank1
  2288  0D97  1303               	bcf	status, 6	;RP1=0, select bank1
  2289  0D98  00D4               	movwf	(main@next)^080h
  2290  0D99  3000               	movlw	high(01h)
  2291  0D9A  00D5               	movwf	((main@next)^080h)+1
  2292  0D9B  2DA4               	goto	l7806
  2293                           	line	92
  2294                           	
  2295  0D9C                     l7802:	
  2296                           ;Main.c: 92: }
  2297  0D9C  2DA4               	goto	l7806
  2298                           	line	89
  2299                           	
  2300  0D9D                     l2068:	
  2301                           	
  2302  0D9D                     l7804:	
  2303  0D9D  0863               	movf	(main@key)^080h,w
  2304                           	; Switch size 1, requested type "space"
  2305                           ; Number of cases is 1, Range of values is 61 to 61
  2306                           ; switch strategies available:
  2307                           ; Name         Instructions Cycles
  2308                           ; simple_byte            4     3 (average)
  2309                           ; direct_byte           14    11 (fixed)
  2310                           ; jumptable            263     9 (fixed)
  2311                           ;	Chosen strategy is simple_byte
  2312                           
  2313                           	opt asmopt_off
  2314  0D9E  3A3D               	xorlw	61^0	; case 61
  2315  0D9F  1903               	skipnz
  2316  0DA0  2D87               	goto	l7798
  2317  0DA1  2DA4               	goto	l7806
  2318                           	opt asmopt_on
  2319                           
  2320                           	line	92
  2321                           	
  2322  0DA2                     l2070:	
  2323  0DA2  2DA4               	goto	l7806
  2324                           	line	93
  2325                           	
  2326  0DA3                     l2067:	
  2327  0DA3  2DA4               	goto	l7806
  2328                           	line	94
  2329                           	
  2330  0DA4                     l2064:	
  2331                           	line	78
  2332                           	
  2333  0DA4                     l7806:	
  2334  0DA4  0855               	movf	(main@next+1)^080h,w
  2335  0DA5  0454               	iorwf	(main@next)^080h,w
  2336  0DA6  1903               	skipnz
  2337  0DA7  2DA9               	goto	u6271
  2338  0DA8  2DAA               	goto	u6270
  2339  0DA9                     u6271:
  2340  0DA9  2D24               	goto	l7790
  2341  0DAA                     u6270:
  2342  0DAA  2F6E               	goto	l7834
  2343                           	
  2344  0DAB                     l2071:	
  2345                           	line	96
  2346                           ;Main.c: 93: }
  2347                           ;Main.c: 94: }
  2348                           ;Main.c: 96: switch(func)
  2349  0DAB  2F6E               	goto	l7834
  2350                           	line	98
  2351                           ;Main.c: 97: {
  2352                           ;Main.c: 98: case '+': result = num1 + num2; break;
  2353                           	
  2354  0DAC                     l2073:	
  2355                           	
  2356  0DAC                     l7808:	
  2357  0DAC  085B               	movf	(main@num1)^080h,w
  2358  0DAD  075F               	addwf	(main@num2)^080h,w
  2359  0DAE  00B7               	movwf	((??_main+0)^080h+0+0)
  2360  0DAF  3000               	movlw	0
  2361  0DB0  1803               	skipnc
  2362  0DB1  3001               	movlw	1
  2363  0DB2  075C               	addwf	(main@num1+1)^080h,w
  2364  0DB3  01B9               	clrf	((??_main+0)^080h+0+2)
  2365  0DB4  1803               	skipnc
  2366  0DB5  0AB9               	incf	((??_main+0)^080h+0+2),f
  2367  0DB6  0760               	addwf	(main@num2+1)^080h,w
  2368  0DB7  00B8               	movwf	((??_main+0)^080h+0+1)
  2369  0DB8  1803               	skipnc
  2370  0DB9  0AB9               	incf	((??_main+0)^080h+0+2),f
  2371  0DBA  085D               	movf	(main@num1+2)^080h,w
  2372  0DBB  0739               	addwf	((??_main+0)^080h+0+2),w
  2373  0DBC  01BA               	clrf	((??_main+0)^080h+0+3)
  2374  0DBD  1803               	skipnc
  2375  0DBE  0ABA               	incf	((??_main+0)^080h+0+3),f
  2376  0DBF  0761               	addwf	(main@num2+2)^080h,w
  2377  0DC0  00B9               	movwf	((??_main+0)^080h+0+2)
  2378  0DC1  1803               	skipnc
  2379  0DC2  0ABA               	incf	((??_main+0)^080h+0+3),f
  2380  0DC3  085E               	movf	(main@num1+3)^080h,w
  2381  0DC4  073A               	addwf	((??_main+0)^080h+0+3),w
  2382  0DC5  0762               	addwf	(main@num2+3)^080h,w
  2383  0DC6  00BA               	movwf	((??_main+0)^080h+0+3)
  2384  0DC7  083A               	movf	3+(??_main+0)^080h+0,w
  2385  0DC8  1283               	bcf	status, 5	;RP0=0, select bank0
  2386  0DC9  1303               	bcf	status, 6	;RP1=0, select bank0
  2387  0DCA  00A9               	movwf	(?___altoft+3)
  2388  0DCB  1683               	bsf	status, 5	;RP0=1, select bank1
  2389  0DCC  1303               	bcf	status, 6	;RP1=0, select bank1
  2390  0DCD  0839               	movf	2+(??_main+0)^080h+0,w
  2391  0DCE  1283               	bcf	status, 5	;RP0=0, select bank0
  2392  0DCF  1303               	bcf	status, 6	;RP1=0, select bank0
  2393  0DD0  00A8               	movwf	(?___altoft+2)
  2394  0DD1  1683               	bsf	status, 5	;RP0=1, select bank1
  2395  0DD2  1303               	bcf	status, 6	;RP1=0, select bank1
  2396  0DD3  0838               	movf	1+(??_main+0)^080h+0,w
  2397  0DD4  1283               	bcf	status, 5	;RP0=0, select bank0
  2398  0DD5  1303               	bcf	status, 6	;RP1=0, select bank0
  2399  0DD6  00A7               	movwf	(?___altoft+1)
  2400  0DD7  1683               	bsf	status, 5	;RP0=1, select bank1
  2401  0DD8  1303               	bcf	status, 6	;RP1=0, select bank1
  2402  0DD9  0837               	movf	0+(??_main+0)^080h+0,w
  2403  0DDA  1283               	bcf	status, 5	;RP0=0, select bank0
  2404  0DDB  1303               	bcf	status, 6	;RP1=0, select bank0
  2405  0DDC  00A6               	movwf	(?___altoft)
  2406                           
  2407  0DDD  160A  158A  22D7   	fcall	___altoft
              120A  158A         
  2408  0DE2  1283               	bcf	status, 5	;RP0=0, select bank0
  2409  0DE3  1303               	bcf	status, 6	;RP1=0, select bank0
  2410  0DE4  0826               	movf	(0+(?___altoft)),w
  2411  0DE5  1683               	bsf	status, 5	;RP0=1, select bank1
  2412  0DE6  1303               	bcf	status, 6	;RP1=0, select bank1
  2413  0DE7  00CF               	movwf	(main@result)^080h
  2414  0DE8  1283               	bcf	status, 5	;RP0=0, select bank0
  2415  0DE9  1303               	bcf	status, 6	;RP1=0, select bank0
  2416  0DEA  0827               	movf	(1+(?___altoft)),w
  2417  0DEB  1683               	bsf	status, 5	;RP0=1, select bank1
  2418  0DEC  1303               	bcf	status, 6	;RP1=0, select bank1
  2419  0DED  00D0               	movwf	(main@result+1)^080h
  2420  0DEE  1283               	bcf	status, 5	;RP0=0, select bank0
  2421  0DEF  1303               	bcf	status, 6	;RP1=0, select bank0
  2422  0DF0  0828               	movf	(2+(?___altoft)),w
  2423  0DF1  1683               	bsf	status, 5	;RP0=1, select bank1
  2424  0DF2  1303               	bcf	status, 6	;RP1=0, select bank1
  2425  0DF3  00D1               	movwf	(main@result+2)^080h
  2426  0DF4  2F82               	goto	l7836
  2427                           	line	99
  2428                           ;Main.c: 99: case '-': result = num1 - num2; break;
  2429                           	
  2430  0DF5                     l2075:	
  2431                           	
  2432  0DF5                     l7810:	
  2433  0DF5  085B               	movf	(main@num1)^080h,w
  2434  0DF6  00B7               	movwf	(??_main+0)^080h+0
  2435  0DF7  085C               	movf	(main@num1+1)^080h,w
  2436  0DF8  00B8               	movwf	((??_main+0)^080h+0+1)
  2437  0DF9  085D               	movf	(main@num1+2)^080h,w
  2438  0DFA  00B9               	movwf	((??_main+0)^080h+0+2)
  2439  0DFB  085E               	movf	(main@num1+3)^080h,w
  2440  0DFC  00BA               	movwf	((??_main+0)^080h+0+3)
  2441  0DFD  095F               	comf	(main@num2)^080h,w
  2442  0DFE  00BB               	movwf	(??_main+4)^080h+0
  2443  0DFF  0960               	comf	(main@num2+1)^080h,w
  2444  0E00  00BC               	movwf	((??_main+4)^080h+0+1)
  2445  0E01  0961               	comf	(main@num2+2)^080h,w
  2446  0E02  00BD               	movwf	((??_main+4)^080h+0+2)
  2447  0E03  0962               	comf	(main@num2+3)^080h,w
  2448  0E04  00BE               	movwf	((??_main+4)^080h+0+3)
  2449  0E05  0ABB               	incf	(??_main+4)^080h+0,f
  2450  0E06  1903               	skipnz
  2451  0E07  0ABC               	incf	((??_main+4)^080h+0+1),f
  2452  0E08  1903               	skipnz
  2453  0E09  0ABD               	incf	((??_main+4)^080h+0+2),f
  2454  0E0A  1903               	skipnz
  2455  0E0B  0ABE               	incf	((??_main+4)^080h+0+3),f
  2456  0E0C  083B               	movf	0+(??_main+4)^080h+0,w
  2457  0E0D  07B7               	addwf	(??_main+0)^080h+0,f
  2458  0E0E  083C               	movf	1+(??_main+4)^080h+0,w
  2459  0E0F  1803               	skipnc
  2460  0E10  0F3C               	incfsz	1+(??_main+4)^080h+0,w
  2461  0E11  2E13               	goto	u6280
  2462  0E12  2E14               	goto	u6281
  2463  0E13                     u6280:
  2464  0E13  07B8               	addwf	(??_main+0)^080h+1,f
  2465  0E14                     u6281:
  2466  0E14  083D               	movf	2+(??_main+4)^080h+0,w
  2467  0E15  1803               	skipnc
  2468  0E16  0F3D               	incfsz	2+(??_main+4)^080h+0,w
  2469  0E17  2E19               	goto	u6282
  2470  0E18  2E1A               	goto	u6283
  2471  0E19                     u6282:
  2472  0E19  07B9               	addwf	(??_main+0)^080h+2,f
  2473  0E1A                     u6283:
  2474  0E1A  083E               	movf	3+(??_main+4)^080h+0,w
  2475  0E1B  1803               	skipnc
  2476  0E1C  0A3E               	incf	3+(??_main+4)^080h+0,w
  2477  0E1D  07BA               	addwf	(??_main+0)^080h+3,f
  2478  0E1E  083A               	movf	3+(??_main+0)^080h+0,w
  2479  0E1F  1283               	bcf	status, 5	;RP0=0, select bank0
  2480  0E20  1303               	bcf	status, 6	;RP1=0, select bank0
  2481  0E21  00A9               	movwf	(?___altoft+3)
  2482  0E22  1683               	bsf	status, 5	;RP0=1, select bank1
  2483  0E23  1303               	bcf	status, 6	;RP1=0, select bank1
  2484  0E24  0839               	movf	2+(??_main+0)^080h+0,w
  2485  0E25  1283               	bcf	status, 5	;RP0=0, select bank0
  2486  0E26  1303               	bcf	status, 6	;RP1=0, select bank0
  2487  0E27  00A8               	movwf	(?___altoft+2)
  2488  0E28  1683               	bsf	status, 5	;RP0=1, select bank1
  2489  0E29  1303               	bcf	status, 6	;RP1=0, select bank1
  2490  0E2A  0838               	movf	1+(??_main+0)^080h+0,w
  2491  0E2B  1283               	bcf	status, 5	;RP0=0, select bank0
  2492  0E2C  1303               	bcf	status, 6	;RP1=0, select bank0
  2493  0E2D  00A7               	movwf	(?___altoft+1)
  2494  0E2E  1683               	bsf	status, 5	;RP0=1, select bank1
  2495  0E2F  1303               	bcf	status, 6	;RP1=0, select bank1
  2496  0E30  0837               	movf	0+(??_main+0)^080h+0,w
  2497  0E31  1283               	bcf	status, 5	;RP0=0, select bank0
  2498  0E32  1303               	bcf	status, 6	;RP1=0, select bank0
  2499  0E33  00A6               	movwf	(?___altoft)
  2500                           
  2501  0E34  160A  158A  22D7   	fcall	___altoft
              120A  158A         
  2502  0E39  1283               	bcf	status, 5	;RP0=0, select bank0
  2503  0E3A  1303               	bcf	status, 6	;RP1=0, select bank0
  2504  0E3B  0826               	movf	(0+(?___altoft)),w
  2505  0E3C  1683               	bsf	status, 5	;RP0=1, select bank1
  2506  0E3D  1303               	bcf	status, 6	;RP1=0, select bank1
  2507  0E3E  00CF               	movwf	(main@result)^080h
  2508  0E3F  1283               	bcf	status, 5	;RP0=0, select bank0
  2509  0E40  1303               	bcf	status, 6	;RP1=0, select bank0
  2510  0E41  0827               	movf	(1+(?___altoft)),w
  2511  0E42  1683               	bsf	status, 5	;RP0=1, select bank1
  2512  0E43  1303               	bcf	status, 6	;RP1=0, select bank1
  2513  0E44  00D0               	movwf	(main@result+1)^080h
  2514  0E45  1283               	bcf	status, 5	;RP0=0, select bank0
  2515  0E46  1303               	bcf	status, 6	;RP1=0, select bank0
  2516  0E47  0828               	movf	(2+(?___altoft)),w
  2517  0E48  1683               	bsf	status, 5	;RP0=1, select bank1
  2518  0E49  1303               	bcf	status, 6	;RP1=0, select bank1
  2519  0E4A  00D1               	movwf	(main@result+2)^080h
  2520  0E4B  2F82               	goto	l7836
  2521                           	line	100
  2522                           ;Main.c: 100: case 'x': result = num1*num2; break;
  2523                           	
  2524  0E4C                     l2076:	
  2525                           	
  2526  0E4C                     l7812:	
  2527  0E4C  085E               	movf	(main@num1+3)^080h,w
  2528  0E4D  00F3               	movwf	(?___lmul+3)
  2529  0E4E  085D               	movf	(main@num1+2)^080h,w
  2530  0E4F  00F2               	movwf	(?___lmul+2)
  2531  0E50  085C               	movf	(main@num1+1)^080h,w
  2532  0E51  00F1               	movwf	(?___lmul+1)
  2533  0E52  085B               	movf	(main@num1)^080h,w
  2534  0E53  00F0               	movwf	(?___lmul)
  2535                           
  2536  0E54  0862               	movf	(main@num2+3)^080h,w
  2537  0E55  00F7               	movwf	3+(?___lmul)+04h
  2538  0E56  0861               	movf	(main@num2+2)^080h,w
  2539  0E57  00F6               	movwf	2+(?___lmul)+04h
  2540  0E58  0860               	movf	(main@num2+1)^080h,w
  2541  0E59  00F5               	movwf	1+(?___lmul)+04h
  2542  0E5A  085F               	movf	(main@num2)^080h,w
  2543  0E5B  00F4               	movwf	0+(?___lmul)+04h
  2544                           
  2545  0E5C  160A  158A  228D   	fcall	___lmul
              120A  158A         
  2546  0E61  0873               	movf	(3+(?___lmul)),w
  2547  0E62  1283               	bcf	status, 5	;RP0=0, select bank0
  2548  0E63  1303               	bcf	status, 6	;RP1=0, select bank0
  2549  0E64  00A9               	movwf	(?___altoft+3)
  2550  0E65  0872               	movf	(2+(?___lmul)),w
  2551  0E66  00A8               	movwf	(?___altoft+2)
  2552  0E67  0871               	movf	(1+(?___lmul)),w
  2553  0E68  00A7               	movwf	(?___altoft+1)
  2554  0E69  0870               	movf	(0+(?___lmul)),w
  2555  0E6A  00A6               	movwf	(?___altoft)
  2556                           
  2557  0E6B  160A  158A  22D7   	fcall	___altoft
              120A  158A         
  2558  0E70  1283               	bcf	status, 5	;RP0=0, select bank0
  2559  0E71  1303               	bcf	status, 6	;RP1=0, select bank0
  2560  0E72  0826               	movf	(0+(?___altoft)),w
  2561  0E73  1683               	bsf	status, 5	;RP0=1, select bank1
  2562  0E74  1303               	bcf	status, 6	;RP1=0, select bank1
  2563  0E75  00CF               	movwf	(main@result)^080h
  2564  0E76  1283               	bcf	status, 5	;RP0=0, select bank0
  2565  0E77  1303               	bcf	status, 6	;RP1=0, select bank0
  2566  0E78  0827               	movf	(1+(?___altoft)),w
  2567  0E79  1683               	bsf	status, 5	;RP0=1, select bank1
  2568  0E7A  1303               	bcf	status, 6	;RP1=0, select bank1
  2569  0E7B  00D0               	movwf	(main@result+1)^080h
  2570  0E7C  1283               	bcf	status, 5	;RP0=0, select bank0
  2571  0E7D  1303               	bcf	status, 6	;RP1=0, select bank0
  2572  0E7E  0828               	movf	(2+(?___altoft)),w
  2573  0E7F  1683               	bsf	status, 5	;RP0=1, select bank1
  2574  0E80  1303               	bcf	status, 6	;RP1=0, select bank1
  2575  0E81  00D1               	movwf	(main@result+2)^080h
  2576  0E82  2F82               	goto	l7836
  2577                           	line	101
  2578                           ;Main.c: 101: case '/':
  2579                           	
  2580  0E83                     l2077:	
  2581                           	line	103
  2582                           	
  2583  0E83                     l7814:	
  2584                           ;Main.c: 102: {
  2585                           ;Main.c: 103: if(num2==0) DispError(2);
  2586  0E83  0862               	movf	(main@num2+3)^080h,w
  2587  0E84  0461               	iorwf	(main@num2+2)^080h,w
  2588  0E85  0460               	iorwf	(main@num2+1)^080h,w
  2589  0E86  045F               	iorwf	(main@num2)^080h,w
  2590  0E87  1D03               	skipz
  2591  0E88  2E8A               	goto	u6291
  2592  0E89  2E8B               	goto	u6290
  2593  0E8A                     u6291:
  2594  0E8A  2E95               	goto	l7818
  2595  0E8B                     u6290:
  2596                           	
  2597  0E8B                     l7816:	
  2598  0E8B  3002               	movlw	low(02h)
  2599  0E8C  00F7               	movwf	(?_DispError)
  2600  0E8D  3000               	movlw	high(02h)
  2601  0E8E  00F8               	movwf	((?_DispError))+1
  2602  0E8F  160A  158A  2259   	fcall	_DispError
              120A  158A         
  2603  0E94  2ECF               	goto	l7820
  2604                           	line	104
  2605                           	
  2606  0E95                     l2078:	
  2607                           	line	106
  2608                           	
  2609  0E95                     l7818:	
  2610                           ;Main.c: 104: else
  2611                           ;Main.c: 105: {
  2612                           ;Main.c: 106: result = num1/num2;
  2613  0E95  1683               	bsf	status, 5	;RP0=1, select bank1
  2614  0E96  1303               	bcf	status, 6	;RP1=0, select bank1
  2615  0E97  0862               	movf	(main@num2+3)^080h,w
  2616  0E98  00F3               	movwf	(?___aldiv+3)
  2617  0E99  0861               	movf	(main@num2+2)^080h,w
  2618  0E9A  00F2               	movwf	(?___aldiv+2)
  2619  0E9B  0860               	movf	(main@num2+1)^080h,w
  2620  0E9C  00F1               	movwf	(?___aldiv+1)
  2621  0E9D  085F               	movf	(main@num2)^080h,w
  2622  0E9E  00F0               	movwf	(?___aldiv)
  2623                           
  2624  0E9F  085E               	movf	(main@num1+3)^080h,w
  2625  0EA0  00F7               	movwf	3+(?___aldiv)+04h
  2626  0EA1  085D               	movf	(main@num1+2)^080h,w
  2627  0EA2  00F6               	movwf	2+(?___aldiv)+04h
  2628  0EA3  085C               	movf	(main@num1+1)^080h,w
  2629  0EA4  00F5               	movwf	1+(?___aldiv)+04h
  2630  0EA5  085B               	movf	(main@num1)^080h,w
  2631  0EA6  00F4               	movwf	0+(?___aldiv)+04h
  2632                           
  2633  0EA7  160A  158A  2758   	fcall	___aldiv
              120A  158A         
  2634  0EAC  0873               	movf	(3+(?___aldiv)),w
  2635  0EAD  1283               	bcf	status, 5	;RP0=0, select bank0
  2636  0EAE  1303               	bcf	status, 6	;RP1=0, select bank0
  2637  0EAF  00A9               	movwf	(?___altoft+3)
  2638  0EB0  0872               	movf	(2+(?___aldiv)),w
  2639  0EB1  00A8               	movwf	(?___altoft+2)
  2640  0EB2  0871               	movf	(1+(?___aldiv)),w
  2641  0EB3  00A7               	movwf	(?___altoft+1)
  2642  0EB4  0870               	movf	(0+(?___aldiv)),w
  2643  0EB5  00A6               	movwf	(?___altoft)
  2644                           
  2645  0EB6  160A  158A  22D7   	fcall	___altoft
              120A  158A         
  2646  0EBB  1283               	bcf	status, 5	;RP0=0, select bank0
  2647  0EBC  1303               	bcf	status, 6	;RP1=0, select bank0
  2648  0EBD  0826               	movf	(0+(?___altoft)),w
  2649  0EBE  1683               	bsf	status, 5	;RP0=1, select bank1
  2650  0EBF  1303               	bcf	status, 6	;RP1=0, select bank1
  2651  0EC0  00CF               	movwf	(main@result)^080h
  2652  0EC1  1283               	bcf	status, 5	;RP0=0, select bank0
  2653  0EC2  1303               	bcf	status, 6	;RP1=0, select bank0
  2654  0EC3  0827               	movf	(1+(?___altoft)),w
  2655  0EC4  1683               	bsf	status, 5	;RP0=1, select bank1
  2656  0EC5  1303               	bcf	status, 6	;RP1=0, select bank1
  2657  0EC6  00D0               	movwf	(main@result+1)^080h
  2658  0EC7  1283               	bcf	status, 5	;RP0=0, select bank0
  2659  0EC8  1303               	bcf	status, 6	;RP1=0, select bank0
  2660  0EC9  0828               	movf	(2+(?___altoft)),w
  2661  0ECA  1683               	bsf	status, 5	;RP0=1, select bank1
  2662  0ECB  1303               	bcf	status, 6	;RP1=0, select bank1
  2663  0ECC  00D1               	movwf	(main@result+2)^080h
  2664                           	line	107
  2665                           ;Main.c: 107: break;
  2666  0ECD  2F82               	goto	l7836
  2667                           	line	108
  2668                           	
  2669  0ECE                     l2079:	
  2670  0ECE  2ECF               	goto	l7820
  2671                           	line	110
  2672                           ;Main.c: 108: }
  2673                           ;Main.c: 109: }
  2674                           ;Main.c: 110: case '^':
  2675                           	
  2676  0ECF                     l2080:	
  2677                           	line	112
  2678                           	
  2679  0ECF                     l7820:	
  2680                           ;Main.c: 111: {
  2681                           ;Main.c: 112: if(num2 != 0) DispError(2);
  2682  0ECF  1683               	bsf	status, 5	;RP0=1, select bank1
  2683  0ED0  1303               	bcf	status, 6	;RP1=0, select bank1
  2684  0ED1  0862               	movf	(main@num2+3)^080h,w
  2685  0ED2  0461               	iorwf	(main@num2+2)^080h,w
  2686  0ED3  0460               	iorwf	(main@num2+1)^080h,w
  2687  0ED4  045F               	iorwf	(main@num2)^080h,w
  2688  0ED5  1903               	skipnz
  2689  0ED6  2ED8               	goto	u6301
  2690  0ED7  2ED9               	goto	u6300
  2691  0ED8                     u6301:
  2692  0ED8  2EE3               	goto	l7824
  2693  0ED9                     u6300:
  2694                           	
  2695  0ED9                     l7822:	
  2696  0ED9  3002               	movlw	low(02h)
  2697  0EDA  00F7               	movwf	(?_DispError)
  2698  0EDB  3000               	movlw	high(02h)
  2699  0EDC  00F8               	movwf	((?_DispError))+1
  2700  0EDD  160A  158A  2259   	fcall	_DispError
              120A  158A         
  2701  0EE2  2F82               	goto	l7836
  2702                           	line	113
  2703                           	
  2704  0EE3                     l2081:	
  2705                           	
  2706  0EE3                     l7824:	
  2707                           ;Main.c: 113: else result = num1*num1;
  2708  0EE3  1683               	bsf	status, 5	;RP0=1, select bank1
  2709  0EE4  1303               	bcf	status, 6	;RP1=0, select bank1
  2710  0EE5  085E               	movf	(main@num1+3)^080h,w
  2711  0EE6  00F3               	movwf	(?___lmul+3)
  2712  0EE7  085D               	movf	(main@num1+2)^080h,w
  2713  0EE8  00F2               	movwf	(?___lmul+2)
  2714  0EE9  085C               	movf	(main@num1+1)^080h,w
  2715  0EEA  00F1               	movwf	(?___lmul+1)
  2716  0EEB  085B               	movf	(main@num1)^080h,w
  2717  0EEC  00F0               	movwf	(?___lmul)
  2718                           
  2719  0EED  085E               	movf	(main@num1+3)^080h,w
  2720  0EEE  00F7               	movwf	3+(?___lmul)+04h
  2721  0EEF  085D               	movf	(main@num1+2)^080h,w
  2722  0EF0  00F6               	movwf	2+(?___lmul)+04h
  2723  0EF1  085C               	movf	(main@num1+1)^080h,w
  2724  0EF2  00F5               	movwf	1+(?___lmul)+04h
  2725  0EF3  085B               	movf	(main@num1)^080h,w
  2726  0EF4  00F4               	movwf	0+(?___lmul)+04h
  2727                           
  2728  0EF5  160A  158A  228D   	fcall	___lmul
              120A  158A         
  2729  0EFA  0873               	movf	(3+(?___lmul)),w
  2730  0EFB  1283               	bcf	status, 5	;RP0=0, select bank0
  2731  0EFC  1303               	bcf	status, 6	;RP1=0, select bank0
  2732  0EFD  00A9               	movwf	(?___altoft+3)
  2733  0EFE  0872               	movf	(2+(?___lmul)),w
  2734  0EFF  00A8               	movwf	(?___altoft+2)
  2735  0F00  0871               	movf	(1+(?___lmul)),w
  2736  0F01  00A7               	movwf	(?___altoft+1)
  2737  0F02  0870               	movf	(0+(?___lmul)),w
  2738  0F03  00A6               	movwf	(?___altoft)
  2739                           
  2740  0F04  160A  158A  22D7   	fcall	___altoft
              120A  158A         
  2741  0F09  1283               	bcf	status, 5	;RP0=0, select bank0
  2742  0F0A  1303               	bcf	status, 6	;RP1=0, select bank0
  2743  0F0B  0826               	movf	(0+(?___altoft)),w
  2744  0F0C  1683               	bsf	status, 5	;RP0=1, select bank1
  2745  0F0D  1303               	bcf	status, 6	;RP1=0, select bank1
  2746  0F0E  00CF               	movwf	(main@result)^080h
  2747  0F0F  1283               	bcf	status, 5	;RP0=0, select bank0
  2748  0F10  1303               	bcf	status, 6	;RP1=0, select bank0
  2749  0F11  0827               	movf	(1+(?___altoft)),w
  2750  0F12  1683               	bsf	status, 5	;RP0=1, select bank1
  2751  0F13  1303               	bcf	status, 6	;RP1=0, select bank1
  2752  0F14  00D0               	movwf	(main@result+1)^080h
  2753  0F15  1283               	bcf	status, 5	;RP0=0, select bank0
  2754  0F16  1303               	bcf	status, 6	;RP1=0, select bank0
  2755  0F17  0828               	movf	(2+(?___altoft)),w
  2756  0F18  1683               	bsf	status, 5	;RP0=1, select bank1
  2757  0F19  1303               	bcf	status, 6	;RP1=0, select bank1
  2758  0F1A  00D1               	movwf	(main@result+2)^080h
  2759  0F1B  2F82               	goto	l7836
  2760                           	
  2761  0F1C                     l2082:	
  2762                           	line	114
  2763                           ;Main.c: 114: break;
  2764  0F1C  2F82               	goto	l7836
  2765                           	line	116
  2766                           ;Main.c: 115: }
  2767                           ;Main.c: 116: case 'f':
  2768                           	
  2769  0F1D                     l2083:	
  2770                           	line	118
  2771                           	
  2772  0F1D                     l7826:	
  2773                           ;Main.c: 117: {
  2774                           ;Main.c: 118: if(num2 != 0) DispError(2);
  2775  0F1D  0862               	movf	(main@num2+3)^080h,w
  2776  0F1E  0461               	iorwf	(main@num2+2)^080h,w
  2777  0F1F  0460               	iorwf	(main@num2+1)^080h,w
  2778  0F20  045F               	iorwf	(main@num2)^080h,w
  2779  0F21  1903               	skipnz
  2780  0F22  2F24               	goto	u6311
  2781  0F23  2F25               	goto	u6310
  2782  0F24                     u6311:
  2783  0F24  2F2F               	goto	l7830
  2784  0F25                     u6310:
  2785                           	
  2786  0F25                     l7828:	
  2787  0F25  3002               	movlw	low(02h)
  2788  0F26  00F7               	movwf	(?_DispError)
  2789  0F27  3000               	movlw	high(02h)
  2790  0F28  00F8               	movwf	((?_DispError))+1
  2791  0F29  160A  158A  2259   	fcall	_DispError
              120A  158A         
  2792  0F2E  2F82               	goto	l7836
  2793                           	line	119
  2794                           	
  2795  0F2F                     l2084:	
  2796                           	
  2797  0F2F                     l7830:	
  2798                           ;Main.c: 119: else result = sqrt(num1);
  2799  0F2F  1683               	bsf	status, 5	;RP0=1, select bank1
  2800  0F30  1303               	bcf	status, 6	;RP1=0, select bank1
  2801  0F31  085E               	movf	(main@num1+3)^080h,w
  2802  0F32  1283               	bcf	status, 5	;RP0=0, select bank0
  2803  0F33  1303               	bcf	status, 6	;RP1=0, select bank0
  2804  0F34  00A9               	movwf	(?___altoft+3)
  2805  0F35  1683               	bsf	status, 5	;RP0=1, select bank1
  2806  0F36  1303               	bcf	status, 6	;RP1=0, select bank1
  2807  0F37  085D               	movf	(main@num1+2)^080h,w
  2808  0F38  1283               	bcf	status, 5	;RP0=0, select bank0
  2809  0F39  1303               	bcf	status, 6	;RP1=0, select bank0
  2810  0F3A  00A8               	movwf	(?___altoft+2)
  2811  0F3B  1683               	bsf	status, 5	;RP0=1, select bank1
  2812  0F3C  1303               	bcf	status, 6	;RP1=0, select bank1
  2813  0F3D  085C               	movf	(main@num1+1)^080h,w
  2814  0F3E  1283               	bcf	status, 5	;RP0=0, select bank0
  2815  0F3F  1303               	bcf	status, 6	;RP1=0, select bank0
  2816  0F40  00A7               	movwf	(?___altoft+1)
  2817  0F41  1683               	bsf	status, 5	;RP0=1, select bank1
  2818  0F42  1303               	bcf	status, 6	;RP1=0, select bank1
  2819  0F43  085B               	movf	(main@num1)^080h,w
  2820  0F44  1283               	bcf	status, 5	;RP0=0, select bank0
  2821  0F45  1303               	bcf	status, 6	;RP1=0, select bank0
  2822  0F46  00A6               	movwf	(?___altoft)
  2823                           
  2824  0F47  160A  158A  22D7   	fcall	___altoft
              120A  158A         
  2825  0F4C  1283               	bcf	status, 5	;RP0=0, select bank0
  2826  0F4D  1303               	bcf	status, 6	;RP1=0, select bank0
  2827  0F4E  0826               	movf	(0+(?___altoft)),w
  2828  0F4F  00D8               	movwf	(?_sqrt)
  2829  0F50  0827               	movf	(1+(?___altoft)),w
  2830  0F51  00D9               	movwf	(?_sqrt+1)
  2831  0F52  0828               	movf	(2+(?___altoft)),w
  2832  0F53  00DA               	movwf	(?_sqrt+2)
  2833  0F54  160A  118A  20B6   	fcall	_sqrt
              120A  158A         
  2834  0F59  1283               	bcf	status, 5	;RP0=0, select bank0
  2835  0F5A  1303               	bcf	status, 6	;RP1=0, select bank0
  2836  0F5B  0858               	movf	(0+(?_sqrt)),w
  2837  0F5C  1683               	bsf	status, 5	;RP0=1, select bank1
  2838  0F5D  1303               	bcf	status, 6	;RP1=0, select bank1
  2839  0F5E  00CF               	movwf	(main@result)^080h
  2840  0F5F  1283               	bcf	status, 5	;RP0=0, select bank0
  2841  0F60  1303               	bcf	status, 6	;RP1=0, select bank0
  2842  0F61  0859               	movf	(1+(?_sqrt)),w
  2843  0F62  1683               	bsf	status, 5	;RP0=1, select bank1
  2844  0F63  1303               	bcf	status, 6	;RP1=0, select bank1
  2845  0F64  00D0               	movwf	(main@result+1)^080h
  2846  0F65  1283               	bcf	status, 5	;RP0=0, select bank0
  2847  0F66  1303               	bcf	status, 6	;RP1=0, select bank0
  2848  0F67  085A               	movf	(2+(?_sqrt)),w
  2849  0F68  1683               	bsf	status, 5	;RP0=1, select bank1
  2850  0F69  1303               	bcf	status, 6	;RP1=0, select bank1
  2851  0F6A  00D1               	movwf	(main@result+2)^080h
  2852  0F6B  2F82               	goto	l7836
  2853                           	
  2854  0F6C                     l2085:	
  2855                           	line	120
  2856                           ;Main.c: 120: break;
  2857  0F6C  2F82               	goto	l7836
  2858                           	line	122
  2859                           	
  2860  0F6D                     l7832:	
  2861                           ;Main.c: 121: }
  2862                           ;Main.c: 122: }
  2863  0F6D  2F82               	goto	l7836
  2864                           	line	96
  2865                           	
  2866  0F6E                     l2072:	
  2867                           	
  2868  0F6E                     l7834:	
  2869  0F6E  085A               	movf	(main@func)^080h,w
  2870                           	; Switch size 1, requested type "space"
  2871                           ; Number of cases is 6, Range of values is 43 to 120
  2872                           ; switch strategies available:
  2873                           ; Name         Instructions Cycles
  2874                           ; simple_byte           19    10 (average)
  2875                           ; direct_byte          245    11 (fixed)
  2876                           ; jumptable            263     9 (fixed)
  2877                           ;	Chosen strategy is simple_byte
  2878                           
  2879                           	opt asmopt_off
  2880  0F6F  3A2B               	xorlw	43^0	; case 43
  2881  0F70  1903               	skipnz
  2882  0F71  2DAC               	goto	l7808
  2883  0F72  3A06               	xorlw	45^43	; case 45
  2884  0F73  1903               	skipnz
  2885  0F74  2DF5               	goto	l7810
  2886  0F75  3A02               	xorlw	47^45	; case 47
  2887  0F76  1903               	skipnz
  2888  0F77  2E83               	goto	l7814
  2889  0F78  3A71               	xorlw	94^47	; case 94
  2890  0F79  1903               	skipnz
  2891  0F7A  2ECF               	goto	l7820
  2892  0F7B  3A38               	xorlw	102^94	; case 102
  2893  0F7C  1903               	skipnz
  2894  0F7D  2F1D               	goto	l7826
  2895  0F7E  3A1E               	xorlw	120^102	; case 120
  2896  0F7F  1903               	skipnz
  2897  0F80  2E4C               	goto	l7812
  2898  0F81  2F82               	goto	l7836
  2899                           	opt asmopt_on
  2900                           
  2901                           	line	122
  2902                           	
  2903  0F82                     l2074:	
  2904                           	line	123
  2905                           	
  2906  0F82                     l7836:	
  2907                           ;Main.c: 123: sprintf(msg, "%.2f", result);
  2908  0F82  30A1               	movlw	((STR_1-__stringbase))&0ffh
  2909  0F83  1683               	bsf	status, 5	;RP0=1, select bank1
  2910  0F84  1303               	bcf	status, 6	;RP1=0, select bank1
  2911  0F85  00B7               	movwf	(??_main+0)^080h+0
  2912  0F86  0837               	movf	(??_main+0)^080h+0,w
  2913  0F87  1283               	bcf	status, 5	;RP0=0, select bank0
  2914  0F88  1303               	bcf	status, 6	;RP1=0, select bank0
  2915  0F89  00E2               	movwf	(?_sprintf)
  2916  0F8A  1683               	bsf	status, 5	;RP0=1, select bank1
  2917  0F8B  1303               	bcf	status, 6	;RP1=0, select bank1
  2918  0F8C  084F               	movf	(main@result)^080h,w
  2919  0F8D  1283               	bcf	status, 5	;RP0=0, select bank0
  2920  0F8E  1303               	bcf	status, 6	;RP1=0, select bank0
  2921  0F8F  00E3               	movwf	0+(?_sprintf)+01h
  2922  0F90  1683               	bsf	status, 5	;RP0=1, select bank1
  2923  0F91  1303               	bcf	status, 6	;RP1=0, select bank1
  2924  0F92  0850               	movf	(main@result+1)^080h,w
  2925  0F93  1283               	bcf	status, 5	;RP0=0, select bank0
  2926  0F94  1303               	bcf	status, 6	;RP1=0, select bank0
  2927  0F95  00E4               	movwf	1+(?_sprintf)+01h
  2928  0F96  1683               	bsf	status, 5	;RP0=1, select bank1
  2929  0F97  1303               	bcf	status, 6	;RP1=0, select bank1
  2930  0F98  0851               	movf	(main@result+2)^080h,w
  2931  0F99  1283               	bcf	status, 5	;RP0=0, select bank0
  2932  0F9A  1303               	bcf	status, 6	;RP1=0, select bank0
  2933  0F9B  00E5               	movwf	2+(?_sprintf)+01h
  2934  0F9C  30BF               	movlw	(main@msg)&0ffh
  2935  0F9D  120A  118A  210C   	fcall	_sprintf
              120A  158A         
  2936                           	line	124
  2937                           	
  2938  0FA2                     l7838:	
  2939                           ;Main.c: 124: for(int i=0;i<16;i++)
  2940  0FA2  1683               	bsf	status, 5	;RP0=1, select bank1
  2941  0FA3  1303               	bcf	status, 6	;RP1=0, select bank1
  2942  0FA4  01D6               	clrf	(main@i)^080h
  2943  0FA5  01D7               	clrf	(main@i+1)^080h
  2944                           	
  2945  0FA6                     l7840:	
  2946  0FA6  0857               	movf	(main@i+1)^080h,w
  2947  0FA7  3A80               	xorlw	80h
  2948  0FA8  00FF               	movwf	btemp+1
  2949  0FA9  3080               	movlw	(high(010h))^80h
  2950  0FAA  027F               	subwf	btemp+1,w
  2951  0FAB  1D03               	skipz
  2952  0FAC  2FAF               	goto	u6325
  2953  0FAD  3010               	movlw	low(010h)
  2954  0FAE  0256               	subwf	(main@i)^080h,w
  2955  0FAF                     u6325:
  2956                           
  2957  0FAF  1C03               	skipc
  2958  0FB0  2FB2               	goto	u6321
  2959  0FB1  2FB3               	goto	u6320
  2960  0FB2                     u6321:
  2961  0FB2  2FB5               	goto	l7844
  2962  0FB3                     u6320:
  2963  0FB3  2FE3               	goto	l7856
  2964                           	
  2965  0FB4                     l7842:	
  2966  0FB4  2FE3               	goto	l7856
  2967                           	line	125
  2968                           	
  2969  0FB5                     l2086:	
  2970                           	
  2971  0FB5                     l7844:	
  2972                           ;Main.c: 125: if(!msg[i]) break;
  2973  0FB5  1683               	bsf	status, 5	;RP0=1, select bank1
  2974  0FB6  1303               	bcf	status, 6	;RP1=0, select bank1
  2975  0FB7  0856               	movf	(main@i)^080h,w
  2976  0FB8  3EBF               	addlw	main@msg&0ffh
  2977  0FB9  0084               	movwf	fsr0
  2978  0FBA  1383               	bcf	status, 7	;select IRP bank1
  2979  0FBB  0880               	movf	indf,f
  2980  0FBC  1D03               	skipz
  2981  0FBD  2FBF               	goto	u6331
  2982  0FBE  2FC0               	goto	u6330
  2983  0FBF                     u6331:
  2984  0FBF  2FC3               	goto	l7850
  2985  0FC0                     u6330:
  2986  0FC0  2FE3               	goto	l7856
  2987                           	
  2988  0FC1                     l7846:	
  2989  0FC1  2FE3               	goto	l7856
  2990                           	
  2991  0FC2                     l7848:	
  2992  0FC2  2FCD               	goto	l7852
  2993                           	line	126
  2994                           	
  2995  0FC3                     l2088:	
  2996                           	
  2997  0FC3                     l7850:	
  2998                           ;Main.c: 126: else WriteDataToLCD(msg[i]);
  2999  0FC3  0856               	movf	(main@i)^080h,w
  3000  0FC4  3EBF               	addlw	main@msg&0ffh
  3001  0FC5  0084               	movwf	fsr0
  3002  0FC6  0800               	movf	indf,w
  3003  0FC7  120A  158A  2005   	fcall	_WriteDataToLCD
              120A  158A         
  3004  0FCC  2FCD               	goto	l7852
  3005                           	
  3006  0FCD                     l2089:	
  3007                           	line	124
  3008                           	
  3009  0FCD                     l7852:	
  3010  0FCD  3001               	movlw	low(01h)
  3011  0FCE  1683               	bsf	status, 5	;RP0=1, select bank1
  3012  0FCF  1303               	bcf	status, 6	;RP1=0, select bank1
  3013  0FD0  07D6               	addwf	(main@i)^080h,f
  3014  0FD1  1803               	skipnc
  3015  0FD2  0AD7               	incf	(main@i+1)^080h,f
  3016  0FD3  3000               	movlw	high(01h)
  3017  0FD4  07D7               	addwf	(main@i+1)^080h,f
  3018                           	
  3019  0FD5                     l7854:	
  3020  0FD5  0857               	movf	(main@i+1)^080h,w
  3021  0FD6  3A80               	xorlw	80h
  3022  0FD7  00FF               	movwf	btemp+1
  3023  0FD8  3080               	movlw	(high(010h))^80h
  3024  0FD9  027F               	subwf	btemp+1,w
  3025  0FDA  1D03               	skipz
  3026  0FDB  2FDE               	goto	u6345
  3027  0FDC  3010               	movlw	low(010h)
  3028  0FDD  0256               	subwf	(main@i)^080h,w
  3029  0FDE                     u6345:
  3030                           
  3031  0FDE  1C03               	skipc
  3032  0FDF  2FE1               	goto	u6341
  3033  0FE0  2FE2               	goto	u6340
  3034  0FE1                     u6341:
  3035  0FE1  2FB5               	goto	l7844
  3036  0FE2                     u6340:
  3037  0FE2  2FE3               	goto	l7856
  3038                           	
  3039  0FE3                     l2087:	
  3040                           	line	128
  3041                           	
  3042  0FE3                     l7856:	
  3043                           ;Main.c: 128: next = 0;
  3044  0FE3  1683               	bsf	status, 5	;RP0=1, select bank1
  3045  0FE4  1303               	bcf	status, 6	;RP1=0, select bank1
  3046  0FE5  01D4               	clrf	(main@next)^080h
  3047  0FE6  01D5               	clrf	(main@next+1)^080h
  3048                           	line	129
  3049                           	
  3050  0FE7                     l7858:	
  3051                           ;Main.c: 129: num1 = 0;
  3052  0FE7  3000               	movlw	0
  3053  0FE8  00DE               	movwf	(main@num1+3)^080h
  3054  0FE9  3000               	movlw	0
  3055  0FEA  00DD               	movwf	(main@num1+2)^080h
  3056  0FEB  3000               	movlw	0
  3057  0FEC  00DC               	movwf	(main@num1+1)^080h
  3058  0FED  3000               	movlw	0
  3059  0FEE  00DB               	movwf	(main@num1)^080h
  3060                           
  3061                           	line	130
  3062                           	
  3063  0FEF                     l7860:	
  3064                           ;Main.c: 130: num2 = 0;
  3065  0FEF  3000               	movlw	0
  3066  0FF0  00E2               	movwf	(main@num2+3)^080h
  3067  0FF1  3000               	movlw	0
  3068  0FF2  00E1               	movwf	(main@num2+2)^080h
  3069  0FF3  3000               	movlw	0
  3070  0FF4  00E0               	movwf	(main@num2+1)^080h
  3071  0FF5  3000               	movlw	0
  3072  0FF6  00DF               	movwf	(main@num2)^080h
  3073                           
  3074                           	line	131
  3075                           	
  3076  0FF7                     l7862:	
  3077                           ;Main.c: 131: func = '.';
  3078  0FF7  302E               	movlw	(02Eh)
  3079  0FF8  00B7               	movwf	(??_main+0)^080h+0
  3080  0FF9  0837               	movf	(??_main+0)^080h+0,w
  3081  0FFA  00DA               	movwf	(main@func)^080h
  3082  0FFB  2C04               	goto	l7728
  3083                           	line	132
  3084                           	
  3085  0FFC                     l2090:	
  3086                           	line	33
  3087  0FFC  2C04               	goto	l7728
  3088                           	
  3089  0FFD                     l2091:	
  3090                           	line	133
  3091                           	
  3092  0FFD                     l2092:	
  3093                           	global	start
  3094  0FFD  120A  118A  2800   	ljmp	start
  3095                           	opt stack 0
  3096                           GLOBAL	__end_of_main
  3097  1000                     	__end_of_main:
  3098 ;; =============== function _main ends ============
  3099                           
  3100                           	signat	_main,88
  3101                           	global	_DispError
  3102                           psect	text689,local,class=CODE,delta=2
  3103                           global __ptext689
  3104  1A59                     __ptext689:
  3105                           
  3106 ;; *************** function _DispError *****************
  3107 ;; Defined at:
  3108 ;;		line 183 in file "../Main.c"
  3109 ;; Parameters:    Size  Location     Type
  3110 ;;  numb            2    7[COMMON] int 
  3111 ;; Auto vars:     Size  Location     Type
  3112 ;;		None
  3113 ;; Return value:  Size  Location     Type
  3114 ;;		None               void
  3115 ;; Registers used:
  3116 ;;		wreg, fsr0l, fsr0h, status,2, status,0, pclath, cstack
  3117 ;; Tracked objects:
  3118 ;;		On entry : 0/0
  3119 ;;		On exit  : 0/0
  3120 ;;		Unchanged: 0/0
  3121 ;; Data sizes:     COMMON   BANK0   BANK1   BANK3   BANK2
  3122 ;;      Params:         2       0       0       0       0
  3123 ;;      Locals:         0       0       0       0       0
  3124 ;;      Temps:          0       0       0       0       0
  3125 ;;      Totals:         2       0       0       0       0
  3126 ;;Total ram usage:        2 bytes
  3127 ;; Hardware stack levels used:    1
  3128 ;; Hardware stack levels required when called:    3
  3129 ;; This function calls:
  3130 ;;		_ClearLCDScreen
  3131 ;;		_WriteStringToLCD
  3132 ;; This function is called by:
  3133 ;;		_main
  3134 ;;		_get_func
  3135 ;; This function uses a non-reentrant model
  3136 ;;
  3137                           psect	text689
  3138                           	file	"../Main.c"
  3139                           	line	183
  3140                           	global	__size_of_DispError
  3141  0034                     	__size_of_DispError	equ	__end_of_DispError-_DispError
  3142                           	
  3143  1A59                     _DispError:	
  3144                           	opt	stack 4
  3145                           ; Regs used in _DispError: [wreg-fsr0h+status,2+status,0+pclath+cstack]
  3146                           	line	184
  3147                           	
  3148  1A59                     l7696:	
  3149                           ;Main.c: 184: ClearLCDScreen();
  3150  1A59  160A  158A  214A   	fcall	_ClearLCDScreen
              160A  158A         
  3151                           	line	186
  3152                           ;Main.c: 186: switch(numb)
  3153  1A5E  2A7C               	goto	l7708
  3154                           	line	188
  3155                           ;Main.c: 187: {
  3156                           ;Main.c: 188: case 0: WriteStringToLCD("Wrong Input"); break;
  3157                           	
  3158  1A5F                     l2118:	
  3159                           	
  3160  1A5F                     l7698:	
  3161  1A5F  3095               	movlw	((STR_2-__stringbase))&0ffh
  3162  1A60  160A  158A  21B0   	fcall	_WriteStringToLCD
              160A  158A         
  3163  1A65  2A8C               	goto	l2123
  3164                           	line	189
  3165                           ;Main.c: 189: case 1: WriteStringToLCD("Wrong Function"); break;
  3166                           	
  3167  1A66                     l2120:	
  3168                           	
  3169  1A66                     l7700:	
  3170  1A66  3077               	movlw	((STR_3-__stringbase))&0ffh
  3171  1A67  160A  158A  21B0   	fcall	_WriteStringToLCD
              160A  158A         
  3172  1A6C  2A8C               	goto	l2123
  3173                           	line	190
  3174                           ;Main.c: 190: case 2: WriteStringToLCD("Wrong Argument"); break;
  3175                           	
  3176  1A6D                     l2121:	
  3177                           	
  3178  1A6D                     l7702:	
  3179  1A6D  3086               	movlw	((STR_4-__stringbase))&0ffh
  3180  1A6E  160A  158A  21B0   	fcall	_WriteStringToLCD
              160A  158A         
  3181  1A73  2A8C               	goto	l2123
  3182                           	line	191
  3183                           ;Main.c: 191: default: WriteStringToLCD("Wrong Input"); break;
  3184                           	
  3185  1A74                     l2122:	
  3186                           	
  3187  1A74                     l7704:	
  3188  1A74  3095               	movlw	((STR_5-__stringbase))&0ffh
  3189  1A75  160A  158A  21B0   	fcall	_WriteStringToLCD
              160A  158A         
  3190  1A7A  2A8C               	goto	l2123
  3191                           	line	192
  3192                           	
  3193  1A7B                     l7706:	
  3194                           ;Main.c: 192: }
  3195  1A7B  2A8C               	goto	l2123
  3196                           	line	186
  3197                           	
  3198  1A7C                     l2117:	
  3199                           	
  3200  1A7C                     l7708:	
  3201                           	; Switch on 2 bytes has been partitioned into a top level switch of size 1, and 1 sub-s
                                 witches
  3202                           ; Switch size 1, requested type "space"
  3203                           ; Number of cases is 1, Range of values is 0 to 0
  3204                           ; switch strategies available:
  3205                           ; Name         Instructions Cycles
  3206                           ; simple_byte            4     3 (average)
  3207                           ; direct_byte           11     8 (fixed)
  3208                           ; jumptable            260     6 (fixed)
  3209                           ; rangetable             5     6 (fixed)
  3210                           ; spacedrange            8     9 (fixed)
  3211                           ; locatedrange           1     3 (fixed)
  3212                           ;	Chosen strategy is simple_byte
  3213                           
  3214  1A7C  0878               	movf (DispError@numb+1),w
  3215                           	opt asmopt_off
  3216  1A7D  3A00               	xorlw	0^0	; case 0
  3217  1A7E  1903               	skipnz
  3218  1A7F  2A81               	goto	l7874
  3219  1A80  2A74               	goto	l7704
  3220                           	opt asmopt_on
  3221                           	
  3222  1A81                     l7874:	
  3223                           ; Switch size 1, requested type "space"
  3224                           ; Number of cases is 3, Range of values is 0 to 2
  3225                           ; switch strategies available:
  3226                           ; Name         Instructions Cycles
  3227                           ; simple_byte           10     6 (average)
  3228                           ; direct_byte           17     8 (fixed)
  3229                           ; jumptable            260     6 (fixed)
  3230                           ; rangetable             7     6 (fixed)
  3231                           ; spacedrange           12     9 (fixed)
  3232                           ; locatedrange           3     3 (fixed)
  3233                           ;	Chosen strategy is simple_byte
  3234                           
  3235  1A81  0877               	movf (DispError@numb),w
  3236                           	opt asmopt_off
  3237  1A82  3A00               	xorlw	0^0	; case 0
  3238  1A83  1903               	skipnz
  3239  1A84  2A5F               	goto	l7698
  3240  1A85  3A01               	xorlw	1^0	; case 1
  3241  1A86  1903               	skipnz
  3242  1A87  2A66               	goto	l7700
  3243  1A88  3A03               	xorlw	2^1	; case 2
  3244  1A89  1903               	skipnz
  3245  1A8A  2A6D               	goto	l7702
  3246  1A8B  2A74               	goto	l7704
  3247                           	opt asmopt_on
  3248                           
  3249                           	line	192
  3250                           	
  3251  1A8C                     l2119:	
  3252                           	line	193
  3253                           	
  3254  1A8C                     l2123:	
  3255  1A8C  0008               	return
  3256                           	opt stack 0
  3257                           GLOBAL	__end_of_DispError
  3258  1A8D                     	__end_of_DispError:
  3259 ;; =============== function _DispError ends ============
  3260                           
  3261                           	signat	_DispError,4216
  3262                           	global	_get_num
  3263                           psect	text690,local,class=CODE,delta=2
  3264                           global __ptext690
  3265  1CC2                     __ptext690:
  3266                           
  3267 ;; *************** function _get_num *****************
  3268 ;; Defined at:
  3269 ;;		line 142 in file "../Main.c"
  3270 ;; Parameters:    Size  Location     Type
  3271 ;;  ch              1    wreg     unsigned char 
  3272 ;; Auto vars:     Size  Location     Type
  3273 ;;  ch              1    9[COMMON] unsigned char 
  3274 ;;  num             2   10[COMMON] int 
  3275 ;; Return value:  Size  Location     Type
  3276 ;;                  2    7[COMMON] int 
  3277 ;; Registers used:
  3278 ;;		wreg, fsr0l, fsr0h, status,2, status,0, pclath, cstack
  3279 ;; Tracked objects:
  3280 ;;		On entry : 0/0
  3281 ;;		On exit  : 0/0
  3282 ;;		Unchanged: 0/0
  3283 ;; Data sizes:     COMMON   BANK0   BANK1   BANK3   BANK2
  3284 ;;      Params:         2       0       0       0       0
  3285 ;;      Locals:         3       0       0       0       0
  3286 ;;      Temps:          0       0       0       0       0
  3287 ;;      Totals:         5       0       0       0       0
  3288 ;;Total ram usage:        5 bytes
  3289 ;; Hardware stack levels used:    1
  3290 ;; Hardware stack levels required when called:    3
  3291 ;; This function calls:
  3292 ;;		_ClearLCDScreen
  3293 ;; This function is called by:
  3294 ;;		_main
  3295 ;; This function uses a non-reentrant model
  3296 ;;
  3297                           psect	text690
  3298                           	file	"../Main.c"
  3299                           	line	142
  3300                           	global	__size_of_get_num
  3301  006F                     	__size_of_get_num	equ	__end_of_get_num-_get_num
  3302                           	
  3303  1CC2                     _get_num:	
  3304                           	opt	stack 4
  3305                           ; Regs used in _get_num: [wreg-fsr0h+status,2+status,0+pclath+cstack]
  3306                           ;get_num@ch stored from wreg
  3307  1CC2  00F9               	movwf	(get_num@ch)
  3308                           	line	143
  3309                           	
  3310  1CC3                     l7660:	
  3311                           ;Main.c: 143: int num = 0;
  3312  1CC3  01FA               	clrf	(get_num@num)
  3313  1CC4  01FB               	clrf	(get_num@num+1)
  3314                           	line	145
  3315                           ;Main.c: 145: switch(ch)
  3316  1CC5  2D06               	goto	l7690
  3317                           	line	147
  3318                           ;Main.c: 146: {
  3319                           ;Main.c: 147: case '0': num = 0; break;
  3320                           	
  3321  1CC6                     l2096:	
  3322                           	
  3323  1CC6                     l7662:	
  3324  1CC6  01FA               	clrf	(get_num@num)
  3325  1CC7  01FB               	clrf	(get_num@num+1)
  3326  1CC8  2D29               	goto	l7692
  3327                           	line	148
  3328                           ;Main.c: 148: case '1': num = 1; break;
  3329                           	
  3330  1CC9                     l2098:	
  3331                           	
  3332  1CC9                     l7664:	
  3333  1CC9  3001               	movlw	low(01h)
  3334  1CCA  00FA               	movwf	(get_num@num)
  3335  1CCB  3000               	movlw	high(01h)
  3336  1CCC  00FB               	movwf	((get_num@num))+1
  3337  1CCD  2D29               	goto	l7692
  3338                           	line	149
  3339                           ;Main.c: 149: case '2': num = 2; break;
  3340                           	
  3341  1CCE                     l2099:	
  3342                           	
  3343  1CCE                     l7666:	
  3344  1CCE  3002               	movlw	low(02h)
  3345  1CCF  00FA               	movwf	(get_num@num)
  3346  1CD0  3000               	movlw	high(02h)
  3347  1CD1  00FB               	movwf	((get_num@num))+1
  3348  1CD2  2D29               	goto	l7692
  3349                           	line	150
  3350                           ;Main.c: 150: case '3': num = 3; break;
  3351                           	
  3352  1CD3                     l2100:	
  3353                           	
  3354  1CD3                     l7668:	
  3355  1CD3  3003               	movlw	low(03h)
  3356  1CD4  00FA               	movwf	(get_num@num)
  3357  1CD5  3000               	movlw	high(03h)
  3358  1CD6  00FB               	movwf	((get_num@num))+1
  3359  1CD7  2D29               	goto	l7692
  3360                           	line	151
  3361                           ;Main.c: 151: case '4': num = 4; break;
  3362                           	
  3363  1CD8                     l2101:	
  3364                           	
  3365  1CD8                     l7670:	
  3366  1CD8  3004               	movlw	low(04h)
  3367  1CD9  00FA               	movwf	(get_num@num)
  3368  1CDA  3000               	movlw	high(04h)
  3369  1CDB  00FB               	movwf	((get_num@num))+1
  3370  1CDC  2D29               	goto	l7692
  3371                           	line	152
  3372                           ;Main.c: 152: case '5': num = 5; break;
  3373                           	
  3374  1CDD                     l2102:	
  3375                           	
  3376  1CDD                     l7672:	
  3377  1CDD  3005               	movlw	low(05h)
  3378  1CDE  00FA               	movwf	(get_num@num)
  3379  1CDF  3000               	movlw	high(05h)
  3380  1CE0  00FB               	movwf	((get_num@num))+1
  3381  1CE1  2D29               	goto	l7692
  3382                           	line	153
  3383                           ;Main.c: 153: case '6': num = 6; break;
  3384                           	
  3385  1CE2                     l2103:	
  3386                           	
  3387  1CE2                     l7674:	
  3388  1CE2  3006               	movlw	low(06h)
  3389  1CE3  00FA               	movwf	(get_num@num)
  3390  1CE4  3000               	movlw	high(06h)
  3391  1CE5  00FB               	movwf	((get_num@num))+1
  3392  1CE6  2D29               	goto	l7692
  3393                           	line	154
  3394                           ;Main.c: 154: case '7': num = 7; break;
  3395                           	
  3396  1CE7                     l2104:	
  3397                           	
  3398  1CE7                     l7676:	
  3399  1CE7  3007               	movlw	low(07h)
  3400  1CE8  00FA               	movwf	(get_num@num)
  3401  1CE9  3000               	movlw	high(07h)
  3402  1CEA  00FB               	movwf	((get_num@num))+1
  3403  1CEB  2D29               	goto	l7692
  3404                           	line	155
  3405                           ;Main.c: 155: case '8': num = 8; break;
  3406                           	
  3407  1CEC                     l2105:	
  3408                           	
  3409  1CEC                     l7678:	
  3410  1CEC  3008               	movlw	low(08h)
  3411  1CED  00FA               	movwf	(get_num@num)
  3412  1CEE  3000               	movlw	high(08h)
  3413  1CEF  00FB               	movwf	((get_num@num))+1
  3414  1CF0  2D29               	goto	l7692
  3415                           	line	156
  3416                           ;Main.c: 156: case '9': num = 9; break;
  3417                           	
  3418  1CF1                     l2106:	
  3419                           	
  3420  1CF1                     l7680:	
  3421  1CF1  3009               	movlw	low(09h)
  3422  1CF2  00FA               	movwf	(get_num@num)
  3423  1CF3  3000               	movlw	high(09h)
  3424  1CF4  00FB               	movwf	((get_num@num))+1
  3425  1CF5  2D29               	goto	l7692
  3426                           	line	157
  3427                           ;Main.c: 157: case 'C': ClearLCDScreen(); num = 13; break;
  3428                           	
  3429  1CF6                     l2107:	
  3430                           	
  3431  1CF6                     l7682:	
  3432  1CF6  160A  158A  214A   	fcall	_ClearLCDScreen
              160A  158A         
  3433                           	
  3434  1CFB                     l7684:	
  3435  1CFB  300D               	movlw	low(0Dh)
  3436  1CFC  00FA               	movwf	(get_num@num)
  3437  1CFD  3000               	movlw	high(0Dh)
  3438  1CFE  00FB               	movwf	((get_num@num))+1
  3439  1CFF  2D29               	goto	l7692
  3440                           	line	158
  3441                           ;Main.c: 158: default: num = 13; break;
  3442                           	
  3443  1D00                     l2108:	
  3444                           	
  3445  1D00                     l7686:	
  3446  1D00  300D               	movlw	low(0Dh)
  3447  1D01  00FA               	movwf	(get_num@num)
  3448  1D02  3000               	movlw	high(0Dh)
  3449  1D03  00FB               	movwf	((get_num@num))+1
  3450  1D04  2D29               	goto	l7692
  3451                           	line	159
  3452                           	
  3453  1D05                     l7688:	
  3454                           ;Main.c: 159: }
  3455  1D05  2D29               	goto	l7692
  3456                           	line	145
  3457                           	
  3458  1D06                     l2095:	
  3459                           	
  3460  1D06                     l7690:	
  3461  1D06  0879               	movf	(get_num@ch),w
  3462                           	; Switch size 1, requested type "space"
  3463                           ; Number of cases is 11, Range of values is 48 to 67
  3464                           ; switch strategies available:
  3465                           ; Name         Instructions Cycles
  3466                           ; simple_byte           34    18 (average)
  3467                           ; direct_byte           71    11 (fixed)
  3468                           ; jumptable            263     9 (fixed)
  3469                           ;	Chosen strategy is simple_byte
  3470                           
  3471                           	opt asmopt_off
  3472  1D07  3A30               	xorlw	48^0	; case 48
  3473  1D08  1903               	skipnz
  3474  1D09  2CC6               	goto	l7662
  3475  1D0A  3A01               	xorlw	49^48	; case 49
  3476  1D0B  1903               	skipnz
  3477  1D0C  2CC9               	goto	l7664
  3478  1D0D  3A03               	xorlw	50^49	; case 50
  3479  1D0E  1903               	skipnz
  3480  1D0F  2CCE               	goto	l7666
  3481  1D10  3A01               	xorlw	51^50	; case 51
  3482  1D11  1903               	skipnz
  3483  1D12  2CD3               	goto	l7668
  3484  1D13  3A07               	xorlw	52^51	; case 52
  3485  1D14  1903               	skipnz
  3486  1D15  2CD8               	goto	l7670
  3487  1D16  3A01               	xorlw	53^52	; case 53
  3488  1D17  1903               	skipnz
  3489  1D18  2CDD               	goto	l7672
  3490  1D19  3A03               	xorlw	54^53	; case 54
  3491  1D1A  1903               	skipnz
  3492  1D1B  2CE2               	goto	l7674
  3493  1D1C  3A01               	xorlw	55^54	; case 55
  3494  1D1D  1903               	skipnz
  3495  1D1E  2CE7               	goto	l7676
  3496  1D1F  3A0F               	xorlw	56^55	; case 56
  3497  1D20  1903               	skipnz
  3498  1D21  2CEC               	goto	l7678
  3499  1D22  3A01               	xorlw	57^56	; case 57
  3500  1D23  1903               	skipnz
  3501  1D24  2CF1               	goto	l7680
  3502  1D25  3A7A               	xorlw	67^57	; case 67
  3503  1D26  1903               	skipnz
  3504  1D27  2CF6               	goto	l7682
  3505  1D28  2D00               	goto	l7686
  3506                           	opt asmopt_on
  3507                           
  3508                           	line	159
  3509                           	
  3510  1D29                     l2097:	
  3511                           	line	161
  3512                           	
  3513  1D29                     l7692:	
  3514                           ;Main.c: 161: return num;
  3515  1D29  087B               	movf	(get_num@num+1),w
  3516  1D2A  01F8               	clrf	(?_get_num+1)
  3517  1D2B  07F8               	addwf	(?_get_num+1)
  3518  1D2C  087A               	movf	(get_num@num),w
  3519  1D2D  01F7               	clrf	(?_get_num)
  3520  1D2E  07F7               	addwf	(?_get_num)
  3521                           
  3522  1D2F  2D30               	goto	l2109
  3523                           	
  3524  1D30                     l7694:	
  3525                           	line	162
  3526                           	
  3527  1D30                     l2109:	
  3528  1D30  0008               	return
  3529                           	opt stack 0
  3530                           GLOBAL	__end_of_get_num
  3531  1D31                     	__end_of_get_num:
  3532 ;; =============== function _get_num ends ============
  3533                           
  3534                           	signat	_get_num,4218
  3535                           	global	_sprintf
  3536                           psect	text691,local,class=CODE,delta=2
  3537                           global __ptext691
  3538  010C                     __ptext691:
  3539                           
  3540 ;; *************** function _sprintf *****************
  3541 ;; Defined at:
  3542 ;;		line 488 in file "C:\Program Files (x86)\HI-TECH Software\PICC\9.82\lib\doprnt.c"
  3543 ;; Parameters:    Size  Location     Type
  3544 ;;  sp              1    wreg     PTR unsigned char 
  3545 ;;		 -> main@msg(16), 
  3546 ;;  f               1   66[BANK0 ] PTR const unsigned char 
  3547 ;;		 -> STR_1(5), 
  3548 ;; Auto vars:     Size  Location     Type
  3549 ;;  sp              1   16[BANK1 ] PTR unsigned char 
  3550 ;;		 -> main@msg(16), 
  3551 ;;  _val            4   10[BANK1 ] struct .
  3552 ;;  fval            3   19[BANK1 ] struct .
  3553 ;;  integ           3    7[BANK1 ] struct .
  3554 ;;  ival            3    0        struct .
  3555 ;;  prec            2   17[BANK1 ] int 
  3556 ;;  exp             2   14[BANK1 ] int 
  3557 ;;  flag            2    5[BANK1 ] unsigned short 
  3558 ;;  width           2    0        int 
  3559 ;;  c               1   22[BANK1 ] char 
  3560 ;;  ap              1    4[BANK1 ] PTR void [1]
  3561 ;;		 -> ?_sprintf(2), 
  3562 ;;  d               1    0        unsigned char 
  3563 ;; Return value:  Size  Location     Type
  3564 ;;                  2   66[BANK0 ] int 
  3565 ;; Registers used:
  3566 ;;		wreg, fsr0l, fsr0h, status,2, status,0, btemp+1, pclath, cstack
  3567 ;; Tracked objects:
  3568 ;;		On entry : 0/0
  3569 ;;		On exit  : 0/0
  3570 ;;		Unchanged: 0/0
  3571 ;; Data sizes:     COMMON   BANK0   BANK1   BANK3   BANK2
  3572 ;;      Params:         0       4       0       0       0
  3573 ;;      Locals:         0       0      23       0       0
  3574 ;;      Temps:          0       6       0       0       0
  3575 ;;      Totals:         0      10      23       0       0
  3576 ;;Total ram usage:       33 bytes
  3577 ;; Hardware stack levels used:    1
  3578 ;; Hardware stack levels required when called:    3
  3579 ;; This function calls:
  3580 ;;		___wmul
  3581 ;;		_isdigit
  3582 ;;		___ftge
  3583 ;;		___ftneg
  3584 ;;		___awdiv
  3585 ;;		_scale
  3586 ;;		___ftmul
  3587 ;;		_fround
  3588 ;;		___ftadd
  3589 ;;		___fttol
  3590 ;;		__div_to_l_
  3591 ;;		__tdiv_to_l_
  3592 ;;		___lltoft
  3593 ;;		___ftsub
  3594 ;;		___lldiv
  3595 ;;		___llmod
  3596 ;; This function is called by:
  3597 ;;		_main
  3598 ;; This function uses a non-reentrant model
  3599 ;;
  3600                           psect	text691
  3601                           	file	"C:\Program Files (x86)\HI-TECH Software\PICC\9.82\sources\doprnt.c"
  3602                           	line	488
  3603                           	global	__size_of_sprintf
  3604  06F4                     	__size_of_sprintf	equ	__end_of_sprintf-_sprintf
  3605                           	
  3606  010C                     _sprintf:	
  3607                           	opt	stack 4
  3608                           ; Regs used in _sprintf: [wreg-fsr0h+status,2+status,0+btemp+1+pclath+cstack]
  3609                           ;sprintf@sp stored from wreg
  3610                           	line	537
  3611  010C  1683               	bsf	status, 5	;RP0=1, select bank1
  3612  010D  1303               	bcf	status, 6	;RP1=0, select bank1
  3613  010E  00B0               	movwf	(sprintf@sp)^080h
  3614                           	
  3615  010F                     l7468:	
  3616  010F  3063               	movlw	(?_sprintf+01h)&0ffh
  3617  0110  1283               	bcf	status, 5	;RP0=0, select bank0
  3618  0111  1303               	bcf	status, 6	;RP1=0, select bank0
  3619  0112  00E6               	movwf	(??_sprintf+0)+0
  3620  0113  0866               	movf	(??_sprintf+0)+0,w
  3621  0114  1683               	bsf	status, 5	;RP0=1, select bank1
  3622  0115  1303               	bcf	status, 6	;RP1=0, select bank1
  3623  0116  00A4               	movwf	(sprintf@ap)^080h
  3624                           	line	540
  3625  0117  2FE3               	goto	l7654
  3626                           	
  3627  0118                     l2164:	
  3628                           	line	542
  3629                           	
  3630  0118                     l7470:	
  3631  0118  0836               	movf	(sprintf@c)^080h,w
  3632  0119  3A25               	xorlw	025h
  3633  011A  1903               	skipnz
  3634  011B  291D               	goto	u5801
  3635  011C  291E               	goto	u5800
  3636  011D                     u5801:
  3637  011D  2932               	goto	l7476
  3638  011E                     u5800:
  3639                           	line	545
  3640                           	
  3641  011E                     l7472:	
  3642  011E  0836               	movf	(sprintf@c)^080h,w
  3643  011F  1283               	bcf	status, 5	;RP0=0, select bank0
  3644  0120  1303               	bcf	status, 6	;RP1=0, select bank0
  3645  0121  00E6               	movwf	(??_sprintf+0)+0
  3646  0122  1683               	bsf	status, 5	;RP0=1, select bank1
  3647  0123  1303               	bcf	status, 6	;RP1=0, select bank1
  3648  0124  0830               	movf	(sprintf@sp)^080h,w
  3649  0125  0084               	movwf	fsr0
  3650  0126  1283               	bcf	status, 5	;RP0=0, select bank0
  3651  0127  1303               	bcf	status, 6	;RP1=0, select bank0
  3652  0128  0866               	movf	(??_sprintf+0)+0,w
  3653  0129  1383               	bcf	status, 7	;select IRP bank0
  3654  012A  0080               	movwf	indf
  3655                           	
  3656  012B                     l7474:	
  3657  012B  3001               	movlw	(01h)
  3658  012C  00E6               	movwf	(??_sprintf+0)+0
  3659  012D  0866               	movf	(??_sprintf+0)+0,w
  3660  012E  1683               	bsf	status, 5	;RP0=1, select bank1
  3661  012F  1303               	bcf	status, 6	;RP1=0, select bank1
  3662  0130  07B0               	addwf	(sprintf@sp)^080h,f
  3663                           	line	546
  3664  0131  2FE3               	goto	l7654
  3665                           	line	547
  3666                           	
  3667  0132                     l2165:	
  3668                           	line	552
  3669                           	
  3670  0132                     l7476:	
  3671  0132  01A5               	clrf	(sprintf@flag)^080h
  3672  0133  01A6               	clrf	(sprintf@flag+1)^080h
  3673                           	line	614
  3674                           	
  3675  0134                     l7478:	
  3676  0134  1283               	bcf	status, 5	;RP0=0, select bank0
  3677  0135  1303               	bcf	status, 6	;RP1=0, select bank0
  3678  0136  0862               	movf	(sprintf@f),w
  3679  0137  0084               	movwf	fsr0
  3680  0138  160A  118A  2000   	fcall	stringdir
              120A  118A         
  3681  013D  3A2E               	xorlw	02Eh
  3682  013E  1D03               	skipz
  3683  013F  2941               	goto	u5811
  3684  0140  2942               	goto	u5810
  3685  0141                     u5811:
  3686  0141  2999               	goto	l7492
  3687  0142                     u5810:
  3688                           	line	615
  3689                           	
  3690  0142                     l7480:	
  3691  0142  1683               	bsf	status, 5	;RP0=1, select bank1
  3692  0143  1303               	bcf	status, 6	;RP1=0, select bank1
  3693  0144  1726               	bsf	(sprintf@flag)^080h+(14/8),(14)&7
  3694                           	line	616
  3695                           	
  3696  0145                     l7482:	
  3697  0145  3001               	movlw	(01h)
  3698  0146  1283               	bcf	status, 5	;RP0=0, select bank0
  3699  0147  1303               	bcf	status, 6	;RP1=0, select bank0
  3700  0148  00E6               	movwf	(??_sprintf+0)+0
  3701  0149  0866               	movf	(??_sprintf+0)+0,w
  3702  014A  07E2               	addwf	(sprintf@f),f
  3703                           	line	624
  3704                           	
  3705  014B                     l7484:	
  3706  014B  1683               	bsf	status, 5	;RP0=1, select bank1
  3707  014C  1303               	bcf	status, 6	;RP1=0, select bank1
  3708  014D  01B1               	clrf	(sprintf@prec)^080h
  3709  014E  01B2               	clrf	(sprintf@prec+1)^080h
  3710                           	line	625
  3711  014F  2986               	goto	l7490
  3712                           	
  3713  0150                     l2168:	
  3714                           	line	626
  3715                           	
  3716  0150                     l7486:	
  3717  0150  1683               	bsf	status, 5	;RP0=1, select bank1
  3718  0151  1303               	bcf	status, 6	;RP1=0, select bank1
  3719  0152  0832               	movf	(sprintf@prec+1)^080h,w
  3720  0153  01F1               	clrf	(?___wmul+1)
  3721  0154  07F1               	addwf	(?___wmul+1)
  3722  0155  0831               	movf	(sprintf@prec)^080h,w
  3723  0156  01F0               	clrf	(?___wmul)
  3724  0157  07F0               	addwf	(?___wmul)
  3725                           
  3726  0158  300A               	movlw	low(0Ah)
  3727  0159  00F2               	movwf	0+(?___wmul)+02h
  3728  015A  3000               	movlw	high(0Ah)
  3729  015B  00F3               	movwf	(0+(?___wmul)+02h)+1
  3730  015C  160A  158A  21D1   	fcall	___wmul
              120A  118A         
  3731  0161  1283               	bcf	status, 5	;RP0=0, select bank0
  3732  0162  1303               	bcf	status, 6	;RP1=0, select bank0
  3733  0163  0862               	movf	(sprintf@f),w
  3734  0164  0084               	movwf	fsr0
  3735  0165  160A  118A  2000   	fcall	stringdir
              120A  118A         
  3736  016A  0770               	addwf	(0+(?___wmul)),w
  3737  016B  00E6               	movwf	(??_sprintf+0)+0
  3738  016C  3000               	movlw	0
  3739  016D  1803               	skipnc
  3740  016E  3001               	movlw	1
  3741  016F  0771               	addwf	(1+(?___wmul)),w
  3742  0170  00E7               	movwf	1+(??_sprintf+0)+0
  3743  0171  0866               	movf	0+(??_sprintf+0)+0,w
  3744  0172  3ED0               	addlw	low(0FFD0h)
  3745  0173  1683               	bsf	status, 5	;RP0=1, select bank1
  3746  0174  1303               	bcf	status, 6	;RP1=0, select bank1
  3747  0175  00B1               	movwf	(sprintf@prec)^080h
  3748  0176  1283               	bcf	status, 5	;RP0=0, select bank0
  3749  0177  1303               	bcf	status, 6	;RP1=0, select bank0
  3750  0178  0867               	movf	1+(??_sprintf+0)+0,w
  3751  0179  1803               	skipnc
  3752  017A  3E01               	addlw	1
  3753  017B  3EFF               	addlw	high(0FFD0h)
  3754  017C  1683               	bsf	status, 5	;RP0=1, select bank1
  3755  017D  1303               	bcf	status, 6	;RP1=0, select bank1
  3756  017E  00B2               	movwf	1+(sprintf@prec)^080h
  3757                           	
  3758  017F                     l7488:	
  3759  017F  3001               	movlw	(01h)
  3760  0180  1283               	bcf	status, 5	;RP0=0, select bank0
  3761  0181  1303               	bcf	status, 6	;RP1=0, select bank0
  3762  0182  00E6               	movwf	(??_sprintf+0)+0
  3763  0183  0866               	movf	(??_sprintf+0)+0,w
  3764  0184  07E2               	addwf	(sprintf@f),f
  3765  0185  2986               	goto	l7490
  3766                           	
  3767  0186                     l2167:	
  3768                           	line	625
  3769                           	
  3770  0186                     l7490:	
  3771  0186  1283               	bcf	status, 5	;RP0=0, select bank0
  3772  0187  0862               	movf	(sprintf@f),w
  3773  0188  0084               	movwf	fsr0
  3774  0189  160A  118A  2000   	fcall	stringdir
              120A  118A         
  3775  018E  160A  158A  2135   	fcall	_isdigit
              120A  118A         
  3776  0193  1803               	btfsc	status,0
  3777  0194  2996               	goto	u5821
  3778  0195  2997               	goto	u5820
  3779  0196                     u5821:
  3780  0196  2950               	goto	l7486
  3781  0197                     u5820:
  3782  0197  29A5               	goto	l7498
  3783                           	
  3784  0198                     l2169:	
  3785                           	line	628
  3786  0198  29A5               	goto	l7498
  3787                           	
  3788  0199                     l2166:	
  3789                           	line	629
  3790                           	
  3791  0199                     l7492:	
  3792  0199  1683               	bsf	status, 5	;RP0=1, select bank1
  3793  019A  1303               	bcf	status, 6	;RP1=0, select bank1
  3794  019B  01B1               	clrf	(sprintf@prec)^080h
  3795  019C  01B2               	clrf	(sprintf@prec+1)^080h
  3796                           	line	631
  3797                           	
  3798  019D                     l7494:	
  3799  019D  1626               	bsf	(sprintf@flag)^080h+(12/8),(12)&7
  3800  019E  29A5               	goto	l7498
  3801                           	line	633
  3802                           	
  3803  019F                     l2170:	
  3804                           	line	638
  3805  019F  29A5               	goto	l7498
  3806                           	line	640
  3807                           	
  3808  01A0                     l2172:	
  3809                           	line	641
  3810  01A0  2FFA               	goto	l7656
  3811                           	line	665
  3812                           	
  3813  01A1                     l2174:	
  3814                           	line	666
  3815  01A1  1526               	bsf	(sprintf@flag)^080h+(10/8),(10)&7
  3816                           	line	667
  3817  01A2  29BB               	goto	l7500
  3818                           	line	805
  3819                           	
  3820  01A3                     l2176:	
  3821                           	line	816
  3822  01A3  2FE3               	goto	l7654
  3823                           	line	825
  3824                           	
  3825  01A4                     l7496:	
  3826  01A4  29BB               	goto	l7500
  3827                           	line	638
  3828                           	
  3829  01A5                     l2171:	
  3830                           	
  3831  01A5                     l7498:	
  3832  01A5  3001               	movlw	01h
  3833  01A6  1283               	bcf	status, 5	;RP0=0, select bank0
  3834  01A7  1303               	bcf	status, 6	;RP1=0, select bank0
  3835  01A8  07E2               	addwf	(sprintf@f),f
  3836  01A9  30FF               	movlw	-01h
  3837  01AA  0762               	addwf	(sprintf@f),w
  3838  01AB  0084               	movwf	fsr0
  3839  01AC  160A  118A  2000   	fcall	stringdir
              120A  118A         
  3840  01B1  1683               	bsf	status, 5	;RP0=1, select bank1
  3841  01B2  1303               	bcf	status, 6	;RP1=0, select bank1
  3842  01B3  00B6               	movwf	(sprintf@c)^080h
  3843                           	; Switch size 1, requested type "space"
  3844                           ; Number of cases is 2, Range of values is 0 to 102
  3845                           ; switch strategies available:
  3846                           ; Name         Instructions Cycles
  3847                           ; simple_byte            7     4 (average)
  3848                           ; jumptable            260     6 (fixed)
  3849                           ; rangetable           107     6 (fixed)
  3850                           ; spacedrange          212     9 (fixed)
  3851                           ; locatedrange         103     3 (fixed)
  3852                           ;	Chosen strategy is simple_byte
  3853                           
  3854                           	opt asmopt_off
  3855  01B4  3A00               	xorlw	0^0	; case 0
  3856  01B5  1903               	skipnz
  3857  01B6  2FFA               	goto	l7656
  3858  01B7  3A66               	xorlw	102^0	; case 102
  3859  01B8  1903               	skipnz
  3860  01B9  29A1               	goto	l2174
  3861  01BA  2FE3               	goto	l7654
  3862                           	opt asmopt_on
  3863                           
  3864                           	line	825
  3865                           	
  3866  01BB                     l2175:	
  3867                           	line	828
  3868                           	
  3869  01BB                     l7500:	
  3870  01BB  3000               	movlw	low(0700h)
  3871  01BC  0525               	andwf	(sprintf@flag)^080h,w
  3872  01BD  1283               	bcf	status, 5	;RP0=0, select bank0
  3873  01BE  1303               	bcf	status, 6	;RP1=0, select bank0
  3874  01BF  00E6               	movwf	(??_sprintf+0)+0
  3875  01C0  3007               	movlw	high(0700h)
  3876  01C1  1683               	bsf	status, 5	;RP0=1, select bank1
  3877  01C2  1303               	bcf	status, 6	;RP1=0, select bank1
  3878  01C3  0526               	andwf	(sprintf@flag+1)^080h,w
  3879  01C4  1283               	bcf	status, 5	;RP0=0, select bank0
  3880  01C5  1303               	bcf	status, 6	;RP1=0, select bank0
  3881  01C6  00E7               	movwf	1+(??_sprintf+0)+0
  3882  01C7  0867               	movf	1+(??_sprintf+0)+0,w
  3883  01C8  0466               	iorwf	0+(??_sprintf+0)+0,w
  3884  01C9  1903               	skipnz
  3885  01CA  29CC               	goto	u5831
  3886  01CB  29CD               	goto	u5830
  3887  01CC                     u5831:
  3888  01CC  2F58               	goto	l7636
  3889  01CD                     u5830:
  3890                           	line	830
  3891                           	
  3892  01CD                     l7502:	
  3893  01CD  1683               	bsf	status, 5	;RP0=1, select bank1
  3894  01CE  1303               	bcf	status, 6	;RP1=0, select bank1
  3895  01CF  1E26               	btfss	(sprintf@flag+1)^080h,(12)&7
  3896  01D0  29D2               	goto	u5841
  3897  01D1  29D3               	goto	u5840
  3898  01D2                     u5841:
  3899  01D2  29D8               	goto	l7506
  3900  01D3                     u5840:
  3901                           	line	832
  3902                           	
  3903  01D3                     l7504:	
  3904  01D3  3006               	movlw	low(06h)
  3905  01D4  00B1               	movwf	(sprintf@prec)^080h
  3906  01D5  3000               	movlw	high(06h)
  3907  01D6  00B2               	movwf	((sprintf@prec)^080h)+1
  3908  01D7  29D8               	goto	l7506
  3909                           	
  3910  01D8                     l2178:	
  3911                           	line	833
  3912                           	
  3913  01D8                     l7506:	
  3914  01D8  0824               	movf	(sprintf@ap)^080h,w
  3915  01D9  0084               	movwf	fsr0
  3916  01DA  1383               	bcf	status, 7	;select IRP bank0
  3917  01DB  0800               	movf	indf,w
  3918  01DC  00B3               	movwf	(sprintf@fval)^080h
  3919  01DD  0A84               	incf	fsr0,f
  3920  01DE  0800               	movf	indf,w
  3921  01DF  00B4               	movwf	(sprintf@fval+1)^080h
  3922  01E0  0A84               	incf	fsr0,f
  3923  01E1  0800               	movf	indf,w
  3924  01E2  00B5               	movwf	(sprintf@fval+2)^080h
  3925                           	
  3926  01E3                     l7508:	
  3927  01E3  3003               	movlw	(03h)
  3928  01E4  1283               	bcf	status, 5	;RP0=0, select bank0
  3929  01E5  1303               	bcf	status, 6	;RP1=0, select bank0
  3930  01E6  00E6               	movwf	(??_sprintf+0)+0
  3931  01E7  0866               	movf	(??_sprintf+0)+0,w
  3932  01E8  1683               	bsf	status, 5	;RP0=1, select bank1
  3933  01E9  1303               	bcf	status, 6	;RP1=0, select bank1
  3934  01EA  07A4               	addwf	(sprintf@ap)^080h,f
  3935                           	line	834
  3936                           	
  3937  01EB                     l7510:	
  3938  01EB  0833               	movf	(sprintf@fval)^080h,w
  3939  01EC  00F0               	movwf	(?___ftge)
  3940  01ED  0834               	movf	(sprintf@fval+1)^080h,w
  3941  01EE  00F1               	movwf	(?___ftge+1)
  3942  01EF  0835               	movf	(sprintf@fval+2)^080h,w
  3943  01F0  00F2               	movwf	(?___ftge+2)
  3944  01F1  3000               	movlw	0x0
  3945  01F2  00F3               	movwf	0+(?___ftge)+03h
  3946  01F3  3000               	movlw	0x0
  3947  01F4  00F4               	movwf	1+(?___ftge)+03h
  3948  01F5  3000               	movlw	0x0
  3949  01F6  00F5               	movwf	2+(?___ftge)+03h
  3950  01F7  160A  158A  23E8   	fcall	___ftge
              120A  118A         
  3951  01FC  1803               	btfsc	status,0
  3952  01FD  29FF               	goto	u5851
  3953  01FE  2A00               	goto	u5850
  3954  01FF                     u5851:
  3955  01FF  2A1A               	goto	l7516
  3956  0200                     u5850:
  3957                           	line	835
  3958                           	
  3959  0200                     l7512:	
  3960  0200  1683               	bsf	status, 5	;RP0=1, select bank1
  3961  0201  1303               	bcf	status, 6	;RP1=0, select bank1
  3962  0202  0833               	movf	(sprintf@fval)^080h,w
  3963  0203  00F0               	movwf	(?___ftneg)
  3964  0204  0834               	movf	(sprintf@fval+1)^080h,w
  3965  0205  00F1               	movwf	(?___ftneg+1)
  3966  0206  0835               	movf	(sprintf@fval+2)^080h,w
  3967  0207  00F2               	movwf	(?___ftneg+2)
  3968  0208  160A  158A  2129   	fcall	___ftneg
              120A  118A         
  3969  020D  0870               	movf	(0+(?___ftneg)),w
  3970  020E  1683               	bsf	status, 5	;RP0=1, select bank1
  3971  020F  1303               	bcf	status, 6	;RP1=0, select bank1
  3972  0210  00B3               	movwf	(sprintf@fval)^080h
  3973  0211  0871               	movf	(1+(?___ftneg)),w
  3974  0212  00B4               	movwf	(sprintf@fval+1)^080h
  3975  0213  0872               	movf	(2+(?___ftneg)),w
  3976  0214  00B5               	movwf	(sprintf@fval+2)^080h
  3977                           	line	836
  3978                           	
  3979  0215                     l7514:	
  3980  0215  3003               	movlw	low(03h)
  3981  0216  04A5               	iorwf	(sprintf@flag)^080h,f
  3982  0217  3000               	movlw	high(03h)
  3983  0218  04A6               	iorwf	(sprintf@flag+1)^080h,f
  3984  0219  2A1A               	goto	l7516
  3985                           	line	837
  3986                           	
  3987  021A                     l2179:	
  3988                           	line	838
  3989                           	
  3990  021A                     l7516:	
  3991  021A  1683               	bsf	status, 5	;RP0=1, select bank1
  3992  021B  1303               	bcf	status, 6	;RP1=0, select bank1
  3993  021C  01AE               	clrf	(sprintf@exp)^080h
  3994  021D  01AF               	clrf	(sprintf@exp+1)^080h
  3995                           	line	839
  3996                           	
  3997  021E                     l7518:	
  3998  021E  0835               	movf	(sprintf@fval+2)^080h,w
  3999  021F  0434               	iorwf	(sprintf@fval+1)^080h,w
  4000  0220  0433               	iorwf	(sprintf@fval)^080h,w
  4001  0221  1903               	skipnz
  4002  0222  2A24               	goto	u5861
  4003  0223  2A25               	goto	u5860
  4004  0224                     u5861:
  4005  0224  2B23               	goto	l7544
  4006  0225                     u5860:
  4007                           	line	840
  4008                           	
  4009  0225                     l7520:	
  4010  0225  30B3               	movlw	low(sprintf@fval)
  4011  0226  0084               	movwf	fsr0
  4012  0227  1383               	bcf	status, 7	;select IRP bank1
  4013  0228  0800               	movf	indf,w
  4014  0229  1283               	bcf	status, 5	;RP0=0, select bank0
  4015  022A  1303               	bcf	status, 6	;RP1=0, select bank0
  4016  022B  00E6               	movwf	(??_sprintf+0)+0+0
  4017  022C  0A84               	incf	fsr0,f
  4018  022D  0800               	movf	indf,w
  4019  022E  00E7               	movwf	(??_sprintf+0)+0+1
  4020  022F  0A84               	incf	fsr0,f
  4021  0230  0800               	movf	indf,w
  4022  0231  00E8               	movwf	(??_sprintf+0)+0+2
  4023  0232  0A84               	incf	fsr0,f
  4024  0233  0800               	movf	indf,w
  4025  0234  00E9               	movwf	(??_sprintf+0)+0+3
  4026  0235  300F               	movlw	0Fh
  4027  0236                     u5875:
  4028  0236  1003               	clrc
  4029  0237  0CE9               	rrf	(??_sprintf+0)+3,f
  4030  0238  0CE8               	rrf	(??_sprintf+0)+2,f
  4031  0239  0CE7               	rrf	(??_sprintf+0)+1,f
  4032  023A  0CE6               	rrf	(??_sprintf+0)+0,f
  4033  023B                     u5870:
  4034  023B  3EFF               	addlw	-1
  4035  023C  1D03               	skipz
  4036  023D  2A36               	goto	u5875
  4037  023E  30FF               	movlw	low(0FFh)
  4038  023F  0566               	andwf	0+(??_sprintf+0)+0,w
  4039  0240  00EA               	movwf	(??_sprintf+4)+0
  4040  0241  3000               	movlw	high(0FFh)
  4041  0242  0567               	andwf	1+(??_sprintf+0)+0,w
  4042  0243  00EB               	movwf	1+(??_sprintf+4)+0
  4043  0244  086A               	movf	0+(??_sprintf+4)+0,w
  4044  0245  3E82               	addlw	low(-126)
  4045  0246  1683               	bsf	status, 5	;RP0=1, select bank1
  4046  0247  1303               	bcf	status, 6	;RP1=0, select bank1
  4047  0248  00AE               	movwf	(sprintf@exp)^080h
  4048  0249  1283               	bcf	status, 5	;RP0=0, select bank0
  4049  024A  1303               	bcf	status, 6	;RP1=0, select bank0
  4050  024B  086B               	movf	1+(??_sprintf+4)+0,w
  4051  024C  1803               	skipnc
  4052  024D  3E01               	addlw	1
  4053  024E  3EFF               	addlw	high(-126)
  4054  024F  1683               	bsf	status, 5	;RP0=1, select bank1
  4055  0250  1303               	bcf	status, 6	;RP1=0, select bank1
  4056  0251  00AF               	movwf	1+(sprintf@exp)^080h
  4057                           	line	841
  4058                           	
  4059  0252                     l7522:	
  4060  0252  30FF               	movlw	low(-1)
  4061  0253  07AE               	addwf	(sprintf@exp)^080h,f
  4062  0254  1803               	skipnc
  4063  0255  0AAF               	incf	(sprintf@exp+1)^080h,f
  4064  0256  30FF               	movlw	high(-1)
  4065  0257  07AF               	addwf	(sprintf@exp+1)^080h,f
  4066                           	line	842
  4067                           	
  4068  0258                     l7524:	
  4069  0258  3003               	movlw	low(03h)
  4070  0259  00F0               	movwf	(?___wmul)
  4071  025A  3000               	movlw	high(03h)
  4072  025B  00F1               	movwf	((?___wmul))+1
  4073  025C  082F               	movf	(sprintf@exp+1)^080h,w
  4074  025D  01F3               	clrf	1+(?___wmul)+02h
  4075  025E  07F3               	addwf	1+(?___wmul)+02h
  4076  025F  082E               	movf	(sprintf@exp)^080h,w
  4077  0260  01F2               	clrf	0+(?___wmul)+02h
  4078  0261  07F2               	addwf	0+(?___wmul)+02h
  4079                           
  4080  0262  160A  158A  21D1   	fcall	___wmul
              120A  118A         
  4081  0267  0871               	movf	(1+(?___wmul)),w
  4082  0268  1683               	bsf	status, 5	;RP0=1, select bank1
  4083  0269  1303               	bcf	status, 6	;RP1=0, select bank1
  4084  026A  01AF               	clrf	(sprintf@exp+1)^080h
  4085  026B  07AF               	addwf	(sprintf@exp+1)^080h
  4086  026C  0870               	movf	(0+(?___wmul)),w
  4087  026D  01AE               	clrf	(sprintf@exp)^080h
  4088  026E  07AE               	addwf	(sprintf@exp)^080h
  4089                           
  4090                           	line	843
  4091                           	
  4092  026F                     l7526:	
  4093  026F  300A               	movlw	low(0Ah)
  4094  0270  00F7               	movwf	(?___awdiv)
  4095  0271  3000               	movlw	high(0Ah)
  4096  0272  00F8               	movwf	((?___awdiv))+1
  4097  0273  082F               	movf	(sprintf@exp+1)^080h,w
  4098  0274  01FA               	clrf	1+(?___awdiv)+02h
  4099  0275  07FA               	addwf	1+(?___awdiv)+02h
  4100  0276  082E               	movf	(sprintf@exp)^080h,w
  4101  0277  01F9               	clrf	0+(?___awdiv)+02h
  4102  0278  07F9               	addwf	0+(?___awdiv)+02h
  4103                           
  4104  0279  160A  158A  2531   	fcall	___awdiv
              120A  118A         
  4105  027E  0878               	movf	(1+(?___awdiv)),w
  4106  027F  1683               	bsf	status, 5	;RP0=1, select bank1
  4107  0280  1303               	bcf	status, 6	;RP1=0, select bank1
  4108  0281  01AF               	clrf	(sprintf@exp+1)^080h
  4109  0282  07AF               	addwf	(sprintf@exp+1)^080h
  4110  0283  0877               	movf	(0+(?___awdiv)),w
  4111  0284  01AE               	clrf	(sprintf@exp)^080h
  4112  0285  07AE               	addwf	(sprintf@exp)^080h
  4113                           
  4114                           	line	844
  4115                           	
  4116  0286                     l7528:	
  4117  0286  1FAF               	btfss	(sprintf@exp+1)^080h,7
  4118  0287  2A89               	goto	u5881
  4119  0288  2A8A               	goto	u5880
  4120  0289                     u5881:
  4121  0289  2A91               	goto	l7532
  4122  028A                     u5880:
  4123                           	line	845
  4124                           	
  4125  028A                     l7530:	
  4126  028A  30FF               	movlw	low(-1)
  4127  028B  07AE               	addwf	(sprintf@exp)^080h,f
  4128  028C  1803               	skipnc
  4129  028D  0AAF               	incf	(sprintf@exp+1)^080h,f
  4130  028E  30FF               	movlw	high(-1)
  4131  028F  07AF               	addwf	(sprintf@exp+1)^080h,f
  4132  0290  2A91               	goto	l7532
  4133                           	
  4134  0291                     l2181:	
  4135                           	line	849
  4136                           	
  4137  0291                     l7532:	
  4138  0291  032E               	decf	(sprintf@exp)^080h,w
  4139  0292  3AFF               	xorlw	0ffh
  4140  0293  120A  158A  2113   	fcall	_scale
              120A  118A         
  4141  0298  1283               	bcf	status, 5	;RP0=0, select bank0
  4142  0299  1303               	bcf	status, 6	;RP1=0, select bank0
  4143  029A  0845               	movf	(0+(?_scale)),w
  4144  029B  1683               	bsf	status, 5	;RP0=1, select bank1
  4145  029C  1303               	bcf	status, 6	;RP1=0, select bank1
  4146  029D  00A7               	movwf	(sprintf@integ)^080h
  4147  029E  1283               	bcf	status, 5	;RP0=0, select bank0
  4148  029F  1303               	bcf	status, 6	;RP1=0, select bank0
  4149  02A0  0846               	movf	(1+(?_scale)),w
  4150  02A1  1683               	bsf	status, 5	;RP0=1, select bank1
  4151  02A2  1303               	bcf	status, 6	;RP1=0, select bank1
  4152  02A3  00A8               	movwf	(sprintf@integ+1)^080h
  4153  02A4  1283               	bcf	status, 5	;RP0=0, select bank0
  4154  02A5  1303               	bcf	status, 6	;RP1=0, select bank0
  4155  02A6  0847               	movf	(2+(?_scale)),w
  4156  02A7  1683               	bsf	status, 5	;RP0=1, select bank1
  4157  02A8  1303               	bcf	status, 6	;RP1=0, select bank1
  4158  02A9  00A9               	movwf	(sprintf@integ+2)^080h
  4159                           	line	850
  4160                           	
  4161  02AA                     l7534:	
  4162  02AA  0833               	movf	(sprintf@fval)^080h,w
  4163  02AB  1283               	bcf	status, 5	;RP0=0, select bank0
  4164  02AC  1303               	bcf	status, 6	;RP1=0, select bank0
  4165  02AD  00B5               	movwf	(?___ftmul)
  4166  02AE  1683               	bsf	status, 5	;RP0=1, select bank1
  4167  02AF  1303               	bcf	status, 6	;RP1=0, select bank1
  4168  02B0  0834               	movf	(sprintf@fval+1)^080h,w
  4169  02B1  1283               	bcf	status, 5	;RP0=0, select bank0
  4170  02B2  1303               	bcf	status, 6	;RP1=0, select bank0
  4171  02B3  00B6               	movwf	(?___ftmul+1)
  4172  02B4  1683               	bsf	status, 5	;RP0=1, select bank1
  4173  02B5  1303               	bcf	status, 6	;RP1=0, select bank1
  4174  02B6  0835               	movf	(sprintf@fval+2)^080h,w
  4175  02B7  1283               	bcf	status, 5	;RP0=0, select bank0
  4176  02B8  1303               	bcf	status, 6	;RP1=0, select bank0
  4177  02B9  00B7               	movwf	(?___ftmul+2)
  4178  02BA  1683               	bsf	status, 5	;RP0=1, select bank1
  4179  02BB  1303               	bcf	status, 6	;RP1=0, select bank1
  4180  02BC  0827               	movf	(sprintf@integ)^080h,w
  4181  02BD  1283               	bcf	status, 5	;RP0=0, select bank0
  4182  02BE  1303               	bcf	status, 6	;RP1=0, select bank0
  4183  02BF  00B8               	movwf	0+(?___ftmul)+03h
  4184  02C0  1683               	bsf	status, 5	;RP0=1, select bank1
  4185  02C1  1303               	bcf	status, 6	;RP1=0, select bank1
  4186  02C2  0828               	movf	(sprintf@integ+1)^080h,w
  4187  02C3  1283               	bcf	status, 5	;RP0=0, select bank0
  4188  02C4  1303               	bcf	status, 6	;RP1=0, select bank0
  4189  02C5  00B9               	movwf	1+(?___ftmul)+03h
  4190  02C6  1683               	bsf	status, 5	;RP0=1, select bank1
  4191  02C7  1303               	bcf	status, 6	;RP1=0, select bank1
  4192  02C8  0829               	movf	(sprintf@integ+2)^080h,w
  4193  02C9  1283               	bcf	status, 5	;RP0=0, select bank0
  4194  02CA  1303               	bcf	status, 6	;RP1=0, select bank0
  4195  02CB  00BA               	movwf	2+(?___ftmul)+03h
  4196  02CC  120A  118A  201E   	fcall	___ftmul
              120A  118A         
  4197  02D1  1283               	bcf	status, 5	;RP0=0, select bank0
  4198  02D2  1303               	bcf	status, 6	;RP1=0, select bank0
  4199  02D3  0835               	movf	(0+(?___ftmul)),w
  4200  02D4  1683               	bsf	status, 5	;RP0=1, select bank1
  4201  02D5  1303               	bcf	status, 6	;RP1=0, select bank1
  4202  02D6  00A7               	movwf	(sprintf@integ)^080h
  4203  02D7  1283               	bcf	status, 5	;RP0=0, select bank0
  4204  02D8  1303               	bcf	status, 6	;RP1=0, select bank0
  4205  02D9  0836               	movf	(1+(?___ftmul)),w
  4206  02DA  1683               	bsf	status, 5	;RP0=1, select bank1
  4207  02DB  1303               	bcf	status, 6	;RP1=0, select bank1
  4208  02DC  00A8               	movwf	(sprintf@integ+1)^080h
  4209  02DD  1283               	bcf	status, 5	;RP0=0, select bank0
  4210  02DE  1303               	bcf	status, 6	;RP1=0, select bank0
  4211  02DF  0837               	movf	(2+(?___ftmul)),w
  4212  02E0  1683               	bsf	status, 5	;RP0=1, select bank1
  4213  02E1  1303               	bcf	status, 6	;RP1=0, select bank1
  4214  02E2  00A9               	movwf	(sprintf@integ+2)^080h
  4215                           	line	851
  4216                           	
  4217  02E3                     l7536:	
  4218  02E3  0827               	movf	(sprintf@integ)^080h,w
  4219  02E4  00F0               	movwf	(?___ftge)
  4220  02E5  0828               	movf	(sprintf@integ+1)^080h,w
  4221  02E6  00F1               	movwf	(?___ftge+1)
  4222  02E7  0829               	movf	(sprintf@integ+2)^080h,w
  4223  02E8  00F2               	movwf	(?___ftge+2)
  4224  02E9  3000               	movlw	0x0
  4225  02EA  00F3               	movwf	0+(?___ftge)+03h
  4226  02EB  3080               	movlw	0x80
  4227  02EC  00F4               	movwf	1+(?___ftge)+03h
  4228  02ED  303F               	movlw	0x3f
  4229  02EE  00F5               	movwf	2+(?___ftge)+03h
  4230  02EF  160A  158A  23E8   	fcall	___ftge
              120A  118A         
  4231  02F4  1803               	btfsc	status,0
  4232  02F5  2AF7               	goto	u5891
  4233  02F6  2AF8               	goto	u5890
  4234  02F7                     u5891:
  4235  02F7  2B01               	goto	l7540
  4236  02F8                     u5890:
  4237                           	line	852
  4238                           	
  4239  02F8                     l7538:	
  4240  02F8  30FF               	movlw	low(-1)
  4241  02F9  1683               	bsf	status, 5	;RP0=1, select bank1
  4242  02FA  1303               	bcf	status, 6	;RP1=0, select bank1
  4243  02FB  07AE               	addwf	(sprintf@exp)^080h,f
  4244  02FC  1803               	skipnc
  4245  02FD  0AAF               	incf	(sprintf@exp+1)^080h,f
  4246  02FE  30FF               	movlw	high(-1)
  4247  02FF  07AF               	addwf	(sprintf@exp+1)^080h,f
  4248  0300  2B23               	goto	l7544
  4249                           	line	853
  4250                           	
  4251  0301                     l2182:	
  4252                           	
  4253  0301                     l7540:	
  4254  0301  1683               	bsf	status, 5	;RP0=1, select bank1
  4255  0302  1303               	bcf	status, 6	;RP1=0, select bank1
  4256  0303  0827               	movf	(sprintf@integ)^080h,w
  4257  0304  00F0               	movwf	(?___ftge)
  4258  0305  0828               	movf	(sprintf@integ+1)^080h,w
  4259  0306  00F1               	movwf	(?___ftge+1)
  4260  0307  0829               	movf	(sprintf@integ+2)^080h,w
  4261  0308  00F2               	movwf	(?___ftge+2)
  4262  0309  3000               	movlw	0x0
  4263  030A  00F3               	movwf	0+(?___ftge)+03h
  4264  030B  3020               	movlw	0x20
  4265  030C  00F4               	movwf	1+(?___ftge)+03h
  4266  030D  3041               	movlw	0x41
  4267  030E  00F5               	movwf	2+(?___ftge)+03h
  4268  030F  160A  158A  23E8   	fcall	___ftge
              120A  118A         
  4269  0314  1C03               	btfss	status,0
  4270  0315  2B17               	goto	u5901
  4271  0316  2B18               	goto	u5900
  4272  0317                     u5901:
  4273  0317  2B23               	goto	l7544
  4274  0318                     u5900:
  4275                           	line	854
  4276                           	
  4277  0318                     l7542:	
  4278  0318  3001               	movlw	low(01h)
  4279  0319  1683               	bsf	status, 5	;RP0=1, select bank1
  4280  031A  1303               	bcf	status, 6	;RP1=0, select bank1
  4281  031B  07AE               	addwf	(sprintf@exp)^080h,f
  4282  031C  1803               	skipnc
  4283  031D  0AAF               	incf	(sprintf@exp+1)^080h,f
  4284  031E  3000               	movlw	high(01h)
  4285  031F  07AF               	addwf	(sprintf@exp+1)^080h,f
  4286  0320  2B23               	goto	l7544
  4287                           	
  4288  0321                     l2184:	
  4289  0321  2B23               	goto	l7544
  4290                           	line	855
  4291                           	
  4292  0322                     l2183:	
  4293  0322  2B23               	goto	l7544
  4294                           	
  4295  0323                     l2180:	
  4296                           	line	1115
  4297                           	
  4298  0323                     l7544:	
  4299  0323  1683               	bsf	status, 5	;RP0=1, select bank1
  4300  0324  1303               	bcf	status, 6	;RP1=0, select bank1
  4301  0325  0832               	movf	(sprintf@prec+1)^080h,w
  4302  0326  3A80               	xorlw	80h
  4303  0327  00FF               	movwf	btemp+1
  4304  0328  3080               	movlw	(high(0Dh))^80h
  4305  0329  027F               	subwf	btemp+1,w
  4306  032A  1D03               	skipz
  4307  032B  2B2E               	goto	u5915
  4308  032C  300D               	movlw	low(0Dh)
  4309  032D  0231               	subwf	(sprintf@prec)^080h,w
  4310  032E                     u5915:
  4311                           
  4312  032E  1803               	skipnc
  4313  032F  2B31               	goto	u5911
  4314  0330  2B32               	goto	u5910
  4315  0331                     u5911:
  4316  0331  2B6C               	goto	l7548
  4317  0332                     u5910:
  4318                           	line	1116
  4319                           	
  4320  0332                     l7546:	
  4321  0332  1683               	bsf	status, 5	;RP0=1, select bank1
  4322  0333  1303               	bcf	status, 6	;RP1=0, select bank1
  4323  0334  0831               	movf	(sprintf@prec)^080h,w
  4324  0335  160A  118A  2480   	fcall	_fround
              120A  118A         
  4325  033A  1283               	bcf	status, 5	;RP0=0, select bank0
  4326  033B  1303               	bcf	status, 6	;RP1=0, select bank0
  4327  033C  0852               	movf	(0+(?_fround)),w
  4328  033D  00C5               	movwf	(?___ftadd)
  4329  033E  0853               	movf	(1+(?_fround)),w
  4330  033F  00C6               	movwf	(?___ftadd+1)
  4331  0340  0854               	movf	(2+(?_fround)),w
  4332  0341  00C7               	movwf	(?___ftadd+2)
  4333  0342  1683               	bsf	status, 5	;RP0=1, select bank1
  4334  0343  1303               	bcf	status, 6	;RP1=0, select bank1
  4335  0344  0833               	movf	(sprintf@fval)^080h,w
  4336  0345  1283               	bcf	status, 5	;RP0=0, select bank0
  4337  0346  1303               	bcf	status, 6	;RP1=0, select bank0
  4338  0347  00C8               	movwf	0+(?___ftadd)+03h
  4339  0348  1683               	bsf	status, 5	;RP0=1, select bank1
  4340  0349  1303               	bcf	status, 6	;RP1=0, select bank1
  4341  034A  0834               	movf	(sprintf@fval+1)^080h,w
  4342  034B  1283               	bcf	status, 5	;RP0=0, select bank0
  4343  034C  1303               	bcf	status, 6	;RP1=0, select bank0
  4344  034D  00C9               	movwf	1+(?___ftadd)+03h
  4345  034E  1683               	bsf	status, 5	;RP0=1, select bank1
  4346  034F  1303               	bcf	status, 6	;RP1=0, select bank1
  4347  0350  0835               	movf	(sprintf@fval+2)^080h,w
  4348  0351  1283               	bcf	status, 5	;RP0=0, select bank0
  4349  0352  1303               	bcf	status, 6	;RP1=0, select bank0
  4350  0353  00CA               	movwf	2+(?___ftadd)+03h
  4351  0354  160A  118A  21E6   	fcall	___ftadd
              120A  118A         
  4352  0359  1283               	bcf	status, 5	;RP0=0, select bank0
  4353  035A  1303               	bcf	status, 6	;RP1=0, select bank0
  4354  035B  0845               	movf	(0+(?___ftadd)),w
  4355  035C  1683               	bsf	status, 5	;RP0=1, select bank1
  4356  035D  1303               	bcf	status, 6	;RP1=0, select bank1
  4357  035E  00B3               	movwf	(sprintf@fval)^080h
  4358  035F  1283               	bcf	status, 5	;RP0=0, select bank0
  4359  0360  1303               	bcf	status, 6	;RP1=0, select bank0
  4360  0361  0846               	movf	(1+(?___ftadd)),w
  4361  0362  1683               	bsf	status, 5	;RP0=1, select bank1
  4362  0363  1303               	bcf	status, 6	;RP1=0, select bank1
  4363  0364  00B4               	movwf	(sprintf@fval+1)^080h
  4364  0365  1283               	bcf	status, 5	;RP0=0, select bank0
  4365  0366  1303               	bcf	status, 6	;RP1=0, select bank0
  4366  0367  0847               	movf	(2+(?___ftadd)),w
  4367  0368  1683               	bsf	status, 5	;RP0=1, select bank1
  4368  0369  1303               	bcf	status, 6	;RP1=0, select bank1
  4369  036A  00B5               	movwf	(sprintf@fval+2)^080h
  4370  036B  2B6C               	goto	l7548
  4371                           	
  4372  036C                     l2185:	
  4373                           	line	1119
  4374                           	
  4375  036C                     l7548:	
  4376  036C  1683               	bsf	status, 5	;RP0=1, select bank1
  4377  036D  1303               	bcf	status, 6	;RP1=0, select bank1
  4378  036E  082F               	movf	(sprintf@exp+1)^080h,w
  4379  036F  3A80               	xorlw	80h
  4380  0370  00FF               	movwf	btemp+1
  4381  0371  3080               	movlw	(high(0Ah))^80h
  4382  0372  027F               	subwf	btemp+1,w
  4383  0373  1D03               	skipz
  4384  0374  2B77               	goto	u5925
  4385  0375  300A               	movlw	low(0Ah)
  4386  0376  022E               	subwf	(sprintf@exp)^080h,w
  4387  0377                     u5925:
  4388                           
  4389  0377  1803               	skipnc
  4390  0378  2B7A               	goto	u5921
  4391  0379  2B7B               	goto	u5920
  4392  037A                     u5921:
  4393  037A  2BB3               	goto	l7556
  4394  037B                     u5920:
  4395                           	
  4396  037B                     l7550:	
  4397  037B  1683               	bsf	status, 5	;RP0=1, select bank1
  4398  037C  1303               	bcf	status, 6	;RP1=0, select bank1
  4399  037D  0835               	movf	(sprintf@fval+2)^080h,w
  4400  037E  0434               	iorwf	(sprintf@fval+1)^080h,w
  4401  037F  0433               	iorwf	(sprintf@fval)^080h,w
  4402  0380  1903               	skipnz
  4403  0381  2B83               	goto	u5931
  4404  0382  2B84               	goto	u5930
  4405  0383                     u5931:
  4406  0383  2C3C               	goto	l7572
  4407  0384                     u5930:
  4408                           	
  4409  0384                     l7552:	
  4410  0384  0833               	movf	(sprintf@fval)^080h,w
  4411  0385  1283               	bcf	status, 5	;RP0=0, select bank0
  4412  0386  1303               	bcf	status, 6	;RP1=0, select bank0
  4413  0387  00A7               	movwf	(?___fttol)
  4414  0388  1683               	bsf	status, 5	;RP0=1, select bank1
  4415  0389  1303               	bcf	status, 6	;RP1=0, select bank1
  4416  038A  0834               	movf	(sprintf@fval+1)^080h,w
  4417  038B  1283               	bcf	status, 5	;RP0=0, select bank0
  4418  038C  1303               	bcf	status, 6	;RP1=0, select bank0
  4419  038D  00A8               	movwf	(?___fttol+1)
  4420  038E  1683               	bsf	status, 5	;RP0=1, select bank1
  4421  038F  1303               	bcf	status, 6	;RP1=0, select bank1
  4422  0390  0835               	movf	(sprintf@fval+2)^080h,w
  4423  0391  1283               	bcf	status, 5	;RP0=0, select bank0
  4424  0392  1303               	bcf	status, 6	;RP1=0, select bank0
  4425  0393  00A9               	movwf	(?___fttol+2)
  4426  0394  160A  158A  26B2   	fcall	___fttol
              120A  118A         
  4427  0399  1283               	bcf	status, 5	;RP0=0, select bank0
  4428  039A  1303               	bcf	status, 6	;RP1=0, select bank0
  4429  039B  082A               	movf	(3+(?___fttol)),w
  4430  039C  0429               	iorwf	(2+(?___fttol)),w
  4431  039D  0428               	iorwf	(1+(?___fttol)),w
  4432  039E  0427               	iorwf	(0+(?___fttol)),w
  4433  039F  1D03               	skipz
  4434  03A0  2BA2               	goto	u5941
  4435  03A1  2BA3               	goto	u5940
  4436  03A2                     u5941:
  4437  03A2  2C3C               	goto	l7572
  4438  03A3                     u5940:
  4439                           	
  4440  03A3                     l7554:	
  4441  03A3  1683               	bsf	status, 5	;RP0=1, select bank1
  4442  03A4  1303               	bcf	status, 6	;RP1=0, select bank1
  4443  03A5  082F               	movf	(sprintf@exp+1)^080h,w
  4444  03A6  3A80               	xorlw	80h
  4445  03A7  00FF               	movwf	btemp+1
  4446  03A8  3080               	movlw	(high(02h))^80h
  4447  03A9  027F               	subwf	btemp+1,w
  4448  03AA  1D03               	skipz
  4449  03AB  2BAE               	goto	u5955
  4450  03AC  3002               	movlw	low(02h)
  4451  03AD  022E               	subwf	(sprintf@exp)^080h,w
  4452  03AE                     u5955:
  4453                           
  4454  03AE  1C03               	skipc
  4455  03AF  2BB1               	goto	u5951
  4456  03B0  2BB2               	goto	u5950
  4457  03B1                     u5951:
  4458  03B1  2C3C               	goto	l7572
  4459  03B2                     u5950:
  4460  03B2  2BB3               	goto	l7556
  4461                           	
  4462  03B3                     l2188:	
  4463                           	line	1123
  4464                           	
  4465  03B3                     l7556:	
  4466  03B3  1683               	bsf	status, 5	;RP0=1, select bank1
  4467  03B4  1303               	bcf	status, 6	;RP1=0, select bank1
  4468  03B5  0827               	movf	(sprintf@integ)^080h,w
  4469  03B6  00F0               	movwf	(?___ftge)
  4470  03B7  0828               	movf	(sprintf@integ+1)^080h,w
  4471  03B8  00F1               	movwf	(?___ftge+1)
  4472  03B9  0829               	movf	(sprintf@integ+2)^080h,w
  4473  03BA  00F2               	movwf	(?___ftge+2)
  4474  03BB  3070               	movlw	0x70
  4475  03BC  00F3               	movwf	0+(?___ftge)+03h
  4476  03BD  3089               	movlw	0x89
  4477  03BE  00F4               	movwf	1+(?___ftge)+03h
  4478  03BF  3040               	movlw	0x40
  4479  03C0  00F5               	movwf	2+(?___ftge)+03h
  4480  03C1  160A  158A  23E8   	fcall	___ftge
              120A  118A         
  4481  03C6  1803               	btfsc	status,0
  4482  03C7  2BC9               	goto	u5961
  4483  03C8  2BCA               	goto	u5960
  4484  03C9                     u5961:
  4485  03C9  2BD3               	goto	l7560
  4486  03CA                     u5960:
  4487                           	line	1124
  4488                           	
  4489  03CA                     l7558:	
  4490  03CA  30F7               	movlw	low(-9)
  4491  03CB  1683               	bsf	status, 5	;RP0=1, select bank1
  4492  03CC  1303               	bcf	status, 6	;RP1=0, select bank1
  4493  03CD  07AE               	addwf	(sprintf@exp)^080h,f
  4494  03CE  1803               	skipnc
  4495  03CF  0AAF               	incf	(sprintf@exp+1)^080h,f
  4496  03D0  30FF               	movlw	high(-9)
  4497  03D1  07AF               	addwf	(sprintf@exp+1)^080h,f
  4498                           	line	1125
  4499  03D2  2BDC               	goto	l7562
  4500                           	
  4501  03D3                     l2189:	
  4502                           	line	1126
  4503                           	
  4504  03D3                     l7560:	
  4505  03D3  30F8               	movlw	low(-8)
  4506  03D4  1683               	bsf	status, 5	;RP0=1, select bank1
  4507  03D5  1303               	bcf	status, 6	;RP1=0, select bank1
  4508  03D6  07AE               	addwf	(sprintf@exp)^080h,f
  4509  03D7  1803               	skipnc
  4510  03D8  0AAF               	incf	(sprintf@exp+1)^080h,f
  4511  03D9  30FF               	movlw	high(-8)
  4512  03DA  07AF               	addwf	(sprintf@exp+1)^080h,f
  4513  03DB  2BDC               	goto	l7562
  4514                           	line	1127
  4515                           	
  4516  03DC                     l2190:	
  4517                           	line	1128
  4518                           	
  4519  03DC                     l7562:	
  4520  03DC  082E               	movf	(sprintf@exp)^080h,w
  4521  03DD  120A  158A  2113   	fcall	_scale
              120A  118A         
  4522  03E2  1283               	bcf	status, 5	;RP0=0, select bank0
  4523  03E3  1303               	bcf	status, 6	;RP1=0, select bank0
  4524  03E4  0845               	movf	(0+(?_scale)),w
  4525  03E5  1683               	bsf	status, 5	;RP0=1, select bank1
  4526  03E6  1303               	bcf	status, 6	;RP1=0, select bank1
  4527  03E7  00A7               	movwf	(sprintf@integ)^080h
  4528  03E8  1283               	bcf	status, 5	;RP0=0, select bank0
  4529  03E9  1303               	bcf	status, 6	;RP1=0, select bank0
  4530  03EA  0846               	movf	(1+(?_scale)),w
  4531  03EB  1683               	bsf	status, 5	;RP0=1, select bank1
  4532  03EC  1303               	bcf	status, 6	;RP1=0, select bank1
  4533  03ED  00A8               	movwf	(sprintf@integ+1)^080h
  4534  03EE  1283               	bcf	status, 5	;RP0=0, select bank0
  4535  03EF  1303               	bcf	status, 6	;RP1=0, select bank0
  4536  03F0  0847               	movf	(2+(?_scale)),w
  4537  03F1  1683               	bsf	status, 5	;RP0=1, select bank1
  4538  03F2  1303               	bcf	status, 6	;RP1=0, select bank1
  4539  03F3  00A9               	movwf	(sprintf@integ+2)^080h
  4540                           	line	1129
  4541  03F4  2C11               	goto	l7566
  4542                           	
  4543  03F5                     l7564:	
  4544  03F5  0833               	movf	(sprintf@fval)^080h,w
  4545  03F6  00F0               	movwf	(?__div_to_l_)
  4546  03F7  0834               	movf	(sprintf@fval+1)^080h,w
  4547  03F8  00F1               	movwf	(?__div_to_l_+1)
  4548  03F9  0835               	movf	(sprintf@fval+2)^080h,w
  4549  03FA  00F2               	movwf	(?__div_to_l_+2)
  4550  03FB  0827               	movf	(sprintf@integ)^080h,w
  4551  03FC  00F3               	movwf	0+(?__div_to_l_)+03h
  4552  03FD  0828               	movf	(sprintf@integ+1)^080h,w
  4553  03FE  00F4               	movwf	1+(?__div_to_l_)+03h
  4554  03FF  0829               	movf	(sprintf@integ+2)^080h,w
  4555  0400  00F5               	movwf	2+(?__div_to_l_)+03h
  4556  0401  160A  118A  232C   	fcall	__div_to_l_
              120A  118A         
  4557  0406  0873               	movf	(3+(?__div_to_l_)),w
  4558  0407  1683               	bsf	status, 5	;RP0=1, select bank1
  4559  0408  1303               	bcf	status, 6	;RP1=0, select bank1
  4560  0409  00A3               	movwf	(_sprintf$2820+3)^080h
  4561  040A  0872               	movf	(2+(?__div_to_l_)),w
  4562  040B  00A2               	movwf	(_sprintf$2820+2)^080h
  4563  040C  0871               	movf	(1+(?__div_to_l_)),w
  4564  040D  00A1               	movwf	(_sprintf$2820+1)^080h
  4565  040E  0870               	movf	(0+(?__div_to_l_)),w
  4566  040F  00A0               	movwf	(_sprintf$2820)^080h
  4567                           
  4568  0410  2C2D               	goto	l7568
  4569                           	
  4570  0411                     l2192:	
  4571                           	
  4572  0411                     l7566:	
  4573  0411  0833               	movf	(sprintf@fval)^080h,w
  4574  0412  00F0               	movwf	(?__tdiv_to_l_)
  4575  0413  0834               	movf	(sprintf@fval+1)^080h,w
  4576  0414  00F1               	movwf	(?__tdiv_to_l_+1)
  4577  0415  0835               	movf	(sprintf@fval+2)^080h,w
  4578  0416  00F2               	movwf	(?__tdiv_to_l_+2)
  4579  0417  0827               	movf	(sprintf@integ)^080h,w
  4580  0418  00F3               	movwf	0+(?__tdiv_to_l_)+03h
  4581  0419  0828               	movf	(sprintf@integ+1)^080h,w
  4582  041A  00F4               	movwf	1+(?__tdiv_to_l_)+03h
  4583  041B  0829               	movf	(sprintf@integ+2)^080h,w
  4584  041C  00F5               	movwf	2+(?__tdiv_to_l_)+03h
  4585  041D  120A  158A  2031   	fcall	__tdiv_to_l_
              120A  118A         
  4586  0422  0873               	movf	(3+(?__tdiv_to_l_)),w
  4587  0423  1683               	bsf	status, 5	;RP0=1, select bank1
  4588  0424  1303               	bcf	status, 6	;RP1=0, select bank1
  4589  0425  00A3               	movwf	(_sprintf$2820+3)^080h
  4590  0426  0872               	movf	(2+(?__tdiv_to_l_)),w
  4591  0427  00A2               	movwf	(_sprintf$2820+2)^080h
  4592  0428  0871               	movf	(1+(?__tdiv_to_l_)),w
  4593  0429  00A1               	movwf	(_sprintf$2820+1)^080h
  4594  042A  0870               	movf	(0+(?__tdiv_to_l_)),w
  4595  042B  00A0               	movwf	(_sprintf$2820)^080h
  4596                           
  4597  042C  2C2D               	goto	l7568
  4598                           	
  4599  042D                     l2194:	
  4600                           	
  4601  042D                     l7568:	
  4602  042D  0823               	movf	(_sprintf$2820+3)^080h,w
  4603  042E  00AD               	movwf	(sprintf@_val+3)^080h
  4604  042F  0822               	movf	(_sprintf$2820+2)^080h,w
  4605  0430  00AC               	movwf	(sprintf@_val+2)^080h
  4606  0431  0821               	movf	(_sprintf$2820+1)^080h,w
  4607  0432  00AB               	movwf	(sprintf@_val+1)^080h
  4608  0433  0820               	movf	(_sprintf$2820)^080h,w
  4609  0434  00AA               	movwf	(sprintf@_val)^080h
  4610                           
  4611                           	line	1132
  4612                           	
  4613  0435                     l7570:	
  4614  0435  3000               	movlw	0x0
  4615  0436  00B3               	movwf	(sprintf@fval)^080h
  4616  0437  3000               	movlw	0x0
  4617  0438  00B4               	movwf	(sprintf@fval+1)^080h
  4618  0439  3000               	movlw	0x0
  4619  043A  00B5               	movwf	(sprintf@fval+2)^080h
  4620                           	line	1133
  4621  043B  2CAC               	goto	l7576
  4622                           	
  4623  043C                     l2186:	
  4624                           	line	1134
  4625                           	
  4626  043C                     l7572:	
  4627  043C  1683               	bsf	status, 5	;RP0=1, select bank1
  4628  043D  1303               	bcf	status, 6	;RP1=0, select bank1
  4629  043E  0833               	movf	(sprintf@fval)^080h,w
  4630  043F  1283               	bcf	status, 5	;RP0=0, select bank0
  4631  0440  1303               	bcf	status, 6	;RP1=0, select bank0
  4632  0441  00A7               	movwf	(?___fttol)
  4633  0442  1683               	bsf	status, 5	;RP0=1, select bank1
  4634  0443  1303               	bcf	status, 6	;RP1=0, select bank1
  4635  0444  0834               	movf	(sprintf@fval+1)^080h,w
  4636  0445  1283               	bcf	status, 5	;RP0=0, select bank0
  4637  0446  1303               	bcf	status, 6	;RP1=0, select bank0
  4638  0447  00A8               	movwf	(?___fttol+1)
  4639  0448  1683               	bsf	status, 5	;RP0=1, select bank1
  4640  0449  1303               	bcf	status, 6	;RP1=0, select bank1
  4641  044A  0835               	movf	(sprintf@fval+2)^080h,w
  4642  044B  1283               	bcf	status, 5	;RP0=0, select bank0
  4643  044C  1303               	bcf	status, 6	;RP1=0, select bank0
  4644  044D  00A9               	movwf	(?___fttol+2)
  4645  044E  160A  158A  26B2   	fcall	___fttol
              120A  118A         
  4646  0453  1283               	bcf	status, 5	;RP0=0, select bank0
  4647  0454  1303               	bcf	status, 6	;RP1=0, select bank0
  4648  0455  082A               	movf	(3+(?___fttol)),w
  4649  0456  1683               	bsf	status, 5	;RP0=1, select bank1
  4650  0457  1303               	bcf	status, 6	;RP1=0, select bank1
  4651  0458  00AD               	movwf	(sprintf@_val+3)^080h
  4652  0459  1283               	bcf	status, 5	;RP0=0, select bank0
  4653  045A  1303               	bcf	status, 6	;RP1=0, select bank0
  4654  045B  0829               	movf	(2+(?___fttol)),w
  4655  045C  1683               	bsf	status, 5	;RP0=1, select bank1
  4656  045D  1303               	bcf	status, 6	;RP1=0, select bank1
  4657  045E  00AC               	movwf	(sprintf@_val+2)^080h
  4658  045F  1283               	bcf	status, 5	;RP0=0, select bank0
  4659  0460  1303               	bcf	status, 6	;RP1=0, select bank0
  4660  0461  0828               	movf	(1+(?___fttol)),w
  4661  0462  1683               	bsf	status, 5	;RP0=1, select bank1
  4662  0463  1303               	bcf	status, 6	;RP1=0, select bank1
  4663  0464  00AB               	movwf	(sprintf@_val+1)^080h
  4664  0465  1283               	bcf	status, 5	;RP0=0, select bank0
  4665  0466  1303               	bcf	status, 6	;RP1=0, select bank0
  4666  0467  0827               	movf	(0+(?___fttol)),w
  4667  0468  1683               	bsf	status, 5	;RP0=1, select bank1
  4668  0469  1303               	bcf	status, 6	;RP1=0, select bank1
  4669  046A  00AA               	movwf	(sprintf@_val)^080h
  4670                           
  4671                           	line	1135
  4672  046B  082D               	movf	(sprintf@_val+3)^080h,w
  4673  046C  00FB               	movwf	(?___lltoft+3)
  4674  046D  082C               	movf	(sprintf@_val+2)^080h,w
  4675  046E  00FA               	movwf	(?___lltoft+2)
  4676  046F  082B               	movf	(sprintf@_val+1)^080h,w
  4677  0470  00F9               	movwf	(?___lltoft+1)
  4678  0471  082A               	movf	(sprintf@_val)^080h,w
  4679  0472  00F8               	movwf	(?___lltoft)
  4680                           
  4681  0473  160A  158A  2227   	fcall	___lltoft
              120A  118A         
  4682  0478  0878               	movf	(0+(?___lltoft)),w
  4683  0479  1283               	bcf	status, 5	;RP0=0, select bank0
  4684  047A  1303               	bcf	status, 6	;RP1=0, select bank0
  4685  047B  00D2               	movwf	(?___ftsub)
  4686  047C  0879               	movf	(1+(?___lltoft)),w
  4687  047D  00D3               	movwf	(?___ftsub+1)
  4688  047E  087A               	movf	(2+(?___lltoft)),w
  4689  047F  00D4               	movwf	(?___ftsub+2)
  4690  0480  1683               	bsf	status, 5	;RP0=1, select bank1
  4691  0481  1303               	bcf	status, 6	;RP1=0, select bank1
  4692  0482  0833               	movf	(sprintf@fval)^080h,w
  4693  0483  1283               	bcf	status, 5	;RP0=0, select bank0
  4694  0484  1303               	bcf	status, 6	;RP1=0, select bank0
  4695  0485  00D5               	movwf	0+(?___ftsub)+03h
  4696  0486  1683               	bsf	status, 5	;RP0=1, select bank1
  4697  0487  1303               	bcf	status, 6	;RP1=0, select bank1
  4698  0488  0834               	movf	(sprintf@fval+1)^080h,w
  4699  0489  1283               	bcf	status, 5	;RP0=0, select bank0
  4700  048A  1303               	bcf	status, 6	;RP1=0, select bank0
  4701  048B  00D6               	movwf	1+(?___ftsub)+03h
  4702  048C  1683               	bsf	status, 5	;RP0=1, select bank1
  4703  048D  1303               	bcf	status, 6	;RP1=0, select bank1
  4704  048E  0835               	movf	(sprintf@fval+2)^080h,w
  4705  048F  1283               	bcf	status, 5	;RP0=0, select bank0
  4706  0490  1303               	bcf	status, 6	;RP1=0, select bank0
  4707  0491  00D7               	movwf	2+(?___ftsub)+03h
  4708  0492  160A  158A  2191   	fcall	___ftsub
              120A  118A         
  4709  0497  1283               	bcf	status, 5	;RP0=0, select bank0
  4710  0498  1303               	bcf	status, 6	;RP1=0, select bank0
  4711  0499  0852               	movf	(0+(?___ftsub)),w
  4712  049A  1683               	bsf	status, 5	;RP0=1, select bank1
  4713  049B  1303               	bcf	status, 6	;RP1=0, select bank1
  4714  049C  00B3               	movwf	(sprintf@fval)^080h
  4715  049D  1283               	bcf	status, 5	;RP0=0, select bank0
  4716  049E  1303               	bcf	status, 6	;RP1=0, select bank0
  4717  049F  0853               	movf	(1+(?___ftsub)),w
  4718  04A0  1683               	bsf	status, 5	;RP0=1, select bank1
  4719  04A1  1303               	bcf	status, 6	;RP1=0, select bank1
  4720  04A2  00B4               	movwf	(sprintf@fval+1)^080h
  4721  04A3  1283               	bcf	status, 5	;RP0=0, select bank0
  4722  04A4  1303               	bcf	status, 6	;RP1=0, select bank0
  4723  04A5  0854               	movf	(2+(?___ftsub)),w
  4724  04A6  1683               	bsf	status, 5	;RP0=1, select bank1
  4725  04A7  1303               	bcf	status, 6	;RP1=0, select bank1
  4726  04A8  00B5               	movwf	(sprintf@fval+2)^080h
  4727                           	line	1136
  4728                           	
  4729  04A9                     l7574:	
  4730  04A9  01AE               	clrf	(sprintf@exp)^080h
  4731  04AA  01AF               	clrf	(sprintf@exp+1)^080h
  4732  04AB  2CAC               	goto	l7576
  4733                           	line	1137
  4734                           	
  4735  04AC                     l2195:	
  4736                           	line	1139
  4737                           	
  4738  04AC                     l7576:	
  4739  04AC  01B6               	clrf	(sprintf@c)^080h
  4740  04AD  1403               	bsf	status,0
  4741  04AE  0DB6               	rlf	(sprintf@c)^080h,f
  4742                           	
  4743  04AF                     l7578:	
  4744  04AF  0836               	movf	(sprintf@c)^080h,w
  4745  04B0  3A0A               	xorlw	0Ah
  4746  04B1  1D03               	skipz
  4747  04B2  2CB4               	goto	u5971
  4748  04B3  2CB5               	goto	u5970
  4749  04B4                     u5971:
  4750  04B4  2CB7               	goto	l7582
  4751  04B5                     u5970:
  4752  04B5  2D0E               	goto	l7590
  4753                           	
  4754  04B6                     l7580:	
  4755  04B6  2D0E               	goto	l7590
  4756                           	line	1140
  4757                           	
  4758  04B7                     l2196:	
  4759                           	
  4760  04B7                     l7582:	
  4761  04B7  0836               	movf	(sprintf@c)^080h,w
  4762  04B8  1283               	bcf	status, 5	;RP0=0, select bank0
  4763  04B9  1303               	bcf	status, 6	;RP1=0, select bank0
  4764  04BA  00E6               	movwf	(??_sprintf+0)+0
  4765  04BB  3001               	movlw	(02h)-1
  4766  04BC                     u5985:
  4767  04BC  1003               	clrc
  4768  04BD  0DE6               	rlf	(??_sprintf+0)+0,f
  4769  04BE  3EFF               	addlw	-1
  4770  04BF  1D03               	skipz
  4771  04C0  2CBC               	goto	u5985
  4772  04C1  1003               	clrc
  4773  04C2  0D66               	rlf	(??_sprintf+0)+0,w
  4774  04C3  3E01               	addlw	low((_dpowers-__stringbase))
  4775  04C4  0084               	movwf	fsr0
  4776  04C5  160A  118A  2000   	fcall	stringdir
              120A  118A         
  4777  04CA  00E7               	movwf	((??_sprintf+1)+0)
  4778  04CB  160A  118A  2000   	fcall	stringdir
              120A  118A         
  4779  04D0  00E8               	movwf	((??_sprintf+1)+0+1)
  4780  04D1  160A  118A  2000   	fcall	stringdir
              120A  118A         
  4781  04D6  00E9               	movwf	((??_sprintf+1)+0+2)
  4782  04D7  160A  118A  2000   	fcall	stringdir
              120A  118A         
  4783  04DC  00EA               	movwf	((??_sprintf+1)+0+3)
  4784  04DD  086A               	movf	3+(??_sprintf+1)+0,w
  4785  04DE  1683               	bsf	status, 5	;RP0=1, select bank1
  4786  04DF  1303               	bcf	status, 6	;RP1=0, select bank1
  4787  04E0  022D               	subwf	(sprintf@_val+3)^080h,w
  4788  04E1  1D03               	skipz
  4789  04E2  2CF9               	goto	u5995
  4790  04E3  1283               	bcf	status, 5	;RP0=0, select bank0
  4791  04E4  1303               	bcf	status, 6	;RP1=0, select bank0
  4792  04E5  0869               	movf	2+(??_sprintf+1)+0,w
  4793  04E6  1683               	bsf	status, 5	;RP0=1, select bank1
  4794  04E7  1303               	bcf	status, 6	;RP1=0, select bank1
  4795  04E8  022C               	subwf	(sprintf@_val+2)^080h,w
  4796  04E9  1D03               	skipz
  4797  04EA  2CF9               	goto	u5995
  4798  04EB  1283               	bcf	status, 5	;RP0=0, select bank0
  4799  04EC  1303               	bcf	status, 6	;RP1=0, select bank0
  4800  04ED  0868               	movf	1+(??_sprintf+1)+0,w
  4801  04EE  1683               	bsf	status, 5	;RP0=1, select bank1
  4802  04EF  1303               	bcf	status, 6	;RP1=0, select bank1
  4803  04F0  022B               	subwf	(sprintf@_val+1)^080h,w
  4804  04F1  1D03               	skipz
  4805  04F2  2CF9               	goto	u5995
  4806  04F3  1283               	bcf	status, 5	;RP0=0, select bank0
  4807  04F4  1303               	bcf	status, 6	;RP1=0, select bank0
  4808  04F5  0867               	movf	0+(??_sprintf+1)+0,w
  4809  04F6  1683               	bsf	status, 5	;RP0=1, select bank1
  4810  04F7  1303               	bcf	status, 6	;RP1=0, select bank1
  4811  04F8  022A               	subwf	(sprintf@_val)^080h,w
  4812  04F9                     u5995:
  4813  04F9  1803               	skipnc
  4814  04FA  2CFC               	goto	u5991
  4815  04FB  2CFD               	goto	u5990
  4816  04FC                     u5991:
  4817  04FC  2CFF               	goto	l7586
  4818  04FD                     u5990:
  4819  04FD  2D0E               	goto	l7590
  4820                           	line	1141
  4821                           	
  4822  04FE                     l7584:	
  4823  04FE  2D0E               	goto	l7590
  4824                           	
  4825  04FF                     l2198:	
  4826                           	line	1139
  4827                           	
  4828  04FF                     l7586:	
  4829  04FF  3001               	movlw	(01h)
  4830  0500  1283               	bcf	status, 5	;RP0=0, select bank0
  4831  0501  1303               	bcf	status, 6	;RP1=0, select bank0
  4832  0502  00E6               	movwf	(??_sprintf+0)+0
  4833  0503  0866               	movf	(??_sprintf+0)+0,w
  4834  0504  1683               	bsf	status, 5	;RP0=1, select bank1
  4835  0505  1303               	bcf	status, 6	;RP1=0, select bank1
  4836  0506  07B6               	addwf	(sprintf@c)^080h,f
  4837                           	
  4838  0507                     l7588:	
  4839  0507  0836               	movf	(sprintf@c)^080h,w
  4840  0508  3A0A               	xorlw	0Ah
  4841  0509  1D03               	skipz
  4842  050A  2D0C               	goto	u6001
  4843  050B  2D0D               	goto	u6000
  4844  050C                     u6001:
  4845  050C  2CB7               	goto	l7582
  4846  050D                     u6000:
  4847  050D  2D0E               	goto	l7590
  4848                           	
  4849  050E                     l2197:	
  4850                           	line	1189
  4851                           	
  4852  050E                     l7590:	
  4853  050E  3003               	movlw	low(03h)
  4854  050F  0525               	andwf	(sprintf@flag)^080h,w
  4855  0510  1283               	bcf	status, 5	;RP0=0, select bank0
  4856  0511  1303               	bcf	status, 6	;RP1=0, select bank0
  4857  0512  00E6               	movwf	(??_sprintf+0)+0
  4858  0513  3000               	movlw	high(03h)
  4859  0514  1683               	bsf	status, 5	;RP0=1, select bank1
  4860  0515  1303               	bcf	status, 6	;RP1=0, select bank1
  4861  0516  0526               	andwf	(sprintf@flag+1)^080h,w
  4862  0517  1283               	bcf	status, 5	;RP0=0, select bank0
  4863  0518  1303               	bcf	status, 6	;RP1=0, select bank0
  4864  0519  00E7               	movwf	1+(??_sprintf+0)+0
  4865  051A  0867               	movf	1+(??_sprintf+0)+0,w
  4866  051B  0466               	iorwf	0+(??_sprintf+0)+0,w
  4867  051C  1903               	skipnz
  4868  051D  2D1F               	goto	u6011
  4869  051E  2D20               	goto	u6010
  4870  051F                     u6011:
  4871  051F  2D98               	goto	l7600
  4872  0520                     u6010:
  4873                           	line	1191
  4874                           	
  4875  0520                     l7592:	
  4876  0520  302D               	movlw	(02Dh)
  4877  0521  00E6               	movwf	(??_sprintf+0)+0
  4878  0522  1683               	bsf	status, 5	;RP0=1, select bank1
  4879  0523  1303               	bcf	status, 6	;RP1=0, select bank1
  4880  0524  0830               	movf	(sprintf@sp)^080h,w
  4881  0525  0084               	movwf	fsr0
  4882  0526  1283               	bcf	status, 5	;RP0=0, select bank0
  4883  0527  1303               	bcf	status, 6	;RP1=0, select bank0
  4884  0528  0866               	movf	(??_sprintf+0)+0,w
  4885  0529  1383               	bcf	status, 7	;select IRP bank0
  4886  052A  0080               	movwf	indf
  4887                           	
  4888  052B                     l7594:	
  4889  052B  3001               	movlw	(01h)
  4890  052C  00E6               	movwf	(??_sprintf+0)+0
  4891  052D  0866               	movf	(??_sprintf+0)+0,w
  4892  052E  1683               	bsf	status, 5	;RP0=1, select bank1
  4893  052F  1303               	bcf	status, 6	;RP1=0, select bank1
  4894  0530  07B0               	addwf	(sprintf@sp)^080h,f
  4895  0531  2D98               	goto	l7600
  4896                           	
  4897  0532                     l2199:	
  4898                           	line	1197
  4899  0532  2D98               	goto	l7600
  4900                           	
  4901  0533                     l2201:	
  4902                           	line	1201
  4903                           	
  4904  0533                     l7596:	
  4905  0533  3000               	movlw	0
  4906  0534  1283               	bcf	status, 5	;RP0=0, select bank0
  4907  0535  1303               	bcf	status, 6	;RP1=0, select bank0
  4908  0536  00A3               	movwf	(?___llmod+3)
  4909  0537  3000               	movlw	0
  4910  0538  00A2               	movwf	(?___llmod+2)
  4911  0539  3000               	movlw	0
  4912  053A  00A1               	movwf	(?___llmod+1)
  4913  053B  300A               	movlw	0Ah
  4914  053C  00A0               	movwf	(?___llmod)
  4915                           
  4916  053D  1683               	bsf	status, 5	;RP0=1, select bank1
  4917  053E  1303               	bcf	status, 6	;RP1=0, select bank1
  4918  053F  0836               	movf	(sprintf@c)^080h,w
  4919  0540  1283               	bcf	status, 5	;RP0=0, select bank0
  4920  0541  1303               	bcf	status, 6	;RP1=0, select bank0
  4921  0542  00E6               	movwf	(??_sprintf+0)+0
  4922  0543  3001               	movlw	(02h)-1
  4923  0544                     u6025:
  4924  0544  1003               	clrc
  4925  0545  0DE6               	rlf	(??_sprintf+0)+0,f
  4926  0546  3EFF               	addlw	-1
  4927  0547  1D03               	skipz
  4928  0548  2D44               	goto	u6025
  4929  0549  1003               	clrc
  4930  054A  0D66               	rlf	(??_sprintf+0)+0,w
  4931  054B  3E01               	addlw	low((_dpowers-__stringbase))
  4932  054C  0084               	movwf	fsr0
  4933  054D  160A  118A  2000   	fcall	stringdir
              120A  118A         
  4934  0552  00F0               	movwf	(?___lldiv)
  4935  0553  160A  118A  2000   	fcall	stringdir
              120A  118A         
  4936  0558  00F1               	movwf	(?___lldiv+1)
  4937  0559  160A  118A  2000   	fcall	stringdir
              120A  118A         
  4938  055E  00F2               	movwf	(?___lldiv+2)
  4939  055F  160A  118A  2000   	fcall	stringdir
              120A  118A         
  4940  0564  00F3               	movwf	(?___lldiv+3)
  4941  0565  1683               	bsf	status, 5	;RP0=1, select bank1
  4942  0566  1303               	bcf	status, 6	;RP1=0, select bank1
  4943  0567  082D               	movf	(sprintf@_val+3)^080h,w
  4944  0568  00F7               	movwf	3+(?___lldiv)+04h
  4945  0569  082C               	movf	(sprintf@_val+2)^080h,w
  4946  056A  00F6               	movwf	2+(?___lldiv)+04h
  4947  056B  082B               	movf	(sprintf@_val+1)^080h,w
  4948  056C  00F5               	movwf	1+(?___lldiv)+04h
  4949  056D  082A               	movf	(sprintf@_val)^080h,w
  4950  056E  00F4               	movwf	0+(?___lldiv)+04h
  4951                           
  4952  056F  160A  158A  2454   	fcall	___lldiv
              120A  118A         
  4953  0574  0873               	movf	(3+(?___lldiv)),w
  4954  0575  1283               	bcf	status, 5	;RP0=0, select bank0
  4955  0576  1303               	bcf	status, 6	;RP1=0, select bank0
  4956  0577  00A7               	movwf	3+(?___llmod)+04h
  4957  0578  0872               	movf	(2+(?___lldiv)),w
  4958  0579  00A6               	movwf	2+(?___llmod)+04h
  4959  057A  0871               	movf	(1+(?___lldiv)),w
  4960  057B  00A5               	movwf	1+(?___llmod)+04h
  4961  057C  0870               	movf	(0+(?___lldiv)),w
  4962  057D  00A4               	movwf	0+(?___llmod)+04h
  4963                           
  4964  057E  160A  158A  2324   	fcall	___llmod
              120A  118A         
  4965  0583  1283               	bcf	status, 5	;RP0=0, select bank0
  4966  0584  1303               	bcf	status, 6	;RP1=0, select bank0
  4967  0585  0820               	movf	0+(((0+(?___llmod)))),w
  4968  0586  3E30               	addlw	030h
  4969  0587  00E7               	movwf	(??_sprintf+1)+0
  4970  0588  1683               	bsf	status, 5	;RP0=1, select bank1
  4971  0589  1303               	bcf	status, 6	;RP1=0, select bank1
  4972  058A  0830               	movf	(sprintf@sp)^080h,w
  4973  058B  0084               	movwf	fsr0
  4974  058C  1283               	bcf	status, 5	;RP0=0, select bank0
  4975  058D  1303               	bcf	status, 6	;RP1=0, select bank0
  4976  058E  0867               	movf	(??_sprintf+1)+0,w
  4977  058F  1383               	bcf	status, 7	;select IRP bank0
  4978  0590  0080               	movwf	indf
  4979                           	
  4980  0591                     l7598:	
  4981  0591  3001               	movlw	(01h)
  4982  0592  00E6               	movwf	(??_sprintf+0)+0
  4983  0593  0866               	movf	(??_sprintf+0)+0,w
  4984  0594  1683               	bsf	status, 5	;RP0=1, select bank1
  4985  0595  1303               	bcf	status, 6	;RP1=0, select bank1
  4986  0596  07B0               	addwf	(sprintf@sp)^080h,f
  4987  0597  2D98               	goto	l7600
  4988                           	line	1203
  4989                           	
  4990  0598                     l2200:	
  4991                           	line	1197
  4992                           	
  4993  0598                     l7600:	
  4994  0598  30FF               	movlw	(-1)
  4995  0599  1283               	bcf	status, 5	;RP0=0, select bank0
  4996  059A  00E6               	movwf	(??_sprintf+0)+0
  4997  059B  0866               	movf	(??_sprintf+0)+0,w
  4998  059C  1683               	bsf	status, 5	;RP0=1, select bank1
  4999  059D  1303               	bcf	status, 6	;RP1=0, select bank1
  5000  059E  07B6               	addwf	(sprintf@c)^080h,f
  5001  059F  0836               	movf	((sprintf@c)^080h),w
  5002  05A0  3AFF               	xorlw	-1
  5003  05A1  1D03               	skipz
  5004  05A2  2DA4               	goto	u6031
  5005  05A3  2DA5               	goto	u6030
  5006  05A4                     u6031:
  5007  05A4  2D33               	goto	l7596
  5008  05A5                     u6030:
  5009  05A5  2DC1               	goto	l7608
  5010                           	
  5011  05A6                     l2202:	
  5012                           	line	1204
  5013  05A6  2DC1               	goto	l7608
  5014                           	
  5015  05A7                     l2204:	
  5016                           	line	1205
  5017                           	
  5018  05A7                     l7602:	
  5019  05A7  3030               	movlw	(030h)
  5020  05A8  1283               	bcf	status, 5	;RP0=0, select bank0
  5021  05A9  1303               	bcf	status, 6	;RP1=0, select bank0
  5022  05AA  00E6               	movwf	(??_sprintf+0)+0
  5023  05AB  1683               	bsf	status, 5	;RP0=1, select bank1
  5024  05AC  1303               	bcf	status, 6	;RP1=0, select bank1
  5025  05AD  0830               	movf	(sprintf@sp)^080h,w
  5026  05AE  0084               	movwf	fsr0
  5027  05AF  1283               	bcf	status, 5	;RP0=0, select bank0
  5028  05B0  1303               	bcf	status, 6	;RP1=0, select bank0
  5029  05B1  0866               	movf	(??_sprintf+0)+0,w
  5030  05B2  1383               	bcf	status, 7	;select IRP bank0
  5031  05B3  0080               	movwf	indf
  5032                           	
  5033  05B4                     l7604:	
  5034  05B4  3001               	movlw	(01h)
  5035  05B5  00E6               	movwf	(??_sprintf+0)+0
  5036  05B6  0866               	movf	(??_sprintf+0)+0,w
  5037  05B7  1683               	bsf	status, 5	;RP0=1, select bank1
  5038  05B8  1303               	bcf	status, 6	;RP1=0, select bank1
  5039  05B9  07B0               	addwf	(sprintf@sp)^080h,f
  5040                           	line	1206
  5041                           	
  5042  05BA                     l7606:	
  5043  05BA  30FF               	movlw	low(-1)
  5044  05BB  07AE               	addwf	(sprintf@exp)^080h,f
  5045  05BC  1803               	skipnc
  5046  05BD  0AAF               	incf	(sprintf@exp+1)^080h,f
  5047  05BE  30FF               	movlw	high(-1)
  5048  05BF  07AF               	addwf	(sprintf@exp+1)^080h,f
  5049  05C0  2DC1               	goto	l7608
  5050                           	line	1207
  5051                           	
  5052  05C1                     l2203:	
  5053                           	line	1204
  5054                           	
  5055  05C1                     l7608:	
  5056  05C1  082F               	movf	(sprintf@exp+1)^080h,w
  5057  05C2  3A80               	xorlw	80h
  5058  05C3  00FF               	movwf	btemp+1
  5059  05C4  3080               	movlw	(high(01h))^80h
  5060  05C5  027F               	subwf	btemp+1,w
  5061  05C6  1D03               	skipz
  5062  05C7  2DCA               	goto	u6045
  5063  05C8  3001               	movlw	low(01h)
  5064  05C9  022E               	subwf	(sprintf@exp)^080h,w
  5065  05CA                     u6045:
  5066                           
  5067  05CA  1803               	skipnc
  5068  05CB  2DCD               	goto	u6041
  5069  05CC  2DCE               	goto	u6040
  5070  05CD                     u6041:
  5071  05CD  2DA7               	goto	l7602
  5072  05CE                     u6040:
  5073  05CE  2DCF               	goto	l7610
  5074                           	
  5075  05CF                     l2205:	
  5076                           	line	1208
  5077                           	
  5078  05CF                     l7610:	
  5079  05CF  1683               	bsf	status, 5	;RP0=1, select bank1
  5080  05D0  1303               	bcf	status, 6	;RP1=0, select bank1
  5081  05D1  0832               	movf	(sprintf@prec+1)^080h,w
  5082  05D2  3A80               	xorlw	80h
  5083  05D3  00FF               	movwf	btemp+1
  5084  05D4  3080               	movlw	(high(09h))^80h
  5085  05D5  027F               	subwf	btemp+1,w
  5086  05D6  1D03               	skipz
  5087  05D7  2DDA               	goto	u6055
  5088  05D8  3009               	movlw	low(09h)
  5089  05D9  0231               	subwf	(sprintf@prec)^080h,w
  5090  05DA                     u6055:
  5091                           
  5092  05DA  1C03               	skipc
  5093  05DB  2DDD               	goto	u6051
  5094  05DC  2DDE               	goto	u6050
  5095  05DD                     u6051:
  5096  05DD  2DE7               	goto	l7614
  5097  05DE                     u6050:
  5098                           	line	1209
  5099                           	
  5100  05DE                     l7612:	
  5101  05DE  3008               	movlw	(08h)
  5102  05DF  1283               	bcf	status, 5	;RP0=0, select bank0
  5103  05E0  1303               	bcf	status, 6	;RP1=0, select bank0
  5104  05E1  00E6               	movwf	(??_sprintf+0)+0
  5105  05E2  0866               	movf	(??_sprintf+0)+0,w
  5106  05E3  1683               	bsf	status, 5	;RP0=1, select bank1
  5107  05E4  1303               	bcf	status, 6	;RP1=0, select bank1
  5108  05E5  00B6               	movwf	(sprintf@c)^080h
  5109  05E6  2DF1               	goto	l2207
  5110                           	line	1210
  5111                           	
  5112  05E7                     l2206:	
  5113                           	line	1211
  5114                           	
  5115  05E7                     l7614:	
  5116  05E7  1683               	bsf	status, 5	;RP0=1, select bank1
  5117  05E8  1303               	bcf	status, 6	;RP1=0, select bank1
  5118  05E9  0831               	movf	(sprintf@prec)^080h,w
  5119  05EA  1283               	bcf	status, 5	;RP0=0, select bank0
  5120  05EB  1303               	bcf	status, 6	;RP1=0, select bank0
  5121  05EC  00E6               	movwf	(??_sprintf+0)+0
  5122  05ED  0866               	movf	(??_sprintf+0)+0,w
  5123  05EE  1683               	bsf	status, 5	;RP0=1, select bank1
  5124  05EF  1303               	bcf	status, 6	;RP1=0, select bank1
  5125  05F0  00B6               	movwf	(sprintf@c)^080h
  5126                           	
  5127  05F1                     l2207:	
  5128                           	line	1212
  5129  05F1  0836               	movf	(sprintf@c)^080h,w
  5130  05F2  1283               	bcf	status, 5	;RP0=0, select bank0
  5131  05F3  1303               	bcf	status, 6	;RP1=0, select bank0
  5132  05F4  00E6               	movwf	(??_sprintf+0)+0
  5133  05F5  01E7               	clrf	(??_sprintf+0)+0+1
  5134  05F6  1BE6               	btfsc	(??_sprintf+0)+0,7
  5135  05F7  03E7               	decf	(??_sprintf+0)+0+1,f
  5136  05F8  0866               	movf	0+(??_sprintf+0)+0,w
  5137  05F9  1683               	bsf	status, 5	;RP0=1, select bank1
  5138  05FA  1303               	bcf	status, 6	;RP1=0, select bank1
  5139  05FB  02B1               	subwf	(sprintf@prec)^080h,f
  5140  05FC  1283               	bcf	status, 5	;RP0=0, select bank0
  5141  05FD  1303               	bcf	status, 6	;RP1=0, select bank0
  5142  05FE  0867               	movf	1+(??_sprintf+0)+0,w
  5143  05FF  1683               	bsf	status, 5	;RP0=1, select bank1
  5144  0600  1303               	bcf	status, 6	;RP1=0, select bank1
  5145  0601  1C03               	skipc
  5146  0602  03B2               	decf	(sprintf@prec+1)^080h,f
  5147  0603  02B2               	subwf	(sprintf@prec+1)^080h,f
  5148                           	line	1216
  5149  0604  0836               	movf	(sprintf@c)^080h,w
  5150  0605  1D03               	skipz
  5151  0606  2E08               	goto	u6060
  5152  0607  2E1C               	goto	l7620
  5153  0608                     u6060:
  5154                           	line	1218
  5155                           	
  5156  0608                     l7616:	
  5157  0608  302E               	movlw	(02Eh)
  5158  0609  1283               	bcf	status, 5	;RP0=0, select bank0
  5159  060A  1303               	bcf	status, 6	;RP1=0, select bank0
  5160  060B  00E6               	movwf	(??_sprintf+0)+0
  5161  060C  1683               	bsf	status, 5	;RP0=1, select bank1
  5162  060D  1303               	bcf	status, 6	;RP1=0, select bank1
  5163  060E  0830               	movf	(sprintf@sp)^080h,w
  5164  060F  0084               	movwf	fsr0
  5165  0610  1283               	bcf	status, 5	;RP0=0, select bank0
  5166  0611  1303               	bcf	status, 6	;RP1=0, select bank0
  5167  0612  0866               	movf	(??_sprintf+0)+0,w
  5168  0613  1383               	bcf	status, 7	;select IRP bank0
  5169  0614  0080               	movwf	indf
  5170                           	
  5171  0615                     l7618:	
  5172  0615  3001               	movlw	(01h)
  5173  0616  00E6               	movwf	(??_sprintf+0)+0
  5174  0617  0866               	movf	(??_sprintf+0)+0,w
  5175  0618  1683               	bsf	status, 5	;RP0=1, select bank1
  5176  0619  1303               	bcf	status, 6	;RP1=0, select bank1
  5177  061A  07B0               	addwf	(sprintf@sp)^080h,f
  5178  061B  2E1C               	goto	l7620
  5179                           	
  5180  061C                     l2208:	
  5181                           	line	1224
  5182                           	
  5183  061C                     l7620:	
  5184  061C  0836               	movf	(sprintf@c)^080h,w
  5185  061D  120A  158A  2113   	fcall	_scale
              120A  118A         
  5186  0622  1283               	bcf	status, 5	;RP0=0, select bank0
  5187  0623  1303               	bcf	status, 6	;RP1=0, select bank0
  5188  0624  0845               	movf	(0+(?_scale)),w
  5189  0625  00B8               	movwf	0+(?___ftmul)+03h
  5190  0626  0846               	movf	(1+(?_scale)),w
  5191  0627  00B9               	movwf	1+(?___ftmul)+03h
  5192  0628  0847               	movf	(2+(?_scale)),w
  5193  0629  00BA               	movwf	2+(?___ftmul)+03h
  5194  062A  1683               	bsf	status, 5	;RP0=1, select bank1
  5195  062B  1303               	bcf	status, 6	;RP1=0, select bank1
  5196  062C  0833               	movf	(sprintf@fval)^080h,w
  5197  062D  1283               	bcf	status, 5	;RP0=0, select bank0
  5198  062E  1303               	bcf	status, 6	;RP1=0, select bank0
  5199  062F  00B5               	movwf	(?___ftmul)
  5200  0630  1683               	bsf	status, 5	;RP0=1, select bank1
  5201  0631  1303               	bcf	status, 6	;RP1=0, select bank1
  5202  0632  0834               	movf	(sprintf@fval+1)^080h,w
  5203  0633  1283               	bcf	status, 5	;RP0=0, select bank0
  5204  0634  1303               	bcf	status, 6	;RP1=0, select bank0
  5205  0635  00B6               	movwf	(?___ftmul+1)
  5206  0636  1683               	bsf	status, 5	;RP0=1, select bank1
  5207  0637  1303               	bcf	status, 6	;RP1=0, select bank1
  5208  0638  0835               	movf	(sprintf@fval+2)^080h,w
  5209  0639  1283               	bcf	status, 5	;RP0=0, select bank0
  5210  063A  1303               	bcf	status, 6	;RP1=0, select bank0
  5211  063B  00B7               	movwf	(?___ftmul+2)
  5212  063C  120A  118A  201E   	fcall	___ftmul
              120A  118A         
  5213  0641  1283               	bcf	status, 5	;RP0=0, select bank0
  5214  0642  1303               	bcf	status, 6	;RP1=0, select bank0
  5215  0643  0835               	movf	(0+(?___ftmul)),w
  5216  0644  00A7               	movwf	(?___fttol)
  5217  0645  0836               	movf	(1+(?___ftmul)),w
  5218  0646  00A8               	movwf	(?___fttol+1)
  5219  0647  0837               	movf	(2+(?___ftmul)),w
  5220  0648  00A9               	movwf	(?___fttol+2)
  5221  0649  160A  158A  26B2   	fcall	___fttol
              120A  118A         
  5222  064E  1283               	bcf	status, 5	;RP0=0, select bank0
  5223  064F  1303               	bcf	status, 6	;RP1=0, select bank0
  5224  0650  082A               	movf	(3+(?___fttol)),w
  5225  0651  1683               	bsf	status, 5	;RP0=1, select bank1
  5226  0652  1303               	bcf	status, 6	;RP1=0, select bank1
  5227  0653  00AD               	movwf	(sprintf@_val+3)^080h
  5228  0654  1283               	bcf	status, 5	;RP0=0, select bank0
  5229  0655  1303               	bcf	status, 6	;RP1=0, select bank0
  5230  0656  0829               	movf	(2+(?___fttol)),w
  5231  0657  1683               	bsf	status, 5	;RP0=1, select bank1
  5232  0658  1303               	bcf	status, 6	;RP1=0, select bank1
  5233  0659  00AC               	movwf	(sprintf@_val+2)^080h
  5234  065A  1283               	bcf	status, 5	;RP0=0, select bank0
  5235  065B  1303               	bcf	status, 6	;RP1=0, select bank0
  5236  065C  0828               	movf	(1+(?___fttol)),w
  5237  065D  1683               	bsf	status, 5	;RP0=1, select bank1
  5238  065E  1303               	bcf	status, 6	;RP1=0, select bank1
  5239  065F  00AB               	movwf	(sprintf@_val+1)^080h
  5240  0660  1283               	bcf	status, 5	;RP0=0, select bank0
  5241  0661  1303               	bcf	status, 6	;RP1=0, select bank0
  5242  0662  0827               	movf	(0+(?___fttol)),w
  5243  0663  1683               	bsf	status, 5	;RP0=1, select bank1
  5244  0664  1303               	bcf	status, 6	;RP1=0, select bank1
  5245  0665  00AA               	movwf	(sprintf@_val)^080h
  5246                           
  5247                           	line	1225
  5248  0666  2F26               	goto	l2209
  5249                           	
  5250  0667                     l2210:	
  5251                           	line	1226
  5252                           	
  5253  0667                     l7622:	
  5254  0667  3000               	movlw	0
  5255  0668  1283               	bcf	status, 5	;RP0=0, select bank0
  5256  0669  1303               	bcf	status, 6	;RP1=0, select bank0
  5257  066A  00A3               	movwf	(?___llmod+3)
  5258  066B  3000               	movlw	0
  5259  066C  00A2               	movwf	(?___llmod+2)
  5260  066D  3000               	movlw	0
  5261  066E  00A1               	movwf	(?___llmod+1)
  5262  066F  300A               	movlw	0Ah
  5263  0670  00A0               	movwf	(?___llmod)
  5264                           
  5265  0671  1683               	bsf	status, 5	;RP0=1, select bank1
  5266  0672  1303               	bcf	status, 6	;RP1=0, select bank1
  5267  0673  0836               	movf	(sprintf@c)^080h,w
  5268  0674  1283               	bcf	status, 5	;RP0=0, select bank0
  5269  0675  1303               	bcf	status, 6	;RP1=0, select bank0
  5270  0676  00E6               	movwf	(??_sprintf+0)+0
  5271  0677  3001               	movlw	(02h)-1
  5272  0678                     u6075:
  5273  0678  1003               	clrc
  5274  0679  0DE6               	rlf	(??_sprintf+0)+0,f
  5275  067A  3EFF               	addlw	-1
  5276  067B  1D03               	skipz
  5277  067C  2E78               	goto	u6075
  5278  067D  1003               	clrc
  5279  067E  0D66               	rlf	(??_sprintf+0)+0,w
  5280  067F  3E01               	addlw	low((_dpowers-__stringbase))
  5281  0680  0084               	movwf	fsr0
  5282  0681  160A  118A  2000   	fcall	stringdir
              120A  118A         
  5283  0686  00F0               	movwf	(?___lldiv)
  5284  0687  160A  118A  2000   	fcall	stringdir
              120A  118A         
  5285  068C  00F1               	movwf	(?___lldiv+1)
  5286  068D  160A  118A  2000   	fcall	stringdir
              120A  118A         
  5287  0692  00F2               	movwf	(?___lldiv+2)
  5288  0693  160A  118A  2000   	fcall	stringdir
              120A  118A         
  5289  0698  00F3               	movwf	(?___lldiv+3)
  5290  0699  1683               	bsf	status, 5	;RP0=1, select bank1
  5291  069A  1303               	bcf	status, 6	;RP1=0, select bank1
  5292  069B  082D               	movf	(sprintf@_val+3)^080h,w
  5293  069C  00F7               	movwf	3+(?___lldiv)+04h
  5294  069D  082C               	movf	(sprintf@_val+2)^080h,w
  5295  069E  00F6               	movwf	2+(?___lldiv)+04h
  5296  069F  082B               	movf	(sprintf@_val+1)^080h,w
  5297  06A0  00F5               	movwf	1+(?___lldiv)+04h
  5298  06A1  082A               	movf	(sprintf@_val)^080h,w
  5299  06A2  00F4               	movwf	0+(?___lldiv)+04h
  5300                           
  5301  06A3  160A  158A  2454   	fcall	___lldiv
              120A  118A         
  5302  06A8  0873               	movf	(3+(?___lldiv)),w
  5303  06A9  1283               	bcf	status, 5	;RP0=0, select bank0
  5304  06AA  1303               	bcf	status, 6	;RP1=0, select bank0
  5305  06AB  00A7               	movwf	3+(?___llmod)+04h
  5306  06AC  0872               	movf	(2+(?___lldiv)),w
  5307  06AD  00A6               	movwf	2+(?___llmod)+04h
  5308  06AE  0871               	movf	(1+(?___lldiv)),w
  5309  06AF  00A5               	movwf	1+(?___llmod)+04h
  5310  06B0  0870               	movf	(0+(?___lldiv)),w
  5311  06B1  00A4               	movwf	0+(?___llmod)+04h
  5312                           
  5313  06B2  160A  158A  2324   	fcall	___llmod
              120A  118A         
  5314  06B7  1283               	bcf	status, 5	;RP0=0, select bank0
  5315  06B8  1303               	bcf	status, 6	;RP1=0, select bank0
  5316  06B9  0820               	movf	0+(((0+(?___llmod)))),w
  5317  06BA  3E30               	addlw	030h
  5318  06BB  00E7               	movwf	(??_sprintf+1)+0
  5319  06BC  1683               	bsf	status, 5	;RP0=1, select bank1
  5320  06BD  1303               	bcf	status, 6	;RP1=0, select bank1
  5321  06BE  0830               	movf	(sprintf@sp)^080h,w
  5322  06BF  0084               	movwf	fsr0
  5323  06C0  1283               	bcf	status, 5	;RP0=0, select bank0
  5324  06C1  1303               	bcf	status, 6	;RP1=0, select bank0
  5325  06C2  0867               	movf	(??_sprintf+1)+0,w
  5326  06C3  1383               	bcf	status, 7	;select IRP bank0
  5327  06C4  0080               	movwf	indf
  5328                           	
  5329  06C5                     l7624:	
  5330  06C5  3001               	movlw	(01h)
  5331  06C6  00E6               	movwf	(??_sprintf+0)+0
  5332  06C7  0866               	movf	(??_sprintf+0)+0,w
  5333  06C8  1683               	bsf	status, 5	;RP0=1, select bank1
  5334  06C9  1303               	bcf	status, 6	;RP1=0, select bank1
  5335  06CA  07B0               	addwf	(sprintf@sp)^080h,f
  5336                           	line	1227
  5337                           	
  5338  06CB                     l7626:	
  5339  06CB  0836               	movf	(sprintf@c)^080h,w
  5340  06CC  1283               	bcf	status, 5	;RP0=0, select bank0
  5341  06CD  1303               	bcf	status, 6	;RP1=0, select bank0
  5342  06CE  00E6               	movwf	(??_sprintf+0)+0
  5343  06CF  3001               	movlw	(02h)-1
  5344  06D0                     u6085:
  5345  06D0  1003               	clrc
  5346  06D1  0DE6               	rlf	(??_sprintf+0)+0,f
  5347  06D2  3EFF               	addlw	-1
  5348  06D3  1D03               	skipz
  5349  06D4  2ED0               	goto	u6085
  5350  06D5  1003               	clrc
  5351  06D6  0D66               	rlf	(??_sprintf+0)+0,w
  5352  06D7  3E01               	addlw	low((_dpowers-__stringbase))
  5353  06D8  0084               	movwf	fsr0
  5354  06D9  160A  118A  2000   	fcall	stringdir
              120A  118A         
  5355  06DE  00A0               	movwf	(?___llmod)
  5356  06DF  160A  118A  2000   	fcall	stringdir
              120A  118A         
  5357  06E4  00A1               	movwf	(?___llmod+1)
  5358  06E5  160A  118A  2000   	fcall	stringdir
              120A  118A         
  5359  06EA  00A2               	movwf	(?___llmod+2)
  5360  06EB  160A  118A  2000   	fcall	stringdir
              120A  118A         
  5361  06F0  00A3               	movwf	(?___llmod+3)
  5362  06F1  1683               	bsf	status, 5	;RP0=1, select bank1
  5363  06F2  1303               	bcf	status, 6	;RP1=0, select bank1
  5364  06F3  082D               	movf	(sprintf@_val+3)^080h,w
  5365  06F4  1283               	bcf	status, 5	;RP0=0, select bank0
  5366  06F5  1303               	bcf	status, 6	;RP1=0, select bank0
  5367  06F6  00A7               	movwf	3+(?___llmod)+04h
  5368  06F7  1683               	bsf	status, 5	;RP0=1, select bank1
  5369  06F8  1303               	bcf	status, 6	;RP1=0, select bank1
  5370  06F9  082C               	movf	(sprintf@_val+2)^080h,w
  5371  06FA  1283               	bcf	status, 5	;RP0=0, select bank0
  5372  06FB  1303               	bcf	status, 6	;RP1=0, select bank0
  5373  06FC  00A6               	movwf	2+(?___llmod)+04h
  5374  06FD  1683               	bsf	status, 5	;RP0=1, select bank1
  5375  06FE  1303               	bcf	status, 6	;RP1=0, select bank1
  5376  06FF  082B               	movf	(sprintf@_val+1)^080h,w
  5377  0700  1283               	bcf	status, 5	;RP0=0, select bank0
  5378  0701  1303               	bcf	status, 6	;RP1=0, select bank0
  5379  0702  00A5               	movwf	1+(?___llmod)+04h
  5380  0703  1683               	bsf	status, 5	;RP0=1, select bank1
  5381  0704  1303               	bcf	status, 6	;RP1=0, select bank1
  5382  0705  082A               	movf	(sprintf@_val)^080h,w
  5383  0706  1283               	bcf	status, 5	;RP0=0, select bank0
  5384  0707  1303               	bcf	status, 6	;RP1=0, select bank0
  5385  0708  00A4               	movwf	0+(?___llmod)+04h
  5386                           
  5387  0709  160A  158A  2324   	fcall	___llmod
              120A  118A         
  5388  070E  1283               	bcf	status, 5	;RP0=0, select bank0
  5389  070F  1303               	bcf	status, 6	;RP1=0, select bank0
  5390  0710  0823               	movf	(3+(?___llmod)),w
  5391  0711  1683               	bsf	status, 5	;RP0=1, select bank1
  5392  0712  1303               	bcf	status, 6	;RP1=0, select bank1
  5393  0713  00AD               	movwf	(sprintf@_val+3)^080h
  5394  0714  1283               	bcf	status, 5	;RP0=0, select bank0
  5395  0715  1303               	bcf	status, 6	;RP1=0, select bank0
  5396  0716  0822               	movf	(2+(?___llmod)),w
  5397  0717  1683               	bsf	status, 5	;RP0=1, select bank1
  5398  0718  1303               	bcf	status, 6	;RP1=0, select bank1
  5399  0719  00AC               	movwf	(sprintf@_val+2)^080h
  5400  071A  1283               	bcf	status, 5	;RP0=0, select bank0
  5401  071B  1303               	bcf	status, 6	;RP1=0, select bank0
  5402  071C  0821               	movf	(1+(?___llmod)),w
  5403  071D  1683               	bsf	status, 5	;RP0=1, select bank1
  5404  071E  1303               	bcf	status, 6	;RP1=0, select bank1
  5405  071F  00AB               	movwf	(sprintf@_val+1)^080h
  5406  0720  1283               	bcf	status, 5	;RP0=0, select bank0
  5407  0721  1303               	bcf	status, 6	;RP1=0, select bank0
  5408  0722  0820               	movf	(0+(?___llmod)),w
  5409  0723  1683               	bsf	status, 5	;RP0=1, select bank1
  5410  0724  1303               	bcf	status, 6	;RP1=0, select bank1
  5411  0725  00AA               	movwf	(sprintf@_val)^080h
  5412                           
  5413                           	line	1228
  5414                           	
  5415  0726                     l2209:	
  5416                           	line	1225
  5417  0726  30FF               	movlw	(-1)
  5418  0727  1283               	bcf	status, 5	;RP0=0, select bank0
  5419  0728  1303               	bcf	status, 6	;RP1=0, select bank0
  5420  0729  00E6               	movwf	(??_sprintf+0)+0
  5421  072A  0866               	movf	(??_sprintf+0)+0,w
  5422  072B  1683               	bsf	status, 5	;RP0=1, select bank1
  5423  072C  1303               	bcf	status, 6	;RP1=0, select bank1
  5424  072D  07B6               	addwf	(sprintf@c)^080h,f
  5425  072E  0836               	movf	((sprintf@c)^080h),w
  5426  072F  3AFF               	xorlw	-1
  5427  0730  1D03               	skipz
  5428  0731  2F33               	goto	u6091
  5429  0732  2F34               	goto	u6090
  5430  0733                     u6091:
  5431  0733  2E67               	goto	l7622
  5432  0734                     u6090:
  5433  0734  2F50               	goto	l7634
  5434                           	
  5435  0735                     l2211:	
  5436                           	line	1230
  5437  0735  2F50               	goto	l7634
  5438                           	
  5439  0736                     l2213:	
  5440                           	line	1231
  5441                           	
  5442  0736                     l7628:	
  5443  0736  3030               	movlw	(030h)
  5444  0737  1283               	bcf	status, 5	;RP0=0, select bank0
  5445  0738  1303               	bcf	status, 6	;RP1=0, select bank0
  5446  0739  00E6               	movwf	(??_sprintf+0)+0
  5447  073A  1683               	bsf	status, 5	;RP0=1, select bank1
  5448  073B  1303               	bcf	status, 6	;RP1=0, select bank1
  5449  073C  0830               	movf	(sprintf@sp)^080h,w
  5450  073D  0084               	movwf	fsr0
  5451  073E  1283               	bcf	status, 5	;RP0=0, select bank0
  5452  073F  1303               	bcf	status, 6	;RP1=0, select bank0
  5453  0740  0866               	movf	(??_sprintf+0)+0,w
  5454  0741  1383               	bcf	status, 7	;select IRP bank0
  5455  0742  0080               	movwf	indf
  5456                           	
  5457  0743                     l7630:	
  5458  0743  3001               	movlw	(01h)
  5459  0744  00E6               	movwf	(??_sprintf+0)+0
  5460  0745  0866               	movf	(??_sprintf+0)+0,w
  5461  0746  1683               	bsf	status, 5	;RP0=1, select bank1
  5462  0747  1303               	bcf	status, 6	;RP1=0, select bank1
  5463  0748  07B0               	addwf	(sprintf@sp)^080h,f
  5464                           	line	1232
  5465                           	
  5466  0749                     l7632:	
  5467  0749  30FF               	movlw	low(-1)
  5468  074A  07B1               	addwf	(sprintf@prec)^080h,f
  5469  074B  1803               	skipnc
  5470  074C  0AB2               	incf	(sprintf@prec+1)^080h,f
  5471  074D  30FF               	movlw	high(-1)
  5472  074E  07B2               	addwf	(sprintf@prec+1)^080h,f
  5473  074F  2F50               	goto	l7634
  5474                           	line	1233
  5475                           	
  5476  0750                     l2212:	
  5477                           	line	1230
  5478                           	
  5479  0750                     l7634:	
  5480  0750  0832               	movf	((sprintf@prec+1)^080h),w
  5481  0751  0431               	iorwf	((sprintf@prec)^080h),w
  5482  0752  1D03               	skipz
  5483  0753  2F55               	goto	u6101
  5484  0754  2F56               	goto	u6100
  5485  0755                     u6101:
  5486  0755  2F36               	goto	l7628
  5487  0756                     u6100:
  5488  0756  2FE3               	goto	l7654
  5489                           	
  5490  0757                     l2214:	
  5491                           	line	1240
  5492  0757  2FE3               	goto	l7654
  5493                           	line	1241
  5494                           	
  5495  0758                     l2177:	
  5496                           	line	1285
  5497                           	
  5498  0758                     l7636:	
  5499  0758  1683               	bsf	status, 5	;RP0=1, select bank1
  5500  0759  1303               	bcf	status, 6	;RP1=0, select bank1
  5501  075A  0832               	movf	((sprintf@prec+1)^080h),w
  5502  075B  0431               	iorwf	((sprintf@prec)^080h),w
  5503  075C  1D03               	skipz
  5504  075D  2F5F               	goto	u6111
  5505  075E  2F60               	goto	u6110
  5506  075F                     u6111:
  5507  075F  2F6E               	goto	l2215
  5508  0760                     u6110:
  5509                           	
  5510  0760                     l7638:	
  5511  0760  082D               	movf	(sprintf@_val+3)^080h,w
  5512  0761  042C               	iorwf	(sprintf@_val+2)^080h,w
  5513  0762  042B               	iorwf	(sprintf@_val+1)^080h,w
  5514  0763  042A               	iorwf	(sprintf@_val)^080h,w
  5515  0764  1D03               	skipz
  5516  0765  2F67               	goto	u6121
  5517  0766  2F68               	goto	u6120
  5518  0767                     u6121:
  5519  0767  2F6E               	goto	l2215
  5520  0768                     u6120:
  5521                           	line	1286
  5522                           	
  5523  0768                     l7640:	
  5524  0768  3001               	movlw	low(01h)
  5525  0769  07B1               	addwf	(sprintf@prec)^080h,f
  5526  076A  1803               	skipnc
  5527  076B  0AB2               	incf	(sprintf@prec+1)^080h,f
  5528  076C  3000               	movlw	high(01h)
  5529  076D  07B2               	addwf	(sprintf@prec+1)^080h,f
  5530                           	
  5531  076E                     l2215:	
  5532                           	line	1334
  5533  076E  0836               	movf	(sprintf@c)^080h,w
  5534  076F  1283               	bcf	status, 5	;RP0=0, select bank0
  5535  0770  1303               	bcf	status, 6	;RP1=0, select bank0
  5536  0771  00E6               	movwf	(??_sprintf+0)+0
  5537  0772  01E7               	clrf	(??_sprintf+0)+0+1
  5538  0773  1BE6               	btfsc	(??_sprintf+0)+0,7
  5539  0774  03E7               	decf	(??_sprintf+0)+0+1,f
  5540  0775  0867               	movf	1+(??_sprintf+0)+0,w
  5541  0776  3A80               	xorlw	80h
  5542  0777  00E8               	movwf	(??_sprintf+2)+0
  5543  0778  1683               	bsf	status, 5	;RP0=1, select bank1
  5544  0779  1303               	bcf	status, 6	;RP1=0, select bank1
  5545  077A  0832               	movf	(sprintf@prec+1)^080h,w
  5546  077B  3A80               	xorlw	80h
  5547  077C  1283               	bcf	status, 5	;RP0=0, select bank0
  5548  077D  1303               	bcf	status, 6	;RP1=0, select bank0
  5549  077E  0268               	subwf	(??_sprintf+2)+0,w
  5550  077F  1D03               	skipz
  5551  0780  2F87               	goto	u6135
  5552  0781  1683               	bsf	status, 5	;RP0=1, select bank1
  5553  0782  1303               	bcf	status, 6	;RP1=0, select bank1
  5554  0783  0831               	movf	(sprintf@prec)^080h,w
  5555  0784  1283               	bcf	status, 5	;RP0=0, select bank0
  5556  0785  1303               	bcf	status, 6	;RP1=0, select bank0
  5557  0786  0266               	subwf	0+(??_sprintf+0)+0,w
  5558  0787                     u6135:
  5559                           
  5560  0787  1803               	skipnc
  5561  0788  2F8A               	goto	u6131
  5562  0789  2F8B               	goto	u6130
  5563  078A                     u6131:
  5564  078A  2F96               	goto	l7644
  5565  078B                     u6130:
  5566                           	line	1335
  5567                           	
  5568  078B                     l7642:	
  5569  078B  1683               	bsf	status, 5	;RP0=1, select bank1
  5570  078C  1303               	bcf	status, 6	;RP1=0, select bank1
  5571  078D  0831               	movf	(sprintf@prec)^080h,w
  5572  078E  1283               	bcf	status, 5	;RP0=0, select bank0
  5573  078F  1303               	bcf	status, 6	;RP1=0, select bank0
  5574  0790  00E6               	movwf	(??_sprintf+0)+0
  5575  0791  0866               	movf	(??_sprintf+0)+0,w
  5576  0792  1683               	bsf	status, 5	;RP0=1, select bank1
  5577  0793  1303               	bcf	status, 6	;RP1=0, select bank1
  5578  0794  00B6               	movwf	(sprintf@c)^080h
  5579  0795  2FBC               	goto	l7648
  5580                           	line	1336
  5581                           	
  5582  0796                     l2216:	
  5583                           	
  5584  0796                     l7644:	
  5585  0796  1683               	bsf	status, 5	;RP0=1, select bank1
  5586  0797  1303               	bcf	status, 6	;RP1=0, select bank1
  5587  0798  0836               	movf	(sprintf@c)^080h,w
  5588  0799  1283               	bcf	status, 5	;RP0=0, select bank0
  5589  079A  1303               	bcf	status, 6	;RP1=0, select bank0
  5590  079B  00E6               	movwf	(??_sprintf+0)+0
  5591  079C  01E7               	clrf	(??_sprintf+0)+0+1
  5592  079D  1BE6               	btfsc	(??_sprintf+0)+0,7
  5593  079E  03E7               	decf	(??_sprintf+0)+0+1,f
  5594  079F  1683               	bsf	status, 5	;RP0=1, select bank1
  5595  07A0  1303               	bcf	status, 6	;RP1=0, select bank1
  5596  07A1  0832               	movf	(sprintf@prec+1)^080h,w
  5597  07A2  3A80               	xorlw	80h
  5598  07A3  1283               	bcf	status, 5	;RP0=0, select bank0
  5599  07A4  1303               	bcf	status, 6	;RP1=0, select bank0
  5600  07A5  00E8               	movwf	(??_sprintf+2)+0
  5601  07A6  0867               	movf	1+(??_sprintf+0)+0,w
  5602  07A7  3A80               	xorlw	80h
  5603  07A8  0268               	subwf	(??_sprintf+2)+0,w
  5604  07A9  1D03               	skipz
  5605  07AA  2FAF               	goto	u6145
  5606  07AB  0866               	movf	0+(??_sprintf+0)+0,w
  5607  07AC  1683               	bsf	status, 5	;RP0=1, select bank1
  5608  07AD  1303               	bcf	status, 6	;RP1=0, select bank1
  5609  07AE  0231               	subwf	(sprintf@prec)^080h,w
  5610  07AF                     u6145:
  5611                           
  5612  07AF  1803               	skipnc
  5613  07B0  2FB2               	goto	u6141
  5614  07B1  2FB3               	goto	u6140
  5615  07B2                     u6141:
  5616  07B2  2FBC               	goto	l7648
  5617  07B3                     u6140:
  5618                           	line	1337
  5619                           	
  5620  07B3                     l7646:	
  5621  07B3  1683               	bsf	status, 5	;RP0=1, select bank1
  5622  07B4  1303               	bcf	status, 6	;RP1=0, select bank1
  5623  07B5  0836               	movf	(sprintf@c)^080h,w
  5624  07B6  00B1               	movwf	(sprintf@prec)^080h
  5625  07B7  01B2               	clrf	(sprintf@prec+1)^080h
  5626  07B8  1BB1               	btfsc	(sprintf@prec)^080h,7
  5627  07B9  03B2               	decf	(sprintf@prec+1)^080h,f
  5628  07BA  2FBC               	goto	l7648
  5629                           	
  5630  07BB                     l2218:	
  5631  07BB  2FBC               	goto	l7648
  5632                           	line	1417
  5633                           	
  5634  07BC                     l2217:	
  5635                           	line	1433
  5636                           	
  5637  07BC                     l7648:	
  5638  07BC  3003               	movlw	low(03h)
  5639  07BD  1683               	bsf	status, 5	;RP0=1, select bank1
  5640  07BE  1303               	bcf	status, 6	;RP1=0, select bank1
  5641  07BF  0525               	andwf	(sprintf@flag)^080h,w
  5642  07C0  1283               	bcf	status, 5	;RP0=0, select bank0
  5643  07C1  1303               	bcf	status, 6	;RP1=0, select bank0
  5644  07C2  00E6               	movwf	(??_sprintf+0)+0
  5645  07C3  3000               	movlw	high(03h)
  5646  07C4  1683               	bsf	status, 5	;RP0=1, select bank1
  5647  07C5  1303               	bcf	status, 6	;RP1=0, select bank1
  5648  07C6  0526               	andwf	(sprintf@flag+1)^080h,w
  5649  07C7  1283               	bcf	status, 5	;RP0=0, select bank0
  5650  07C8  1303               	bcf	status, 6	;RP1=0, select bank0
  5651  07C9  00E7               	movwf	1+(??_sprintf+0)+0
  5652  07CA  0867               	movf	1+(??_sprintf+0)+0,w
  5653  07CB  0466               	iorwf	0+(??_sprintf+0)+0,w
  5654  07CC  1903               	skipnz
  5655  07CD  2FCF               	goto	u6151
  5656  07CE  2FD0               	goto	u6150
  5657  07CF                     u6151:
  5658  07CF  2FE3               	goto	l7654
  5659  07D0                     u6150:
  5660                           	line	1434
  5661                           	
  5662  07D0                     l7650:	
  5663  07D0  302D               	movlw	(02Dh)
  5664  07D1  00E6               	movwf	(??_sprintf+0)+0
  5665  07D2  1683               	bsf	status, 5	;RP0=1, select bank1
  5666  07D3  1303               	bcf	status, 6	;RP1=0, select bank1
  5667  07D4  0830               	movf	(sprintf@sp)^080h,w
  5668  07D5  0084               	movwf	fsr0
  5669  07D6  1283               	bcf	status, 5	;RP0=0, select bank0
  5670  07D7  1303               	bcf	status, 6	;RP1=0, select bank0
  5671  07D8  0866               	movf	(??_sprintf+0)+0,w
  5672  07D9  1383               	bcf	status, 7	;select IRP bank0
  5673  07DA  0080               	movwf	indf
  5674                           	
  5675  07DB                     l7652:	
  5676  07DB  3001               	movlw	(01h)
  5677  07DC  00E6               	movwf	(??_sprintf+0)+0
  5678  07DD  0866               	movf	(??_sprintf+0)+0,w
  5679  07DE  1683               	bsf	status, 5	;RP0=1, select bank1
  5680  07DF  1303               	bcf	status, 6	;RP1=0, select bank1
  5681  07E0  07B0               	addwf	(sprintf@sp)^080h,f
  5682  07E1  2FE3               	goto	l7654
  5683                           	
  5684  07E2                     l2219:	
  5685  07E2  2FE3               	goto	l7654
  5686                           	line	1525
  5687                           	
  5688  07E3                     l2163:	
  5689                           	line	540
  5690                           	
  5691  07E3                     l7654:	
  5692  07E3  3001               	movlw	01h
  5693  07E4  1283               	bcf	status, 5	;RP0=0, select bank0
  5694  07E5  07E2               	addwf	(sprintf@f),f
  5695  07E6  30FF               	movlw	-01h
  5696  07E7  0762               	addwf	(sprintf@f),w
  5697  07E8  0084               	movwf	fsr0
  5698  07E9  160A  118A  2000   	fcall	stringdir
              120A  118A         
  5699  07EE  00E6               	movwf	(??_sprintf+0)+0
  5700  07EF  0866               	movf	(??_sprintf+0)+0,w
  5701  07F0  1683               	bsf	status, 5	;RP0=1, select bank1
  5702  07F1  1303               	bcf	status, 6	;RP1=0, select bank1
  5703  07F2  00B6               	movwf	(sprintf@c)^080h
  5704  07F3  08B6               	movf	((sprintf@c)^080h),f
  5705  07F4  1D03               	skipz
  5706  07F5  2FF7               	goto	u6161
  5707  07F6  2FF8               	goto	u6160
  5708  07F7                     u6161:
  5709  07F7  2918               	goto	l7470
  5710  07F8                     u6160:
  5711  07F8  2FFA               	goto	l7656
  5712                           	
  5713  07F9                     l2220:	
  5714  07F9  2FFA               	goto	l7656
  5715                           	line	1527
  5716                           	
  5717  07FA                     l2173:	
  5718                           	line	1530
  5719                           	
  5720  07FA                     l7656:	
  5721  07FA  0830               	movf	(sprintf@sp)^080h,w
  5722  07FB  0084               	movwf	fsr0
  5723  07FC  1383               	bcf	status, 7	;select IRP bank0
  5724  07FD  0180               	clrf	indf
  5725  07FE  2FFF               	goto	l2221
  5726                           	line	1532
  5727                           	
  5728  07FF                     l7658:	
  5729                           	line	1533
  5730                           ;	Return value of _sprintf is never used
  5731                           	
  5732  07FF                     l2221:	
  5733  07FF  0008               	return
  5734                           	opt stack 0
  5735                           GLOBAL	__end_of_sprintf
  5736  0800                     	__end_of_sprintf:
  5737 ;; =============== function _sprintf ends ============
  5738                           
  5739                           	signat	_sprintf,4698
  5740                           	global	_sqrt
  5741                           psect	text692,local,class=CODE,delta=2
  5742                           global __ptext692
  5743  10B6                     __ptext692:
  5744                           
  5745 ;; *************** function _sqrt *****************
  5746 ;; Defined at:
  5747 ;;		line 14 in file "C:\Program Files (x86)\HI-TECH Software\PICC\9.82\sources\sqrt.c"
  5748 ;; Parameters:    Size  Location     Type
  5749 ;;  y               3   56[BANK0 ] int 
  5750 ;; Auto vars:     Size  Location     Type
  5751 ;;  x               3   75[BANK0 ] int 
  5752 ;;  q               3   72[BANK0 ] int 
  5753 ;;  z               3   68[BANK0 ] int 
  5754 ;;  og              3   65[BANK0 ] int 
  5755 ;;  i               1   71[BANK0 ] unsigned char 
  5756 ;; Return value:  Size  Location     Type
  5757 ;;                  3   56[BANK0 ] unsigned char 
  5758 ;; Registers used:
  5759 ;;		wreg, status,2, status,0, pclath, cstack
  5760 ;; Tracked objects:
  5761 ;;		On entry : 0/0
  5762 ;;		On exit  : 0/0
  5763 ;;		Unchanged: 0/0
  5764 ;; Data sizes:     COMMON   BANK0   BANK1   BANK3   BANK2
  5765 ;;      Params:         0       3       0       0       0
  5766 ;;      Locals:         0      13       0       0       0
  5767 ;;      Temps:          0       6       0       0       0
  5768 ;;      Totals:         0      22       0       0       0
  5769 ;;Total ram usage:       22 bytes
  5770 ;; Hardware stack levels used:    1
  5771 ;; Hardware stack levels required when called:    3
  5772 ;; This function calls:
  5773 ;;		___ftge
  5774 ;;		___ftmul
  5775 ;;		___ftsub
  5776 ;; This function is called by:
  5777 ;;		_main
  5778 ;; This function uses a non-reentrant model
  5779 ;;
  5780                           psect	text692
  5781                           	file	"C:\Program Files (x86)\HI-TECH Software\PICC\9.82\sources\sqrt.c"
  5782                           	line	14
  5783                           	global	__size_of_sqrt
  5784  0130                     	__size_of_sqrt	equ	__end_of_sqrt-_sqrt
  5785                           	
  5786  10B6                     _sqrt:	
  5787                           	opt	stack 4
  5788                           ; Regs used in _sqrt: [wreg+status,2+status,0+pclath+cstack]
  5789                           	line	19
  5790                           	
  5791  10B6                     l7438:	
  5792  10B6  3000               	movlw	0x0
  5793  10B7  00F0               	movwf	(?___ftge)
  5794  10B8  3000               	movlw	0x0
  5795  10B9  00F1               	movwf	(?___ftge+1)
  5796  10BA  3000               	movlw	0x0
  5797  10BB  00F2               	movwf	(?___ftge+2)
  5798  10BC  1283               	bcf	status, 5	;RP0=0, select bank0
  5799  10BD  1303               	bcf	status, 6	;RP1=0, select bank0
  5800  10BE  0858               	movf	(sqrt@y),w
  5801  10BF  00F3               	movwf	0+(?___ftge)+03h
  5802  10C0  0859               	movf	(sqrt@y+1),w
  5803  10C1  00F4               	movwf	1+(?___ftge)+03h
  5804  10C2  085A               	movf	(sqrt@y+2),w
  5805  10C3  00F5               	movwf	2+(?___ftge)+03h
  5806  10C4  160A  158A  23E8   	fcall	___ftge
              160A  118A         
  5807  10C9  1C03               	btfss	status,0
  5808  10CA  28CC               	goto	u5741
  5809  10CB  28CD               	goto	u5740
  5810  10CC                     u5741:
  5811  10CC  28F4               	goto	l7446
  5812  10CD                     u5740:
  5813                           	line	20
  5814                           	
  5815  10CD                     l7440:	
  5816  10CD  1283               	bcf	status, 5	;RP0=0, select bank0
  5817  10CE  1303               	bcf	status, 6	;RP1=0, select bank0
  5818  10CF  0858               	movf	(sqrt@y),w
  5819  10D0  00F0               	movwf	(?___ftge)
  5820  10D1  0859               	movf	(sqrt@y+1),w
  5821  10D2  00F1               	movwf	(?___ftge+1)
  5822  10D3  085A               	movf	(sqrt@y+2),w
  5823  10D4  00F2               	movwf	(?___ftge+2)
  5824  10D5  3000               	movlw	0x0
  5825  10D6  00F3               	movwf	0+(?___ftge)+03h
  5826  10D7  3000               	movlw	0x0
  5827  10D8  00F4               	movwf	1+(?___ftge)+03h
  5828  10D9  3000               	movlw	0x0
  5829  10DA  00F5               	movwf	2+(?___ftge)+03h
  5830  10DB  160A  158A  23E8   	fcall	___ftge
              160A  118A         
  5831  10E0  1803               	btfsc	status,0
  5832  10E1  28E3               	goto	u5751
  5833  10E2  28E4               	goto	u5750
  5834  10E3                     u5751:
  5835  10E3  28EA               	goto	l2870
  5836  10E4                     u5750:
  5837                           	line	21
  5838                           	
  5839  10E4                     l7442:	
  5840  10E4  3021               	movlw	low(021h)
  5841  10E5  1283               	bcf	status, 5	;RP0=0, select bank0
  5842  10E6  1303               	bcf	status, 6	;RP1=0, select bank0
  5843  10E7  00EE               	movwf	(_errno)
  5844  10E8  3000               	movlw	high(021h)
  5845  10E9  00EF               	movwf	((_errno))+1
  5846                           	
  5847  10EA                     l2870:	
  5848                           	line	22
  5849  10EA  3000               	movlw	0x0
  5850  10EB  1283               	bcf	status, 5	;RP0=0, select bank0
  5851  10EC  1303               	bcf	status, 6	;RP1=0, select bank0
  5852  10ED  00D8               	movwf	(?_sqrt)
  5853  10EE  3000               	movlw	0x0
  5854  10EF  00D9               	movwf	(?_sqrt+1)
  5855  10F0  3000               	movlw	0x0
  5856  10F1  00DA               	movwf	(?_sqrt+2)
  5857  10F2  29E5               	goto	l2871
  5858                           	
  5859  10F3                     l7444:	
  5860  10F3  29E5               	goto	l2871
  5861                           	line	23
  5862                           	
  5863  10F4                     l2869:	
  5864                           	line	24
  5865                           	
  5866  10F4                     l7446:	
  5867  10F4  1283               	bcf	status, 5	;RP0=0, select bank0
  5868  10F5  1303               	bcf	status, 6	;RP1=0, select bank0
  5869  10F6  0858               	movf	(sqrt@y),w
  5870  10F7  00E4               	movwf	(sqrt@z)
  5871  10F8  0859               	movf	(sqrt@y+1),w
  5872  10F9  00E5               	movwf	(sqrt@z+1)
  5873  10FA  085A               	movf	(sqrt@y+2),w
  5874  10FB  00E6               	movwf	(sqrt@z+2)
  5875                           	line	30
  5876                           	
  5877  10FC                     l7448:	
  5878  10FC  30C8               	movlw	0C8h
  5879  10FD  00DB               	movwf	((??_sqrt+0)+0)
  5880  10FE  306E               	movlw	06Eh
  5881  10FF  00DC               	movwf	((??_sqrt+0)+0+1)
  5882  1100  30BE               	movlw	0BEh
  5883  1101  00DD               	movwf	((??_sqrt+0)+0+2)
  5884  1102  0958               	comf	(sqrt@y),w
  5885  1103  00DE               	movwf	(??_sqrt+3)+0
  5886  1104  0959               	comf	(sqrt@y+1),w
  5887  1105  00DF               	movwf	((??_sqrt+3)+0+1)
  5888  1106  095A               	comf	(sqrt@y+2),w
  5889  1107  00E0               	movwf	((??_sqrt+3)+0+2)
  5890  1108  0ADE               	incf	(??_sqrt+3)+0,f
  5891  1109  1903               	skipnz
  5892  110A  0ADF               	incf	((??_sqrt+3)+0+1),f
  5893  110B  1903               	skipnz
  5894  110C  0AE0               	incf	((??_sqrt+3)+0+2),f
  5895  110D  085E               	movf	0+(??_sqrt+3)+0,w
  5896  110E  07DB               	addwf	(??_sqrt+0)+0,f
  5897  110F  085F               	movf	1+(??_sqrt+3)+0,w
  5898  1110  1803               	skipnc
  5899  1111  0F5F               	incfsz	1+(??_sqrt+3)+0,w
  5900  1112  2914               	goto	u5761
  5901  1113  2915               	goto	u5762
  5902  1114                     u5761:
  5903  1114  07DC               	addwf	(??_sqrt+0)+1,f
  5904                           	
  5905  1115                     u5762:
  5906  1115  0860               	movf	2+(??_sqrt+3)+0,w
  5907  1116  1803               	skipnc
  5908  1117  0F60               	incfsz	2+(??_sqrt+3)+0,w
  5909  1118  291A               	goto	u5763
  5910  1119  291B               	goto	u5764
  5911  111A                     u5763:
  5912  111A  07DD               	addwf	(??_sqrt+0)+2,f
  5913                           	
  5914  111B                     u5764:
  5915  111B  085B               	movf	0+(??_sqrt+0)+0,w
  5916  111C  00EB               	movwf	(sqrt@x)
  5917  111D  085C               	movf	1+(??_sqrt+0)+0,w
  5918  111E  00EC               	movwf	(sqrt@x+1)
  5919  111F  085D               	movf	2+(??_sqrt+0)+0,w
  5920  1120  00ED               	movwf	(sqrt@x+2)
  5921                           	line	31
  5922                           	
  5923  1121                     l7450:	
  5924  1121  3001               	movlw	01h
  5925  1122                     u5775:
  5926  1122  1003               	clrc
  5927  1123  0CED               	rrf	(sqrt@x+2),f
  5928  1124  0CEC               	rrf	(sqrt@x+1),f
  5929  1125  0CEB               	rrf	(sqrt@x),f
  5930  1126  3EFF               	addlw	-1
  5931  1127  1D03               	skipz
  5932  1128  2922               	goto	u5775
  5933                           
  5934                           	line	32
  5935  1129  3000               	movlw	0
  5936  112A  00DB               	movwf	((??_sqrt+0)+0)
  5937  112B  3080               	movlw	080h
  5938  112C  00DC               	movwf	((??_sqrt+0)+0+1)
  5939  112D  3000               	movlw	0
  5940  112E  00DD               	movwf	((??_sqrt+0)+0+2)
  5941  112F  085B               	movf	0+(??_sqrt+0)+0,w
  5942  1130  02E4               	subwf	(sqrt@z),f
  5943  1131  085C               	movf	1+(??_sqrt+0)+0,w
  5944  1132  1C03               	skipc
  5945  1133  0F5C               	incfsz	1+(??_sqrt+0)+0,w
  5946  1134  2936               	goto	u5785
  5947  1135  2937               	goto	u5786
  5948  1136                     u5785:
  5949  1136  02E5               	subwf	(sqrt@z+1),f
  5950  1137                     u5786:
  5951  1137  085D               	movf	2+(??_sqrt+0)+0,w
  5952  1138  1C03               	skipc
  5953  1139  0A5D               	incf	2+(??_sqrt+0)+0,w
  5954  113A  293C               	goto	u5787
  5955  113B  293D               	goto	u5788
  5956  113C                     u5787:
  5957  113C  02E6               	subwf	(sqrt@z+2),f
  5958  113D                     u5788:
  5959                           
  5960                           	line	34
  5961  113D  3004               	movlw	(04h)
  5962  113E  00DB               	movwf	(??_sqrt+0)+0
  5963  113F  085B               	movf	(??_sqrt+0)+0,w
  5964  1140  00E7               	movwf	(sqrt@i)
  5965                           	line	35
  5966                           	
  5967  1141                     l2872:	
  5968                           	line	36
  5969  1141  086B               	movf	(sqrt@x),w
  5970  1142  00E1               	movwf	(sqrt@og)
  5971  1143  086C               	movf	(sqrt@x+1),w
  5972  1144  00E2               	movwf	(sqrt@og+1)
  5973  1145  086D               	movf	(sqrt@x+2),w
  5974  1146  00E3               	movwf	(sqrt@og+2)
  5975                           	line	37
  5976                           	
  5977  1147                     l7452:	
  5978  1147  0864               	movf	(sqrt@z),w
  5979  1148  00B5               	movwf	(?___ftmul)
  5980  1149  0865               	movf	(sqrt@z+1),w
  5981  114A  00B6               	movwf	(?___ftmul+1)
  5982  114B  0866               	movf	(sqrt@z+2),w
  5983  114C  00B7               	movwf	(?___ftmul+2)
  5984  114D  086B               	movf	(sqrt@x),w
  5985  114E  00B8               	movwf	0+(?___ftmul)+03h
  5986  114F  086C               	movf	(sqrt@x+1),w
  5987  1150  00B9               	movwf	1+(?___ftmul)+03h
  5988  1151  086D               	movf	(sqrt@x+2),w
  5989  1152  00BA               	movwf	2+(?___ftmul)+03h
  5990  1153  120A  118A  201E   	fcall	___ftmul
              160A  118A         
  5991  1158  1283               	bcf	status, 5	;RP0=0, select bank0
  5992  1159  1303               	bcf	status, 6	;RP1=0, select bank0
  5993  115A  0835               	movf	(0+(?___ftmul)),w
  5994  115B  00E8               	movwf	(sqrt@q)
  5995  115C  0836               	movf	(1+(?___ftmul)),w
  5996  115D  00E9               	movwf	(sqrt@q+1)
  5997  115E  0837               	movf	(2+(?___ftmul)),w
  5998  115F  00EA               	movwf	(sqrt@q+2)
  5999                           	line	38
  6000                           	
  6001  1160                     l7454:	
  6002  1160  086B               	movf	(sqrt@x),w
  6003  1161  00B5               	movwf	(?___ftmul)
  6004  1162  086C               	movf	(sqrt@x+1),w
  6005  1163  00B6               	movwf	(?___ftmul+1)
  6006  1164  086D               	movf	(sqrt@x+2),w
  6007  1165  00B7               	movwf	(?___ftmul+2)
  6008  1166  0868               	movf	(sqrt@q),w
  6009  1167  00B8               	movwf	0+(?___ftmul)+03h
  6010  1168  0869               	movf	(sqrt@q+1),w
  6011  1169  00B9               	movwf	1+(?___ftmul)+03h
  6012  116A  086A               	movf	(sqrt@q+2),w
  6013  116B  00BA               	movwf	2+(?___ftmul)+03h
  6014  116C  120A  118A  201E   	fcall	___ftmul
              160A  118A         
  6015  1171  1283               	bcf	status, 5	;RP0=0, select bank0
  6016  1172  1303               	bcf	status, 6	;RP1=0, select bank0
  6017  1173  0835               	movf	(0+(?___ftmul)),w
  6018  1174  00E8               	movwf	(sqrt@q)
  6019  1175  0836               	movf	(1+(?___ftmul)),w
  6020  1176  00E9               	movwf	(sqrt@q+1)
  6021  1177  0837               	movf	(2+(?___ftmul)),w
  6022  1178  00EA               	movwf	(sqrt@q+2)
  6023                           	line	39
  6024                           	
  6025  1179                     l7456:	
  6026  1179  086B               	movf	(sqrt@x),w
  6027  117A  00B5               	movwf	(?___ftmul)
  6028  117B  086C               	movf	(sqrt@x+1),w
  6029  117C  00B6               	movwf	(?___ftmul+1)
  6030  117D  086D               	movf	(sqrt@x+2),w
  6031  117E  00B7               	movwf	(?___ftmul+2)
  6032  117F  0868               	movf	(sqrt@q),w
  6033  1180  00B8               	movwf	0+(?___ftmul)+03h
  6034  1181  0869               	movf	(sqrt@q+1),w
  6035  1182  00B9               	movwf	1+(?___ftmul)+03h
  6036  1183  086A               	movf	(sqrt@q+2),w
  6037  1184  00BA               	movwf	2+(?___ftmul)+03h
  6038  1185  120A  118A  201E   	fcall	___ftmul
              160A  118A         
  6039  118A  1283               	bcf	status, 5	;RP0=0, select bank0
  6040  118B  1303               	bcf	status, 6	;RP1=0, select bank0
  6041  118C  0835               	movf	(0+(?___ftmul)),w
  6042  118D  00E8               	movwf	(sqrt@q)
  6043  118E  0836               	movf	(1+(?___ftmul)),w
  6044  118F  00E9               	movwf	(sqrt@q+1)
  6045  1190  0837               	movf	(2+(?___ftmul)),w
  6046  1191  00EA               	movwf	(sqrt@q+2)
  6047                           	line	40
  6048                           	
  6049  1192                     l7458:	
  6050  1192  3000               	movlw	0x0
  6051  1193  00B5               	movwf	(?___ftmul)
  6052  1194  30C0               	movlw	0xc0
  6053  1195  00B6               	movwf	(?___ftmul+1)
  6054  1196  303F               	movlw	0x3f
  6055  1197  00B7               	movwf	(?___ftmul+2)
  6056  1198  086B               	movf	(sqrt@x),w
  6057  1199  00B8               	movwf	0+(?___ftmul)+03h
  6058  119A  086C               	movf	(sqrt@x+1),w
  6059  119B  00B9               	movwf	1+(?___ftmul)+03h
  6060  119C  086D               	movf	(sqrt@x+2),w
  6061  119D  00BA               	movwf	2+(?___ftmul)+03h
  6062  119E  120A  118A  201E   	fcall	___ftmul
              160A  118A         
  6063  11A3  1283               	bcf	status, 5	;RP0=0, select bank0
  6064  11A4  1303               	bcf	status, 6	;RP1=0, select bank0
  6065  11A5  0835               	movf	(0+(?___ftmul)),w
  6066  11A6  00EB               	movwf	(sqrt@x)
  6067  11A7  0836               	movf	(1+(?___ftmul)),w
  6068  11A8  00EC               	movwf	(sqrt@x+1)
  6069  11A9  0837               	movf	(2+(?___ftmul)),w
  6070  11AA  00ED               	movwf	(sqrt@x+2)
  6071                           	line	41
  6072                           	
  6073  11AB                     l7460:	
  6074  11AB  0868               	movf	(sqrt@q),w
  6075  11AC  00D2               	movwf	(?___ftsub)
  6076  11AD  0869               	movf	(sqrt@q+1),w
  6077  11AE  00D3               	movwf	(?___ftsub+1)
  6078  11AF  086A               	movf	(sqrt@q+2),w
  6079  11B0  00D4               	movwf	(?___ftsub+2)
  6080  11B1  086B               	movf	(sqrt@x),w
  6081  11B2  00D5               	movwf	0+(?___ftsub)+03h
  6082  11B3  086C               	movf	(sqrt@x+1),w
  6083  11B4  00D6               	movwf	1+(?___ftsub)+03h
  6084  11B5  086D               	movf	(sqrt@x+2),w
  6085  11B6  00D7               	movwf	2+(?___ftsub)+03h
  6086  11B7  160A  158A  2191   	fcall	___ftsub
              160A  118A         
  6087  11BC  1283               	bcf	status, 5	;RP0=0, select bank0
  6088  11BD  1303               	bcf	status, 6	;RP1=0, select bank0
  6089  11BE  0852               	movf	(0+(?___ftsub)),w
  6090  11BF  00EB               	movwf	(sqrt@x)
  6091  11C0  0853               	movf	(1+(?___ftsub)),w
  6092  11C1  00EC               	movwf	(sqrt@x+1)
  6093  11C2  0854               	movf	(2+(?___ftsub)),w
  6094  11C3  00ED               	movwf	(sqrt@x+2)
  6095                           	line	42
  6096                           	
  6097  11C4                     l7462:	
  6098  11C4  3001               	movlw	low(01h)
  6099  11C5  02E7               	subwf	(sqrt@i),f
  6100  11C6  1D03               	btfss	status,2
  6101  11C7  29C9               	goto	u5791
  6102  11C8  29CA               	goto	u5790
  6103  11C9                     u5791:
  6104  11C9  2941               	goto	l2872
  6105  11CA                     u5790:
  6106  11CA  29CB               	goto	l7464
  6107                           	
  6108  11CB                     l2873:	
  6109                           	line	43
  6110                           	
  6111  11CB                     l7464:	
  6112  11CB  0858               	movf	(sqrt@y),w
  6113  11CC  00B5               	movwf	(?___ftmul)
  6114  11CD  0859               	movf	(sqrt@y+1),w
  6115  11CE  00B6               	movwf	(?___ftmul+1)
  6116  11CF  085A               	movf	(sqrt@y+2),w
  6117  11D0  00B7               	movwf	(?___ftmul+2)
  6118  11D1  086B               	movf	(sqrt@x),w
  6119  11D2  00B8               	movwf	0+(?___ftmul)+03h
  6120  11D3  086C               	movf	(sqrt@x+1),w
  6121  11D4  00B9               	movwf	1+(?___ftmul)+03h
  6122  11D5  086D               	movf	(sqrt@x+2),w
  6123  11D6  00BA               	movwf	2+(?___ftmul)+03h
  6124  11D7  120A  118A  201E   	fcall	___ftmul
              160A  118A         
  6125  11DC  1283               	bcf	status, 5	;RP0=0, select bank0
  6126  11DD  1303               	bcf	status, 6	;RP1=0, select bank0
  6127  11DE  0835               	movf	(0+(?___ftmul)),w
  6128  11DF  00D8               	movwf	(?_sqrt)
  6129  11E0  0836               	movf	(1+(?___ftmul)),w
  6130  11E1  00D9               	movwf	(?_sqrt+1)
  6131  11E2  0837               	movf	(2+(?___ftmul)),w
  6132  11E3  00DA               	movwf	(?_sqrt+2)
  6133  11E4  29E5               	goto	l2871
  6134                           	
  6135  11E5                     l7466:	
  6136                           	line	44
  6137                           	
  6138  11E5                     l2871:	
  6139  11E5  0008               	return
  6140                           	opt stack 0
  6141                           GLOBAL	__end_of_sqrt
  6142  11E6                     	__end_of_sqrt:
  6143 ;; =============== function _sqrt ends ============
  6144                           
  6145                           	signat	_sqrt,4219
  6146                           	global	_ClearLCDScreen
  6147                           psect	text693,local,class=CODE,delta=2
  6148                           global __ptext693
  6149  194A                     __ptext693:
  6150                           
  6151 ;; *************** function _ClearLCDScreen *****************
  6152 ;; Defined at:
  6153 ;;		line 98 in file "../LCD.c"
  6154 ;; Parameters:    Size  Location     Type
  6155 ;;		None
  6156 ;; Auto vars:     Size  Location     Type
  6157 ;;		None
  6158 ;; Return value:  Size  Location     Type
  6159 ;;		None               void
  6160 ;; Registers used:
  6161 ;;		wreg, status,2, status,0, pclath, cstack
  6162 ;; Tracked objects:
  6163 ;;		On entry : 0/0
  6164 ;;		On exit  : 0/0
  6165 ;;		Unchanged: 0/0
  6166 ;; Data sizes:     COMMON   BANK0   BANK1   BANK3   BANK2
  6167 ;;      Params:         0       0       0       0       0
  6168 ;;      Locals:         0       0       0       0       0
  6169 ;;      Temps:          2       0       0       0       0
  6170 ;;      Totals:         2       0       0       0       0
  6171 ;;Total ram usage:        2 bytes
  6172 ;; Hardware stack levels used:    1
  6173 ;; Hardware stack levels required when called:    2
  6174 ;; This function calls:
  6175 ;;		_WriteCommandToLCD
  6176 ;; This function is called by:
  6177 ;;		_main
  6178 ;;		_get_num
  6179 ;;		_DispError
  6180 ;;		_get_func
  6181 ;; This function uses a non-reentrant model
  6182 ;;
  6183                           psect	text693
  6184                           	file	"../LCD.c"
  6185                           	line	98
  6186                           	global	__size_of_ClearLCDScreen
  6187  0016                     	__size_of_ClearLCDScreen	equ	__end_of_ClearLCDScreen-_ClearLCDScreen
  6188                           	
  6189  194A                     _ClearLCDScreen:	
  6190                           	opt	stack 4
  6191                           ; Regs used in _ClearLCDScreen: [wreg+status,2+status,0+pclath+cstack]
  6192                           	line	99
  6193                           	
  6194  194A                     l7434:	
  6195                           ;LCD.c: 99: WriteCommandToLCD(0x01);
  6196  194A  3001               	movlw	(01h)
  6197  194B  160A  158A  21FB   	fcall	_WriteCommandToLCD
              160A  158A         
  6198                           	line	100
  6199                           ;LCD.c: 100: WriteCommandToLCD(0x02);
  6200  1950  3002               	movlw	(02h)
  6201  1951  160A  158A  21FB   	fcall	_WriteCommandToLCD
              160A  158A         
  6202                           	line	101
  6203                           	
  6204  1956                     l7436:	
  6205                           ;LCD.c: 101: _delay((unsigned long)((2)*(20000000/4000.0)));
  6206                           	opt asmopt_off
  6207  1956  300D               movlw	13
  6208  1957  00F6               movwf	((??_ClearLCDScreen+0)+0+1),f
  6209  1958  30FB               	movlw	251
  6210  1959  00F5               movwf	((??_ClearLCDScreen+0)+0),f
  6211  195A                     u6357:
  6212  195A  0BF5               	decfsz	((??_ClearLCDScreen+0)+0),f
  6213  195B  295A               	goto	u6357
  6214  195C  0BF6               	decfsz	((??_ClearLCDScreen+0)+0+1),f
  6215  195D  295A               	goto	u6357
  6216  195E  295F               	nop2
  6217                           opt asmopt_on
  6218                           
  6219                           	line	102
  6220                           	
  6221  195F                     l1377:	
  6222  195F  0008               	return
  6223                           	opt stack 0
  6224                           GLOBAL	__end_of_ClearLCDScreen
  6225  1960                     	__end_of_ClearLCDScreen:
  6226 ;; =============== function _ClearLCDScreen ends ============
  6227                           
  6228                           	signat	_ClearLCDScreen,88
  6229                           	global	_WriteStringToLCD
  6230                           psect	text694,local,class=CODE,delta=2
  6231                           global __ptext694
  6232  19B0                     __ptext694:
  6233                           
  6234 ;; *************** function _WriteStringToLCD *****************
  6235 ;; Defined at:
  6236 ;;		line 91 in file "../LCD.c"
  6237 ;; Parameters:    Size  Location     Type
  6238 ;;  s               1    wreg     PTR const unsigned char 
  6239 ;;		 -> STR_5(12), STR_4(15), STR_3(15), STR_2(12), 
  6240 ;; Auto vars:     Size  Location     Type
  6241 ;;  s               1    6[COMMON] PTR const unsigned char 
  6242 ;;		 -> STR_5(12), STR_4(15), STR_3(15), STR_2(12), 
  6243 ;; Return value:  Size  Location     Type
  6244 ;;		None               void
  6245 ;; Registers used:
  6246 ;;		wreg, fsr0l, fsr0h, status,2, status,0, pclath, cstack
  6247 ;; Tracked objects:
  6248 ;;		On entry : 0/0
  6249 ;;		On exit  : 0/0
  6250 ;;		Unchanged: 0/0
  6251 ;; Data sizes:     COMMON   BANK0   BANK1   BANK3   BANK2
  6252 ;;      Params:         0       0       0       0       0
  6253 ;;      Locals:         1       0       0       0       0
  6254 ;;      Temps:          1       0       0       0       0
  6255 ;;      Totals:         2       0       0       0       0
  6256 ;;Total ram usage:        2 bytes
  6257 ;; Hardware stack levels used:    1
  6258 ;; Hardware stack levels required when called:    2
  6259 ;; This function calls:
  6260 ;;		_WriteDataToLCD
  6261 ;; This function is called by:
  6262 ;;		_DispError
  6263 ;; This function uses a non-reentrant model
  6264 ;;
  6265                           psect	text694
  6266                           	file	"../LCD.c"
  6267                           	line	91
  6268                           	global	__size_of_WriteStringToLCD
  6269  0021                     	__size_of_WriteStringToLCD	equ	__end_of_WriteStringToLCD-_WriteStringToLCD
  6270                           	
  6271  19B0                     _WriteStringToLCD:	
  6272                           	opt	stack 4
  6273                           ; Regs used in _WriteStringToLCD: [wreg-fsr0h+status,2+status,0+pclath+cstack]
  6274                           ;WriteStringToLCD@s stored from wreg
  6275  19B0  00F6               	movwf	(WriteStringToLCD@s)
  6276                           	line	92
  6277                           	
  6278  19B1                     l7426:	
  6279                           ;LCD.c: 92: while(*s)
  6280  19B1  29C3               	goto	l7432
  6281                           	
  6282  19B2                     l1372:	
  6283                           	line	93
  6284                           	
  6285  19B2                     l7428:	
  6286                           ;LCD.c: 93: WriteDataToLCD(*s++);
  6287  19B2  0876               	movf	(WriteStringToLCD@s),w
  6288  19B3  0084               	movwf	fsr0
  6289  19B4  160A  118A  2000   	fcall	stringdir
              160A  158A         
  6290  19B9  120A  158A  2005   	fcall	_WriteDataToLCD
              160A  158A         
  6291                           	
  6292  19BE                     l7430:	
  6293  19BE  3001               	movlw	(01h)
  6294  19BF  00F5               	movwf	(??_WriteStringToLCD+0)+0
  6295  19C0  0875               	movf	(??_WriteStringToLCD+0)+0,w
  6296  19C1  07F6               	addwf	(WriteStringToLCD@s),f
  6297  19C2  29C3               	goto	l7432
  6298                           	
  6299  19C3                     l1371:	
  6300                           	line	92
  6301                           	
  6302  19C3                     l7432:	
  6303  19C3  0876               	movf	(WriteStringToLCD@s),w
  6304  19C4  0084               	movwf	fsr0
  6305  19C5  160A  118A  2000   	fcall	stringdir
              160A  158A         
  6306  19CA  3800               	iorlw	0
  6307  19CB  1D03               	skipz
  6308  19CC  29CE               	goto	u5731
  6309  19CD  29CF               	goto	u5730
  6310  19CE                     u5731:
  6311  19CE  29B2               	goto	l7428
  6312  19CF                     u5730:
  6313  19CF  29D0               	goto	l1374
  6314                           	
  6315  19D0                     l1373:	
  6316                           	line	94
  6317                           	
  6318  19D0                     l1374:	
  6319  19D0  0008               	return
  6320                           	opt stack 0
  6321                           GLOBAL	__end_of_WriteStringToLCD
  6322  19D1                     	__end_of_WriteStringToLCD:
  6323 ;; =============== function _WriteStringToLCD ends ============
  6324                           
  6325                           	signat	_WriteStringToLCD,4216
  6326                           	global	_InitLCD
  6327                           psect	text695,local,class=CODE,delta=2
  6328                           global __ptext695
  6329  1E22                     __ptext695:
  6330                           
  6331 ;; *************** function _InitLCD *****************
  6332 ;; Defined at:
  6333 ;;		line 41 in file "../LCD.c"
  6334 ;; Parameters:    Size  Location     Type
  6335 ;;		None
  6336 ;; Auto vars:     Size  Location     Type
  6337 ;;		None
  6338 ;; Return value:  Size  Location     Type
  6339 ;;		None               void
  6340 ;; Registers used:
  6341 ;;		wreg, status,2, status,0, pclath, cstack
  6342 ;; Tracked objects:
  6343 ;;		On entry : 0/0
  6344 ;;		On exit  : 0/0
  6345 ;;		Unchanged: 0/0
  6346 ;; Data sizes:     COMMON   BANK0   BANK1   BANK3   BANK2
  6347 ;;      Params:         0       0       0       0       0
  6348 ;;      Locals:         0       0       0       0       0
  6349 ;;      Temps:          3       0       0       0       0
  6350 ;;      Totals:         3       0       0       0       0
  6351 ;;Total ram usage:        3 bytes
  6352 ;; Hardware stack levels used:    1
  6353 ;; Hardware stack levels required when called:    2
  6354 ;; This function calls:
  6355 ;;		_ToggleEpinOfLCD
  6356 ;;		_WriteCommandToLCD
  6357 ;; This function is called by:
  6358 ;;		_main
  6359 ;; This function uses a non-reentrant model
  6360 ;;
  6361                           psect	text695
  6362                           	file	"../LCD.c"
  6363                           	line	41
  6364                           	global	__size_of_InitLCD
  6365  0090                     	__size_of_InitLCD	equ	__end_of_InitLCD-_InitLCD
  6366                           	
  6367  1E22                     _InitLCD:	
  6368                           	opt	stack 5
  6369                           ; Regs used in _InitLCD: [wreg+status,2+status,0+pclath+cstack]
  6370                           	line	43
  6371                           	
  6372  1E22                     l7386:	
  6373                           ;LCD.c: 43: RD0 = 0;
  6374  1E22  1283               	bcf	status, 5	;RP0=0, select bank0
  6375  1E23  1303               	bcf	status, 6	;RP1=0, select bank0
  6376  1E24  1008               	bcf	(64/8),(64)&7
  6377                           	line	44
  6378                           ;LCD.c: 44: RD1 = 0;
  6379  1E25  1088               	bcf	(65/8),(65)&7
  6380                           	line	45
  6381                           ;LCD.c: 45: RD4 = 0;
  6382  1E26  1208               	bcf	(68/8),(68)&7
  6383                           	line	46
  6384                           ;LCD.c: 46: RD5 = 0;
  6385  1E27  1288               	bcf	(69/8),(69)&7
  6386                           	line	47
  6387                           ;LCD.c: 47: RD6 = 0;
  6388  1E28  1308               	bcf	(70/8),(70)&7
  6389                           	line	48
  6390                           ;LCD.c: 48: RD7 = 0;
  6391  1E29  1388               	bcf	(71/8),(71)&7
  6392                           	line	49
  6393                           ;LCD.c: 49: TRISD0 = 0;
  6394  1E2A  1683               	bsf	status, 5	;RP0=1, select bank1
  6395  1E2B  1303               	bcf	status, 6	;RP1=0, select bank1
  6396  1E2C  1008               	bcf	(1088/8)^080h,(1088)&7
  6397                           	line	50
  6398                           ;LCD.c: 50: TRISD1 = 0;
  6399  1E2D  1088               	bcf	(1089/8)^080h,(1089)&7
  6400                           	line	51
  6401                           ;LCD.c: 51: TRISD4 = 0;
  6402  1E2E  1208               	bcf	(1092/8)^080h,(1092)&7
  6403                           	line	52
  6404                           ;LCD.c: 52: TRISD5 = 0;
  6405  1E2F  1288               	bcf	(1093/8)^080h,(1093)&7
  6406                           	line	53
  6407                           ;LCD.c: 53: TRISD6 = 0;
  6408  1E30  1308               	bcf	(1094/8)^080h,(1094)&7
  6409                           	line	54
  6410                           ;LCD.c: 54: TRISD7 = 0;
  6411  1E31  1388               	bcf	(1095/8)^080h,(1095)&7
  6412                           	line	57
  6413                           	
  6414  1E32                     l7388:	
  6415                           ;LCD.c: 57: _delay((unsigned long)((40)*(20000000/4000.0)));
  6416                           	opt asmopt_off
  6417  1E32  3002               movlw  2
  6418  1E33  00F7               movwf	((??_InitLCD+0)+0+2),f
  6419  1E34  3004               movlw	4
  6420  1E35  00F6               movwf	((??_InitLCD+0)+0+1),f
  6421  1E36  30BA               	movlw	186
  6422  1E37  00F5               movwf	((??_InitLCD+0)+0),f
  6423  1E38                     u6367:
  6424  1E38  0BF5               	decfsz	((??_InitLCD+0)+0),f
  6425  1E39  2E38               	goto	u6367
  6426  1E3A  0BF6               	decfsz	((??_InitLCD+0)+0+1),f
  6427  1E3B  2E38               	goto	u6367
  6428  1E3C  0BF7               	decfsz	((??_InitLCD+0)+0+2),f
  6429  1E3D  2E38               	goto	u6367
  6430  1E3E  0064               	clrwdt
  6431                           opt asmopt_on
  6432                           
  6433                           	line	59
  6434                           	
  6435  1E3F                     l7390:	
  6436                           ;LCD.c: 59: PORTD &= 0x0F;
  6437  1E3F  300F               	movlw	(0Fh)
  6438  1E40  00F5               	movwf	(??_InitLCD+0)+0
  6439  1E41  0875               	movf	(??_InitLCD+0)+0,w
  6440  1E42  1283               	bcf	status, 5	;RP0=0, select bank0
  6441  1E43  1303               	bcf	status, 6	;RP1=0, select bank0
  6442  1E44  0588               	andwf	(8),f	;volatile
  6443                           	line	60
  6444                           	
  6445  1E45                     l7392:	
  6446                           ;LCD.c: 60: PORTD |= 0x30;
  6447  1E45  3030               	movlw	(030h)
  6448  1E46  00F5               	movwf	(??_InitLCD+0)+0
  6449  1E47  0875               	movf	(??_InitLCD+0)+0,w
  6450  1E48  0488               	iorwf	(8),f	;volatile
  6451                           	line	61
  6452                           	
  6453  1E49                     l7394:	
  6454                           ;LCD.c: 61: ToggleEpinOfLCD();
  6455  1E49  160A  158A  2178   	fcall	_ToggleEpinOfLCD
              160A  158A         
  6456                           	line	63
  6457                           	
  6458  1E4E                     l7396:	
  6459                           ;LCD.c: 63: _delay((unsigned long)((6)*(20000000/4000.0)));
  6460                           	opt asmopt_off
  6461  1E4E  3027               movlw	39
  6462  1E4F  00F6               movwf	((??_InitLCD+0)+0+1),f
  6463  1E50  30F5               	movlw	245
  6464  1E51  00F5               movwf	((??_InitLCD+0)+0),f
  6465  1E52                     u6377:
  6466  1E52  0BF5               	decfsz	((??_InitLCD+0)+0),f
  6467  1E53  2E52               	goto	u6377
  6468  1E54  0BF6               	decfsz	((??_InitLCD+0)+0+1),f
  6469  1E55  2E52               	goto	u6377
  6470                           opt asmopt_on
  6471                           
  6472                           	line	65
  6473                           	
  6474  1E56                     l7398:	
  6475                           ;LCD.c: 65: PORTD &= 0x0F;
  6476  1E56  300F               	movlw	(0Fh)
  6477  1E57  00F5               	movwf	(??_InitLCD+0)+0
  6478  1E58  0875               	movf	(??_InitLCD+0)+0,w
  6479  1E59  1283               	bcf	status, 5	;RP0=0, select bank0
  6480  1E5A  1303               	bcf	status, 6	;RP1=0, select bank0
  6481  1E5B  0588               	andwf	(8),f	;volatile
  6482                           	line	66
  6483                           	
  6484  1E5C                     l7400:	
  6485                           ;LCD.c: 66: PORTD |= 0x30;
  6486  1E5C  3030               	movlw	(030h)
  6487  1E5D  00F5               	movwf	(??_InitLCD+0)+0
  6488  1E5E  0875               	movf	(??_InitLCD+0)+0,w
  6489  1E5F  0488               	iorwf	(8),f	;volatile
  6490                           	line	67
  6491                           ;LCD.c: 67: ToggleEpinOfLCD();
  6492  1E60  160A  158A  2178   	fcall	_ToggleEpinOfLCD
              160A  158A         
  6493                           	line	69
  6494                           	
  6495  1E65                     l7402:	
  6496                           ;LCD.c: 69: _delay((unsigned long)((300)*(20000000/4000000.0)));
  6497                           	opt asmopt_off
  6498  1E65  30D6               movlw	214
  6499  1E66  00F5               movwf	(??_InitLCD+0)+0,f
  6500  1E67                     u6387:
  6501  1E67  2E68               	nop2
  6502  1E68  2E69               	nop2
  6503  1E69  0BF5               decfsz	(??_InitLCD+0)+0,f
  6504  1E6A  2E67               	goto	u6387
  6505  1E6B  0064               	clrwdt
  6506                           opt asmopt_on
  6507                           
  6508                           	line	71
  6509                           	
  6510  1E6C                     l7404:	
  6511                           ;LCD.c: 71: PORTD &= 0x0F;
  6512  1E6C  300F               	movlw	(0Fh)
  6513  1E6D  00F5               	movwf	(??_InitLCD+0)+0
  6514  1E6E  0875               	movf	(??_InitLCD+0)+0,w
  6515  1E6F  1283               	bcf	status, 5	;RP0=0, select bank0
  6516  1E70  1303               	bcf	status, 6	;RP1=0, select bank0
  6517  1E71  0588               	andwf	(8),f	;volatile
  6518                           	line	72
  6519                           	
  6520  1E72                     l7406:	
  6521                           ;LCD.c: 72: PORTD |= 0x30;
  6522  1E72  3030               	movlw	(030h)
  6523  1E73  00F5               	movwf	(??_InitLCD+0)+0
  6524  1E74  0875               	movf	(??_InitLCD+0)+0,w
  6525  1E75  0488               	iorwf	(8),f	;volatile
  6526                           	line	73
  6527                           	
  6528  1E76                     l7408:	
  6529                           ;LCD.c: 73: ToggleEpinOfLCD();
  6530  1E76  160A  158A  2178   	fcall	_ToggleEpinOfLCD
              160A  158A         
  6531                           	line	75
  6532                           ;LCD.c: 75: _delay((unsigned long)((2)*(20000000/4000.0)));
  6533                           	opt asmopt_off
  6534  1E7B  300D               movlw	13
  6535  1E7C  00F6               movwf	((??_InitLCD+0)+0+1),f
  6536  1E7D  30FB               	movlw	251
  6537  1E7E  00F5               movwf	((??_InitLCD+0)+0),f
  6538  1E7F                     u6397:
  6539  1E7F  0BF5               	decfsz	((??_InitLCD+0)+0),f
  6540  1E80  2E7F               	goto	u6397
  6541  1E81  0BF6               	decfsz	((??_InitLCD+0)+0+1),f
  6542  1E82  2E7F               	goto	u6397
  6543  1E83  2E84               	nop2
  6544                           opt asmopt_on
  6545                           
  6546                           	line	77
  6547                           	
  6548  1E84                     l7410:	
  6549                           ;LCD.c: 77: PORTD &= 0x0F;
  6550  1E84  300F               	movlw	(0Fh)
  6551  1E85  00F5               	movwf	(??_InitLCD+0)+0
  6552  1E86  0875               	movf	(??_InitLCD+0)+0,w
  6553  1E87  1283               	bcf	status, 5	;RP0=0, select bank0
  6554  1E88  1303               	bcf	status, 6	;RP1=0, select bank0
  6555  1E89  0588               	andwf	(8),f	;volatile
  6556                           	line	78
  6557                           	
  6558  1E8A                     l7412:	
  6559                           ;LCD.c: 78: PORTD |= 0x20;
  6560  1E8A  1688               	bsf	(8)+(5/8),(5)&7	;volatile
  6561                           	line	79
  6562                           	
  6563  1E8B                     l7414:	
  6564                           ;LCD.c: 79: ToggleEpinOfLCD();
  6565  1E8B  160A  158A  2178   	fcall	_ToggleEpinOfLCD
              160A  158A         
  6566                           	line	81
  6567                           	
  6568  1E90                     l7416:	
  6569                           ;LCD.c: 81: _delay((unsigned long)((2)*(20000000/4000.0)));
  6570                           	opt asmopt_off
  6571  1E90  300D               movlw	13
  6572  1E91  00F6               movwf	((??_InitLCD+0)+0+1),f
  6573  1E92  30FB               	movlw	251
  6574  1E93  00F5               movwf	((??_InitLCD+0)+0),f
  6575  1E94                     u6407:
  6576  1E94  0BF5               	decfsz	((??_InitLCD+0)+0),f
  6577  1E95  2E94               	goto	u6407
  6578  1E96  0BF6               	decfsz	((??_InitLCD+0)+0+1),f
  6579  1E97  2E94               	goto	u6407
  6580  1E98  2E99               	nop2
  6581                           opt asmopt_on
  6582                           
  6583                           	line	83
  6584                           	
  6585  1E99                     l7418:	
  6586                           ;LCD.c: 83: WriteCommandToLCD(0x28);
  6587  1E99  3028               	movlw	(028h)
  6588  1E9A  160A  158A  21FB   	fcall	_WriteCommandToLCD
              160A  158A         
  6589                           	line	84
  6590                           	
  6591  1E9F                     l7420:	
  6592                           ;LCD.c: 84: WriteCommandToLCD(0x0c);
  6593  1E9F  300C               	movlw	(0Ch)
  6594  1EA0  160A  158A  21FB   	fcall	_WriteCommandToLCD
              160A  158A         
  6595                           	line	85
  6596                           	
  6597  1EA5                     l7422:	
  6598                           ;LCD.c: 85: WriteCommandToLCD(0x01);
  6599  1EA5  3001               	movlw	(01h)
  6600  1EA6  160A  158A  21FB   	fcall	_WriteCommandToLCD
              160A  158A         
  6601                           	line	86
  6602                           	
  6603  1EAB                     l7424:	
  6604                           ;LCD.c: 86: WriteCommandToLCD(0x06);
  6605  1EAB  3006               	movlw	(06h)
  6606  1EAC  160A  158A  21FB   	fcall	_WriteCommandToLCD
              160A  158A         
  6607                           	line	87
  6608                           	
  6609  1EB1                     l1368:	
  6610  1EB1  0008               	return
  6611                           	opt stack 0
  6612                           GLOBAL	__end_of_InitLCD
  6613  1EB2                     	__end_of_InitLCD:
  6614 ;; =============== function _InitLCD ends ============
  6615                           
  6616                           	signat	_InitLCD,88
  6617                           	global	___ftsub
  6618                           psect	text696,local,class=CODE,delta=2
  6619                           global __ptext696
  6620  1991                     __ptext696:
  6621                           
  6622 ;; *************** function ___ftsub *****************
  6623 ;; Defined at:
  6624 ;;		line 17 in file "C:\Program Files (x86)\HI-TECH Software\PICC\9.82\sources\ftsub.c"
  6625 ;; Parameters:    Size  Location     Type
  6626 ;;  f2              3   50[BANK0 ] float 
  6627 ;;  f1              3   53[BANK0 ] float 
  6628 ;; Auto vars:     Size  Location     Type
  6629 ;;		None
  6630 ;; Return value:  Size  Location     Type
  6631 ;;                  3   50[BANK0 ] float 
  6632 ;; Registers used:
  6633 ;;		wreg, status,2, status,0, pclath, cstack
  6634 ;; Tracked objects:
  6635 ;;		On entry : 0/0
  6636 ;;		On exit  : 0/0
  6637 ;;		Unchanged: 0/0
  6638 ;; Data sizes:     COMMON   BANK0   BANK1   BANK3   BANK2
  6639 ;;      Params:         0       6       0       0       0
  6640 ;;      Locals:         0       0       0       0       0
  6641 ;;      Temps:          0       0       0       0       0
  6642 ;;      Totals:         0       6       0       0       0
  6643 ;;Total ram usage:        6 bytes
  6644 ;; Hardware stack levels used:    1
  6645 ;; Hardware stack levels required when called:    2
  6646 ;; This function calls:
  6647 ;;		___ftadd
  6648 ;; This function is called by:
  6649 ;;		_sprintf
  6650 ;;		_sqrt
  6651 ;; This function uses a non-reentrant model
  6652 ;;
  6653                           psect	text696
  6654                           	file	"C:\Program Files (x86)\HI-TECH Software\PICC\9.82\sources\ftsub.c"
  6655                           	line	17
  6656                           	global	__size_of___ftsub
  6657  001F                     	__size_of___ftsub	equ	__end_of___ftsub-___ftsub
  6658                           	
  6659  1991                     ___ftsub:	
  6660                           	opt	stack 4
  6661                           ; Regs used in ___ftsub: [wreg+status,2+status,0+pclath+cstack]
  6662                           	line	18
  6663                           	
  6664  1991                     l7380:	
  6665  1991  3080               	movlw	080h
  6666  1992  1283               	bcf	status, 5	;RP0=0, select bank0
  6667  1993  1303               	bcf	status, 6	;RP1=0, select bank0
  6668  1994  06D4               	xorwf	(___ftsub@f2+2),f
  6669                           	line	19
  6670                           	
  6671  1995                     l7382:	
  6672  1995  0855               	movf	(___ftsub@f1),w
  6673  1996  00C5               	movwf	(?___ftadd)
  6674  1997  0856               	movf	(___ftsub@f1+1),w
  6675  1998  00C6               	movwf	(?___ftadd+1)
  6676  1999  0857               	movf	(___ftsub@f1+2),w
  6677  199A  00C7               	movwf	(?___ftadd+2)
  6678  199B  0852               	movf	(___ftsub@f2),w
  6679  199C  00C8               	movwf	0+(?___ftadd)+03h
  6680  199D  0853               	movf	(___ftsub@f2+1),w
  6681  199E  00C9               	movwf	1+(?___ftadd)+03h
  6682  199F  0854               	movf	(___ftsub@f2+2),w
  6683  19A0  00CA               	movwf	2+(?___ftadd)+03h
  6684  19A1  160A  118A  21E6   	fcall	___ftadd
              160A  158A         
  6685  19A6  1283               	bcf	status, 5	;RP0=0, select bank0
  6686  19A7  1303               	bcf	status, 6	;RP1=0, select bank0
  6687  19A8  0845               	movf	(0+(?___ftadd)),w
  6688  19A9  00D2               	movwf	(?___ftsub)
  6689  19AA  0846               	movf	(1+(?___ftadd)),w
  6690  19AB  00D3               	movwf	(?___ftsub+1)
  6691  19AC  0847               	movf	(2+(?___ftadd)),w
  6692  19AD  00D4               	movwf	(?___ftsub+2)
  6693  19AE  29AF               	goto	l2967
  6694                           	
  6695  19AF                     l7384:	
  6696                           	line	20
  6697                           	
  6698  19AF                     l2967:	
  6699  19AF  0008               	return
  6700                           	opt stack 0
  6701                           GLOBAL	__end_of___ftsub
  6702  19B0                     	__end_of___ftsub:
  6703 ;; =============== function ___ftsub ends ============
  6704                           
  6705                           	signat	___ftsub,8315
  6706                           	global	_scale
  6707                           psect	text697,local,class=CODE,delta=2
  6708                           global __ptext697
  6709  0913                     __ptext697:
  6710                           
  6711 ;; *************** function _scale *****************
  6712 ;; Defined at:
  6713 ;;		line 422 in file "C:\Program Files (x86)\HI-TECH Software\PICC\9.82\lib\doprnt.c"
  6714 ;; Parameters:    Size  Location     Type
  6715 ;;  scl             1    wreg     char 
  6716 ;; Auto vars:     Size  Location     Type
  6717 ;;  scl             1   45[BANK0 ] char 
  6718 ;; Return value:  Size  Location     Type
  6719 ;;                  3   37[BANK0 ] char 
  6720 ;; Registers used:
  6721 ;;		wreg, fsr0l, fsr0h, status,2, status,0, pclath, cstack
  6722 ;; Tracked objects:
  6723 ;;		On entry : 0/0
  6724 ;;		On exit  : 0/0
  6725 ;;		Unchanged: 0/0
  6726 ;; Data sizes:     COMMON   BANK0   BANK1   BANK3   BANK2
  6727 ;;      Params:         0       3       0       0       0
  6728 ;;      Locals:         0       4       0       0       0
  6729 ;;      Temps:          0       2       0       0       0
  6730 ;;      Totals:         0       9       0       0       0
  6731 ;;Total ram usage:        9 bytes
  6732 ;; Hardware stack levels used:    1
  6733 ;; Hardware stack levels required when called:    2
  6734 ;; This function calls:
  6735 ;;		___awmod
  6736 ;;		___bmul
  6737 ;;		___awdiv
  6738 ;;		___ftmul
  6739 ;; This function is called by:
  6740 ;;		_sprintf
  6741 ;; This function uses a non-reentrant model
  6742 ;;
  6743                           psect	text697
  6744                           	file	"C:\Program Files (x86)\HI-TECH Software\PICC\9.82\sources\doprnt.c"
  6745                           	line	422
  6746                           	global	__size_of_scale
  6747  02BF                     	__size_of_scale	equ	__end_of_scale-_scale
  6748                           	
  6749  0913                     _scale:	
  6750                           	opt	stack 4
  6751                           ; Regs used in _scale: [wreg-fsr0h+status,2+status,0+pclath+cstack]
  6752                           ;scale@scl stored from wreg
  6753                           	line	424
  6754  0913  1283               	bcf	status, 5	;RP0=0, select bank0
  6755  0914  1303               	bcf	status, 6	;RP1=0, select bank0
  6756  0915  00CD               	movwf	(scale@scl)
  6757                           	
  6758  0916                     l7340:	
  6759  0916  1FCD               	btfss	(scale@scl),7
  6760  0917  2919               	goto	u5681
  6761  0918  291A               	goto	u5680
  6762  0919                     u5681:
  6763  0919  2A77               	goto	l7362
  6764  091A                     u5680:
  6765                           	line	425
  6766                           	
  6767  091A                     l7342:	
  6768  091A  09CD               	comf	(scale@scl),f
  6769  091B  0ACD               	incf	(scale@scl),f
  6770                           	line	426
  6771                           	
  6772  091C                     l7344:	
  6773  091C  084D               	movf	(scale@scl),w
  6774  091D  3A80               	xorlw	80h
  6775  091E  3E12               	addlw	-((06Eh)^80h)
  6776  091F  1C03               	skipc
  6777  0920  2922               	goto	u5691
  6778  0921  2923               	goto	u5690
  6779  0922                     u5691:
  6780  0922  29E1               	goto	l7352
  6781  0923                     u5690:
  6782                           	line	427
  6783                           	
  6784  0923                     l7346:	
  6785  0923  3003               	movlw	(03h)
  6786  0924  00C8               	movwf	(??_scale+0)+0
  6787  0925  0848               	movf	(??_scale+0)+0,w
  6788  0926  00A4               	movwf	(?___bmul)
  6789  0927  300A               	movlw	low(0Ah)
  6790  0928  00F7               	movwf	(?___awdiv)
  6791  0929  3000               	movlw	high(0Ah)
  6792  092A  00F8               	movwf	((?___awdiv))+1
  6793  092B  084D               	movf	(scale@scl),w
  6794  092C  00F2               	movwf	0+(?___awmod)+02h
  6795  092D  01F3               	clrf	1+(?___awmod)+02h
  6796  092E  1BF2               	btfsc	0+(?___awmod)+02h,7
  6797  092F  03F3               	decf	1+(?___awmod)+02h,f
  6798  0930  3064               	movlw	low(064h)
  6799  0931  00F0               	movwf	(?___awmod)
  6800  0932  3000               	movlw	high(064h)
  6801  0933  00F1               	movwf	((?___awmod))+1
  6802  0934  160A  158A  2382   	fcall	___awmod
              120A  158A         
  6803  0939  0871               	movf	(1+(?___awmod)),w
  6804  093A  01FA               	clrf	1+(?___awdiv)+02h
  6805  093B  07FA               	addwf	1+(?___awdiv)+02h
  6806  093C  0870               	movf	(0+(?___awmod)),w
  6807  093D  01F9               	clrf	0+(?___awdiv)+02h
  6808  093E  07F9               	addwf	0+(?___awdiv)+02h
  6809                           
  6810  093F  160A  158A  2531   	fcall	___awdiv
              120A  158A         
  6811  0944  0877               	movf	(0+(?___awdiv)),w
  6812  0945  3E09               	addlw	09h
  6813  0946  120A  118A  2004   	fcall	___bmul
              120A  158A         
  6814  094B  3E29               	addlw	low((__npowers_-__stringbase))
  6815  094C  0084               	movwf	fsr0
  6816  094D  160A  118A  2000   	fcall	stringdir
              120A  158A         
  6817  0952  1283               	bcf	status, 5	;RP0=0, select bank0
  6818  0953  1303               	bcf	status, 6	;RP1=0, select bank0
  6819  0954  00B5               	movwf	(?___ftmul)
  6820  0955  160A  118A  2000   	fcall	stringdir
              120A  158A         
  6821  095A  00B6               	movwf	(?___ftmul+1)
  6822  095B  160A  118A  2000   	fcall	stringdir
              120A  158A         
  6823  0960  00B7               	movwf	(?___ftmul+2)
  6824  0961  3003               	movlw	(03h)
  6825  0962  00C9               	movwf	(??_scale+1)+0
  6826  0963  0849               	movf	(??_scale+1)+0,w
  6827  0964  00A4               	movwf	(?___bmul)
  6828  0965  3064               	movlw	low(064h)
  6829  0966  00F7               	movwf	(?___awdiv)
  6830  0967  3000               	movlw	high(064h)
  6831  0968  00F8               	movwf	((?___awdiv))+1
  6832  0969  084D               	movf	(scale@scl),w
  6833  096A  00F9               	movwf	0+(?___awdiv)+02h
  6834  096B  01FA               	clrf	1+(?___awdiv)+02h
  6835  096C  1BF9               	btfsc	0+(?___awdiv)+02h,7
  6836  096D  03FA               	decf	1+(?___awdiv)+02h,f
  6837  096E  160A  158A  2531   	fcall	___awdiv
              120A  158A         
  6838  0973  0877               	movf	(0+(?___awdiv)),w
  6839  0974  3E12               	addlw	012h
  6840  0975  120A  118A  2004   	fcall	___bmul
              120A  158A         
  6841  097A  3E29               	addlw	low((__npowers_-__stringbase))
  6842  097B  0084               	movwf	fsr0
  6843  097C  160A  118A  2000   	fcall	stringdir
              120A  158A         
  6844  0981  1283               	bcf	status, 5	;RP0=0, select bank0
  6845  0982  1303               	bcf	status, 6	;RP1=0, select bank0
  6846  0983  00B8               	movwf	0+(?___ftmul)+03h
  6847  0984  160A  118A  2000   	fcall	stringdir
              120A  158A         
  6848  0989  00B9               	movwf	1+(?___ftmul)+03h
  6849  098A  160A  118A  2000   	fcall	stringdir
              120A  158A         
  6850  098F  00BA               	movwf	2+(?___ftmul)+03h
  6851  0990  120A  118A  201E   	fcall	___ftmul
              120A  158A         
  6852  0995  1283               	bcf	status, 5	;RP0=0, select bank0
  6853  0996  1303               	bcf	status, 6	;RP1=0, select bank0
  6854  0997  0835               	movf	(0+(?___ftmul)),w
  6855  0998  00CA               	movwf	(_scale$3635)
  6856  0999  0836               	movf	(1+(?___ftmul)),w
  6857  099A  00CB               	movwf	(_scale$3635+1)
  6858  099B  0837               	movf	(2+(?___ftmul)),w
  6859  099C  00CC               	movwf	(_scale$3635+2)
  6860  099D  3003               	movlw	(03h)
  6861  099E  00C8               	movwf	(??_scale+0)+0
  6862  099F  0848               	movf	(??_scale+0)+0,w
  6863  09A0  00A4               	movwf	(?___bmul)
  6864  09A1  084D               	movf	(scale@scl),w
  6865  09A2  00F2               	movwf	0+(?___awmod)+02h
  6866  09A3  01F3               	clrf	1+(?___awmod)+02h
  6867  09A4  1BF2               	btfsc	0+(?___awmod)+02h,7
  6868  09A5  03F3               	decf	1+(?___awmod)+02h,f
  6869  09A6  300A               	movlw	low(0Ah)
  6870  09A7  00F0               	movwf	(?___awmod)
  6871  09A8  3000               	movlw	high(0Ah)
  6872  09A9  00F1               	movwf	((?___awmod))+1
  6873  09AA  160A  158A  2382   	fcall	___awmod
              120A  158A         
  6874  09AF  0870               	movf	(0+(?___awmod)),w
  6875  09B0  120A  118A  2004   	fcall	___bmul
              120A  158A         
  6876  09B5  3E29               	addlw	low((__npowers_-__stringbase))
  6877  09B6  0084               	movwf	fsr0
  6878  09B7  160A  118A  2000   	fcall	stringdir
              120A  158A         
  6879  09BC  1283               	bcf	status, 5	;RP0=0, select bank0
  6880  09BD  1303               	bcf	status, 6	;RP1=0, select bank0
  6881  09BE  00B5               	movwf	(?___ftmul)
  6882  09BF  160A  118A  2000   	fcall	stringdir
              120A  158A         
  6883  09C4  00B6               	movwf	(?___ftmul+1)
  6884  09C5  160A  118A  2000   	fcall	stringdir
              120A  158A         
  6885  09CA  00B7               	movwf	(?___ftmul+2)
  6886  09CB  084A               	movf	(_scale$3635),w
  6887  09CC  00B8               	movwf	0+(?___ftmul)+03h
  6888  09CD  084B               	movf	(_scale$3635+1),w
  6889  09CE  00B9               	movwf	1+(?___ftmul)+03h
  6890  09CF  084C               	movf	(_scale$3635+2),w
  6891  09D0  00BA               	movwf	2+(?___ftmul)+03h
  6892  09D1  120A  118A  201E   	fcall	___ftmul
              120A  158A         
  6893  09D6  1283               	bcf	status, 5	;RP0=0, select bank0
  6894  09D7  1303               	bcf	status, 6	;RP1=0, select bank0
  6895  09D8  0835               	movf	(0+(?___ftmul)),w
  6896  09D9  00C5               	movwf	(?_scale)
  6897  09DA  0836               	movf	(1+(?___ftmul)),w
  6898  09DB  00C6               	movwf	(?_scale+1)
  6899  09DC  0837               	movf	(2+(?___ftmul)),w
  6900  09DD  00C7               	movwf	(?_scale+2)
  6901  09DE  2BD1               	goto	l2155
  6902                           	
  6903  09DF                     l7348:	
  6904  09DF  2BD1               	goto	l2155
  6905                           	
  6906  09E0                     l7350:	
  6907  09E0  2A55               	goto	l7358
  6908                           	line	428
  6909                           	
  6910  09E1                     l2154:	
  6911                           	
  6912  09E1                     l7352:	
  6913  09E1  084D               	movf	(scale@scl),w
  6914  09E2  3A80               	xorlw	80h
  6915  09E3  3E75               	addlw	-((0Bh)^80h)
  6916  09E4  1C03               	skipc
  6917  09E5  29E7               	goto	u5701
  6918  09E6  29E8               	goto	u5700
  6919  09E7                     u5701:
  6920  09E7  2A55               	goto	l7358
  6921  09E8                     u5700:
  6922                           	line	429
  6923                           	
  6924  09E8                     l7354:	
  6925  09E8  3003               	movlw	(03h)
  6926  09E9  00C8               	movwf	(??_scale+0)+0
  6927  09EA  0848               	movf	(??_scale+0)+0,w
  6928  09EB  00A4               	movwf	(?___bmul)
  6929  09EC  084D               	movf	(scale@scl),w
  6930  09ED  00F2               	movwf	0+(?___awmod)+02h
  6931  09EE  01F3               	clrf	1+(?___awmod)+02h
  6932  09EF  1BF2               	btfsc	0+(?___awmod)+02h,7
  6933  09F0  03F3               	decf	1+(?___awmod)+02h,f
  6934  09F1  300A               	movlw	low(0Ah)
  6935  09F2  00F0               	movwf	(?___awmod)
  6936  09F3  3000               	movlw	high(0Ah)
  6937  09F4  00F1               	movwf	((?___awmod))+1
  6938  09F5  160A  158A  2382   	fcall	___awmod
              120A  158A         
  6939  09FA  0870               	movf	(0+(?___awmod)),w
  6940  09FB  120A  118A  2004   	fcall	___bmul
              120A  158A         
  6941  0A00  3E29               	addlw	low((__npowers_-__stringbase))
  6942  0A01  0084               	movwf	fsr0
  6943  0A02  160A  118A  2000   	fcall	stringdir
              120A  158A         
  6944  0A07  1283               	bcf	status, 5	;RP0=0, select bank0
  6945  0A08  1303               	bcf	status, 6	;RP1=0, select bank0
  6946  0A09  00B5               	movwf	(?___ftmul)
  6947  0A0A  160A  118A  2000   	fcall	stringdir
              120A  158A         
  6948  0A0F  00B6               	movwf	(?___ftmul+1)
  6949  0A10  160A  118A  2000   	fcall	stringdir
              120A  158A         
  6950  0A15  00B7               	movwf	(?___ftmul+2)
  6951  0A16  3003               	movlw	(03h)
  6952  0A17  00C9               	movwf	(??_scale+1)+0
  6953  0A18  0849               	movf	(??_scale+1)+0,w
  6954  0A19  00A4               	movwf	(?___bmul)
  6955  0A1A  300A               	movlw	low(0Ah)
  6956  0A1B  00F7               	movwf	(?___awdiv)
  6957  0A1C  3000               	movlw	high(0Ah)
  6958  0A1D  00F8               	movwf	((?___awdiv))+1
  6959  0A1E  084D               	movf	(scale@scl),w
  6960  0A1F  00F9               	movwf	0+(?___awdiv)+02h
  6961  0A20  01FA               	clrf	1+(?___awdiv)+02h
  6962  0A21  1BF9               	btfsc	0+(?___awdiv)+02h,7
  6963  0A22  03FA               	decf	1+(?___awdiv)+02h,f
  6964  0A23  160A  158A  2531   	fcall	___awdiv
              120A  158A         
  6965  0A28  0877               	movf	(0+(?___awdiv)),w
  6966  0A29  3E09               	addlw	09h
  6967  0A2A  120A  118A  2004   	fcall	___bmul
              120A  158A         
  6968  0A2F  3E29               	addlw	low((__npowers_-__stringbase))
  6969  0A30  0084               	movwf	fsr0
  6970  0A31  160A  118A  2000   	fcall	stringdir
              120A  158A         
  6971  0A36  1283               	bcf	status, 5	;RP0=0, select bank0
  6972  0A37  1303               	bcf	status, 6	;RP1=0, select bank0
  6973  0A38  00B8               	movwf	0+(?___ftmul)+03h
  6974  0A39  160A  118A  2000   	fcall	stringdir
              120A  158A         
  6975  0A3E  00B9               	movwf	1+(?___ftmul)+03h
  6976  0A3F  160A  118A  2000   	fcall	stringdir
              120A  158A         
  6977  0A44  00BA               	movwf	2+(?___ftmul)+03h
  6978  0A45  120A  118A  201E   	fcall	___ftmul
              120A  158A         
  6979  0A4A  1283               	bcf	status, 5	;RP0=0, select bank0
  6980  0A4B  1303               	bcf	status, 6	;RP1=0, select bank0
  6981  0A4C  0835               	movf	(0+(?___ftmul)),w
  6982  0A4D  00C5               	movwf	(?_scale)
  6983  0A4E  0836               	movf	(1+(?___ftmul)),w
  6984  0A4F  00C6               	movwf	(?_scale+1)
  6985  0A50  0837               	movf	(2+(?___ftmul)),w
  6986  0A51  00C7               	movwf	(?_scale+2)
  6987  0A52  2BD1               	goto	l2155
  6988                           	
  6989  0A53                     l7356:	
  6990  0A53  2BD1               	goto	l2155
  6991                           	
  6992  0A54                     l2157:	
  6993  0A54  2A55               	goto	l7358
  6994                           	line	430
  6995                           	
  6996  0A55                     l2156:	
  6997                           	
  6998  0A55                     l7358:	
  6999  0A55  3003               	movlw	(03h)
  7000  0A56  00C8               	movwf	(??_scale+0)+0
  7001  0A57  0848               	movf	(??_scale+0)+0,w
  7002  0A58  00A4               	movwf	(?___bmul)
  7003  0A59  084D               	movf	(scale@scl),w
  7004  0A5A  120A  118A  2004   	fcall	___bmul
              120A  158A         
  7005  0A5F  3E29               	addlw	low((__npowers_-__stringbase))
  7006  0A60  0084               	movwf	fsr0
  7007  0A61  160A  118A  2000   	fcall	stringdir
              120A  158A         
  7008  0A66  1283               	bcf	status, 5	;RP0=0, select bank0
  7009  0A67  1303               	bcf	status, 6	;RP1=0, select bank0
  7010  0A68  00C5               	movwf	(?_scale)
  7011  0A69  160A  118A  2000   	fcall	stringdir
              120A  158A         
  7012  0A6E  00C6               	movwf	(?_scale+1)
  7013  0A6F  160A  118A  2000   	fcall	stringdir
              120A  158A         
  7014  0A74  00C7               	movwf	(?_scale+2)
  7015  0A75  2BD1               	goto	l2155
  7016                           	
  7017  0A76                     l7360:	
  7018  0A76  2BD1               	goto	l2155
  7019                           	line	431
  7020                           	
  7021  0A77                     l2153:	
  7022                           	line	432
  7023                           	
  7024  0A77                     l7362:	
  7025  0A77  084D               	movf	(scale@scl),w
  7026  0A78  3A80               	xorlw	80h
  7027  0A79  3E12               	addlw	-((06Eh)^80h)
  7028  0A7A  1C03               	skipc
  7029  0A7B  2A7D               	goto	u5711
  7030  0A7C  2A7E               	goto	u5710
  7031  0A7D                     u5711:
  7032  0A7D  2B3C               	goto	l7370
  7033  0A7E                     u5710:
  7034                           	line	433
  7035                           	
  7036  0A7E                     l7364:	
  7037  0A7E  3003               	movlw	(03h)
  7038  0A7F  00C8               	movwf	(??_scale+0)+0
  7039  0A80  0848               	movf	(??_scale+0)+0,w
  7040  0A81  00A4               	movwf	(?___bmul)
  7041  0A82  300A               	movlw	low(0Ah)
  7042  0A83  00F7               	movwf	(?___awdiv)
  7043  0A84  3000               	movlw	high(0Ah)
  7044  0A85  00F8               	movwf	((?___awdiv))+1
  7045  0A86  084D               	movf	(scale@scl),w
  7046  0A87  00F2               	movwf	0+(?___awmod)+02h
  7047  0A88  01F3               	clrf	1+(?___awmod)+02h
  7048  0A89  1BF2               	btfsc	0+(?___awmod)+02h,7
  7049  0A8A  03F3               	decf	1+(?___awmod)+02h,f
  7050  0A8B  3064               	movlw	low(064h)
  7051  0A8C  00F0               	movwf	(?___awmod)
  7052  0A8D  3000               	movlw	high(064h)
  7053  0A8E  00F1               	movwf	((?___awmod))+1
  7054  0A8F  160A  158A  2382   	fcall	___awmod
              120A  158A         
  7055  0A94  0871               	movf	(1+(?___awmod)),w
  7056  0A95  01FA               	clrf	1+(?___awdiv)+02h
  7057  0A96  07FA               	addwf	1+(?___awdiv)+02h
  7058  0A97  0870               	movf	(0+(?___awmod)),w
  7059  0A98  01F9               	clrf	0+(?___awdiv)+02h
  7060  0A99  07F9               	addwf	0+(?___awdiv)+02h
  7061                           
  7062  0A9A  160A  158A  2531   	fcall	___awdiv
              120A  158A         
  7063  0A9F  0877               	movf	(0+(?___awdiv)),w
  7064  0AA0  3E09               	addlw	09h
  7065  0AA1  120A  118A  2004   	fcall	___bmul
              120A  158A         
  7066  0AA6  3E50               	addlw	low((__powers_-__stringbase))
  7067  0AA7  0084               	movwf	fsr0
  7068  0AA8  160A  118A  2000   	fcall	stringdir
              120A  158A         
  7069  0AAD  1283               	bcf	status, 5	;RP0=0, select bank0
  7070  0AAE  1303               	bcf	status, 6	;RP1=0, select bank0
  7071  0AAF  00B5               	movwf	(?___ftmul)
  7072  0AB0  160A  118A  2000   	fcall	stringdir
              120A  158A         
  7073  0AB5  00B6               	movwf	(?___ftmul+1)
  7074  0AB6  160A  118A  2000   	fcall	stringdir
              120A  158A         
  7075  0ABB  00B7               	movwf	(?___ftmul+2)
  7076  0ABC  3003               	movlw	(03h)
  7077  0ABD  00C9               	movwf	(??_scale+1)+0
  7078  0ABE  0849               	movf	(??_scale+1)+0,w
  7079  0ABF  00A4               	movwf	(?___bmul)
  7080  0AC0  3064               	movlw	low(064h)
  7081  0AC1  00F7               	movwf	(?___awdiv)
  7082  0AC2  3000               	movlw	high(064h)
  7083  0AC3  00F8               	movwf	((?___awdiv))+1
  7084  0AC4  084D               	movf	(scale@scl),w
  7085  0AC5  00F9               	movwf	0+(?___awdiv)+02h
  7086  0AC6  01FA               	clrf	1+(?___awdiv)+02h
  7087  0AC7  1BF9               	btfsc	0+(?___awdiv)+02h,7
  7088  0AC8  03FA               	decf	1+(?___awdiv)+02h,f
  7089  0AC9  160A  158A  2531   	fcall	___awdiv
              120A  158A         
  7090  0ACE  0877               	movf	(0+(?___awdiv)),w
  7091  0ACF  3E12               	addlw	012h
  7092  0AD0  120A  118A  2004   	fcall	___bmul
              120A  158A         
  7093  0AD5  3E50               	addlw	low((__powers_-__stringbase))
  7094  0AD6  0084               	movwf	fsr0
  7095  0AD7  160A  118A  2000   	fcall	stringdir
              120A  158A         
  7096  0ADC  1283               	bcf	status, 5	;RP0=0, select bank0
  7097  0ADD  1303               	bcf	status, 6	;RP1=0, select bank0
  7098  0ADE  00B8               	movwf	0+(?___ftmul)+03h
  7099  0ADF  160A  118A  2000   	fcall	stringdir
              120A  158A         
  7100  0AE4  00B9               	movwf	1+(?___ftmul)+03h
  7101  0AE5  160A  118A  2000   	fcall	stringdir
              120A  158A         
  7102  0AEA  00BA               	movwf	2+(?___ftmul)+03h
  7103  0AEB  120A  118A  201E   	fcall	___ftmul
              120A  158A         
  7104  0AF0  1283               	bcf	status, 5	;RP0=0, select bank0
  7105  0AF1  1303               	bcf	status, 6	;RP1=0, select bank0
  7106  0AF2  0835               	movf	(0+(?___ftmul)),w
  7107  0AF3  00CA               	movwf	(_scale$3635)
  7108  0AF4  0836               	movf	(1+(?___ftmul)),w
  7109  0AF5  00CB               	movwf	(_scale$3635+1)
  7110  0AF6  0837               	movf	(2+(?___ftmul)),w
  7111  0AF7  00CC               	movwf	(_scale$3635+2)
  7112  0AF8  3003               	movlw	(03h)
  7113  0AF9  00C8               	movwf	(??_scale+0)+0
  7114  0AFA  0848               	movf	(??_scale+0)+0,w
  7115  0AFB  00A4               	movwf	(?___bmul)
  7116  0AFC  084D               	movf	(scale@scl),w
  7117  0AFD  00F2               	movwf	0+(?___awmod)+02h
  7118  0AFE  01F3               	clrf	1+(?___awmod)+02h
  7119  0AFF  1BF2               	btfsc	0+(?___awmod)+02h,7
  7120  0B00  03F3               	decf	1+(?___awmod)+02h,f
  7121  0B01  300A               	movlw	low(0Ah)
  7122  0B02  00F0               	movwf	(?___awmod)
  7123  0B03  3000               	movlw	high(0Ah)
  7124  0B04  00F1               	movwf	((?___awmod))+1
  7125  0B05  160A  158A  2382   	fcall	___awmod
              120A  158A         
  7126  0B0A  0870               	movf	(0+(?___awmod)),w
  7127  0B0B  120A  118A  2004   	fcall	___bmul
              120A  158A         
  7128  0B10  3E50               	addlw	low((__powers_-__stringbase))
  7129  0B11  0084               	movwf	fsr0
  7130  0B12  160A  118A  2000   	fcall	stringdir
              120A  158A         
  7131  0B17  1283               	bcf	status, 5	;RP0=0, select bank0
  7132  0B18  1303               	bcf	status, 6	;RP1=0, select bank0
  7133  0B19  00B5               	movwf	(?___ftmul)
  7134  0B1A  160A  118A  2000   	fcall	stringdir
              120A  158A         
  7135  0B1F  00B6               	movwf	(?___ftmul+1)
  7136  0B20  160A  118A  2000   	fcall	stringdir
              120A  158A         
  7137  0B25  00B7               	movwf	(?___ftmul+2)
  7138  0B26  084A               	movf	(_scale$3635),w
  7139  0B27  00B8               	movwf	0+(?___ftmul)+03h
  7140  0B28  084B               	movf	(_scale$3635+1),w
  7141  0B29  00B9               	movwf	1+(?___ftmul)+03h
  7142  0B2A  084C               	movf	(_scale$3635+2),w
  7143  0B2B  00BA               	movwf	2+(?___ftmul)+03h
  7144  0B2C  120A  118A  201E   	fcall	___ftmul
              120A  158A         
  7145  0B31  1283               	bcf	status, 5	;RP0=0, select bank0
  7146  0B32  1303               	bcf	status, 6	;RP1=0, select bank0
  7147  0B33  0835               	movf	(0+(?___ftmul)),w
  7148  0B34  00C5               	movwf	(?_scale)
  7149  0B35  0836               	movf	(1+(?___ftmul)),w
  7150  0B36  00C6               	movwf	(?_scale+1)
  7151  0B37  0837               	movf	(2+(?___ftmul)),w
  7152  0B38  00C7               	movwf	(?_scale+2)
  7153  0B39  2BD1               	goto	l2155
  7154                           	
  7155  0B3A                     l7366:	
  7156  0B3A  2BD1               	goto	l2155
  7157                           	
  7158  0B3B                     l7368:	
  7159  0B3B  2BB0               	goto	l7376
  7160                           	line	434
  7161                           	
  7162  0B3C                     l2158:	
  7163                           	
  7164  0B3C                     l7370:	
  7165  0B3C  084D               	movf	(scale@scl),w
  7166  0B3D  3A80               	xorlw	80h
  7167  0B3E  3E75               	addlw	-((0Bh)^80h)
  7168  0B3F  1C03               	skipc
  7169  0B40  2B42               	goto	u5721
  7170  0B41  2B43               	goto	u5720
  7171  0B42                     u5721:
  7172  0B42  2BB0               	goto	l7376
  7173  0B43                     u5720:
  7174                           	line	435
  7175                           	
  7176  0B43                     l7372:	
  7177  0B43  3003               	movlw	(03h)
  7178  0B44  00C8               	movwf	(??_scale+0)+0
  7179  0B45  0848               	movf	(??_scale+0)+0,w
  7180  0B46  00A4               	movwf	(?___bmul)
  7181  0B47  084D               	movf	(scale@scl),w
  7182  0B48  00F2               	movwf	0+(?___awmod)+02h
  7183  0B49  01F3               	clrf	1+(?___awmod)+02h
  7184  0B4A  1BF2               	btfsc	0+(?___awmod)+02h,7
  7185  0B4B  03F3               	decf	1+(?___awmod)+02h,f
  7186  0B4C  300A               	movlw	low(0Ah)
  7187  0B4D  00F0               	movwf	(?___awmod)
  7188  0B4E  3000               	movlw	high(0Ah)
  7189  0B4F  00F1               	movwf	((?___awmod))+1
  7190  0B50  160A  158A  2382   	fcall	___awmod
              120A  158A         
  7191  0B55  0870               	movf	(0+(?___awmod)),w
  7192  0B56  120A  118A  2004   	fcall	___bmul
              120A  158A         
  7193  0B5B  3E50               	addlw	low((__powers_-__stringbase))
  7194  0B5C  0084               	movwf	fsr0
  7195  0B5D  160A  118A  2000   	fcall	stringdir
              120A  158A         
  7196  0B62  1283               	bcf	status, 5	;RP0=0, select bank0
  7197  0B63  1303               	bcf	status, 6	;RP1=0, select bank0
  7198  0B64  00B5               	movwf	(?___ftmul)
  7199  0B65  160A  118A  2000   	fcall	stringdir
              120A  158A         
  7200  0B6A  00B6               	movwf	(?___ftmul+1)
  7201  0B6B  160A  118A  2000   	fcall	stringdir
              120A  158A         
  7202  0B70  00B7               	movwf	(?___ftmul+2)
  7203  0B71  3003               	movlw	(03h)
  7204  0B72  00C9               	movwf	(??_scale+1)+0
  7205  0B73  0849               	movf	(??_scale+1)+0,w
  7206  0B74  00A4               	movwf	(?___bmul)
  7207  0B75  300A               	movlw	low(0Ah)
  7208  0B76  00F7               	movwf	(?___awdiv)
  7209  0B77  3000               	movlw	high(0Ah)
  7210  0B78  00F8               	movwf	((?___awdiv))+1
  7211  0B79  084D               	movf	(scale@scl),w
  7212  0B7A  00F9               	movwf	0+(?___awdiv)+02h
  7213  0B7B  01FA               	clrf	1+(?___awdiv)+02h
  7214  0B7C  1BF9               	btfsc	0+(?___awdiv)+02h,7
  7215  0B7D  03FA               	decf	1+(?___awdiv)+02h,f
  7216  0B7E  160A  158A  2531   	fcall	___awdiv
              120A  158A         
  7217  0B83  0877               	movf	(0+(?___awdiv)),w
  7218  0B84  3E09               	addlw	09h
  7219  0B85  120A  118A  2004   	fcall	___bmul
              120A  158A         
  7220  0B8A  3E50               	addlw	low((__powers_-__stringbase))
  7221  0B8B  0084               	movwf	fsr0
  7222  0B8C  160A  118A  2000   	fcall	stringdir
              120A  158A         
  7223  0B91  1283               	bcf	status, 5	;RP0=0, select bank0
  7224  0B92  1303               	bcf	status, 6	;RP1=0, select bank0
  7225  0B93  00B8               	movwf	0+(?___ftmul)+03h
  7226  0B94  160A  118A  2000   	fcall	stringdir
              120A  158A         
  7227  0B99  00B9               	movwf	1+(?___ftmul)+03h
  7228  0B9A  160A  118A  2000   	fcall	stringdir
              120A  158A         
  7229  0B9F  00BA               	movwf	2+(?___ftmul)+03h
  7230  0BA0  120A  118A  201E   	fcall	___ftmul
              120A  158A         
  7231  0BA5  1283               	bcf	status, 5	;RP0=0, select bank0
  7232  0BA6  1303               	bcf	status, 6	;RP1=0, select bank0
  7233  0BA7  0835               	movf	(0+(?___ftmul)),w
  7234  0BA8  00C5               	movwf	(?_scale)
  7235  0BA9  0836               	movf	(1+(?___ftmul)),w
  7236  0BAA  00C6               	movwf	(?_scale+1)
  7237  0BAB  0837               	movf	(2+(?___ftmul)),w
  7238  0BAC  00C7               	movwf	(?_scale+2)
  7239  0BAD  2BD1               	goto	l2155
  7240                           	
  7241  0BAE                     l7374:	
  7242  0BAE  2BD1               	goto	l2155
  7243                           	
  7244  0BAF                     l2160:	
  7245  0BAF  2BB0               	goto	l7376
  7246                           	line	436
  7247                           	
  7248  0BB0                     l2159:	
  7249                           	
  7250  0BB0                     l7376:	
  7251  0BB0  3003               	movlw	(03h)
  7252  0BB1  00C8               	movwf	(??_scale+0)+0
  7253  0BB2  0848               	movf	(??_scale+0)+0,w
  7254  0BB3  00A4               	movwf	(?___bmul)
  7255  0BB4  084D               	movf	(scale@scl),w
  7256  0BB5  120A  118A  2004   	fcall	___bmul
              120A  158A         
  7257  0BBA  3E50               	addlw	low((__powers_-__stringbase))
  7258  0BBB  0084               	movwf	fsr0
  7259  0BBC  160A  118A  2000   	fcall	stringdir
              120A  158A         
  7260  0BC1  1283               	bcf	status, 5	;RP0=0, select bank0
  7261  0BC2  1303               	bcf	status, 6	;RP1=0, select bank0
  7262  0BC3  00C5               	movwf	(?_scale)
  7263  0BC4  160A  118A  2000   	fcall	stringdir
              120A  158A         
  7264  0BC9  00C6               	movwf	(?_scale+1)
  7265  0BCA  160A  118A  2000   	fcall	stringdir
              120A  158A         
  7266  0BCF  00C7               	movwf	(?_scale+2)
  7267  0BD0  2BD1               	goto	l2155
  7268                           	
  7269  0BD1                     l7378:	
  7270                           	line	437
  7271                           	
  7272  0BD1                     l2155:	
  7273  0BD1  0008               	return
  7274                           	opt stack 0
  7275                           GLOBAL	__end_of_scale
  7276  0BD2                     	__end_of_scale:
  7277 ;; =============== function _scale ends ============
  7278                           
  7279                           	signat	_scale,4219
  7280                           	global	_fround
  7281                           psect	text698,local,class=CODE,delta=2
  7282                           global __ptext698
  7283  1480                     __ptext698:
  7284                           
  7285 ;; *************** function _fround *****************
  7286 ;; Defined at:
  7287 ;;		line 406 in file "C:\Program Files (x86)\HI-TECH Software\PICC\9.82\lib\doprnt.c"
  7288 ;; Parameters:    Size  Location     Type
  7289 ;;  prec            1    wreg     unsigned char 
  7290 ;; Auto vars:     Size  Location     Type
  7291 ;;  prec            1   65[BANK0 ] unsigned char 
  7292 ;; Return value:  Size  Location     Type
  7293 ;;                  3   50[BANK0 ] unsigned char 
  7294 ;; Registers used:
  7295 ;;		wreg, fsr0l, fsr0h, status,2, status,0, pclath, cstack
  7296 ;; Tracked objects:
  7297 ;;		On entry : 0/0
  7298 ;;		On exit  : 0/0
  7299 ;;		Unchanged: 0/0
  7300 ;; Data sizes:     COMMON   BANK0   BANK1   BANK3   BANK2
  7301 ;;      Params:         0       3       0       0       0
  7302 ;;      Locals:         0       7       0       0       0
  7303 ;;      Temps:          0       6       0       0       0
  7304 ;;      Totals:         0      16       0       0       0
  7305 ;;Total ram usage:       16 bytes
  7306 ;; Hardware stack levels used:    1
  7307 ;; Hardware stack levels required when called:    2
  7308 ;; This function calls:
  7309 ;;		___awmod
  7310 ;;		___bmul
  7311 ;;		___awdiv
  7312 ;;		___ftmul
  7313 ;; This function is called by:
  7314 ;;		_sprintf
  7315 ;; This function uses a non-reentrant model
  7316 ;;
  7317                           psect	text698
  7318                           	file	"C:\Program Files (x86)\HI-TECH Software\PICC\9.82\sources\doprnt.c"
  7319                           	line	406
  7320                           	global	__size_of_fround
  7321  01AB                     	__size_of_fround	equ	__end_of_fround-_fround
  7322                           	
  7323  1480                     _fround:	
  7324                           	opt	stack 4
  7325                           ; Regs used in _fround: [wreg-fsr0h+status,2+status,0+pclath+cstack]
  7326                           ;fround@prec stored from wreg
  7327                           	line	409
  7328  1480  1283               	bcf	status, 5	;RP0=0, select bank0
  7329  1481  1303               	bcf	status, 6	;RP1=0, select bank0
  7330  1482  00E1               	movwf	(fround@prec)
  7331                           	
  7332  1483                     l7318:	
  7333  1483  306E               	movlw	(06Eh)
  7334  1484  0261               	subwf	(fround@prec),w
  7335  1485  1C03               	skipc
  7336  1486  2C88               	goto	u5661
  7337  1487  2C89               	goto	u5660
  7338  1488                     u5661:
  7339  1488  2D66               	goto	l7328
  7340  1489                     u5660:
  7341                           	line	410
  7342                           	
  7343  1489                     l7320:	
  7344  1489  3003               	movlw	(03h)
  7345  148A  00D5               	movwf	(??_fround+0)+0
  7346  148B  0855               	movf	(??_fround+0)+0,w
  7347  148C  00A4               	movwf	(?___bmul)
  7348  148D  300A               	movlw	low(0Ah)
  7349  148E  00F7               	movwf	(?___awdiv)
  7350  148F  3000               	movlw	high(0Ah)
  7351  1490  00F8               	movwf	((?___awdiv))+1
  7352  1491  0861               	movf	(fround@prec),w
  7353  1492  00D6               	movwf	(??_fround+1)+0
  7354  1493  01D7               	clrf	(??_fround+1)+0+1
  7355  1494  0856               	movf	0+(??_fround+1)+0,w
  7356  1495  00F2               	movwf	0+(?___awmod)+02h
  7357  1496  0857               	movf	1+(??_fround+1)+0,w
  7358  1497  00F3               	movwf	1+(?___awmod)+02h
  7359  1498  3064               	movlw	low(064h)
  7360  1499  00F0               	movwf	(?___awmod)
  7361  149A  3000               	movlw	high(064h)
  7362  149B  00F1               	movwf	((?___awmod))+1
  7363  149C  160A  158A  2382   	fcall	___awmod
              160A  118A         
  7364  14A1  0871               	movf	(1+(?___awmod)),w
  7365  14A2  01FA               	clrf	1+(?___awdiv)+02h
  7366  14A3  07FA               	addwf	1+(?___awdiv)+02h
  7367  14A4  0870               	movf	(0+(?___awmod)),w
  7368  14A5  01F9               	clrf	0+(?___awdiv)+02h
  7369  14A6  07F9               	addwf	0+(?___awdiv)+02h
  7370                           
  7371  14A7  160A  158A  2531   	fcall	___awdiv
              160A  118A         
  7372  14AC  0877               	movf	(0+(?___awdiv)),w
  7373  14AD  3E09               	addlw	09h
  7374  14AE  120A  118A  2004   	fcall	___bmul
              160A  118A         
  7375  14B3  3E29               	addlw	low((__npowers_-__stringbase))
  7376  14B4  0084               	movwf	fsr0
  7377  14B5  160A  118A  2000   	fcall	stringdir
              160A  118A         
  7378  14BA  1283               	bcf	status, 5	;RP0=0, select bank0
  7379  14BB  1303               	bcf	status, 6	;RP1=0, select bank0
  7380  14BC  00B5               	movwf	(?___ftmul)
  7381  14BD  160A  118A  2000   	fcall	stringdir
              160A  118A         
  7382  14C2  00B6               	movwf	(?___ftmul+1)
  7383  14C3  160A  118A  2000   	fcall	stringdir
              160A  118A         
  7384  14C8  00B7               	movwf	(?___ftmul+2)
  7385  14C9  3003               	movlw	(03h)
  7386  14CA  00D8               	movwf	(??_fround+3)+0
  7387  14CB  0858               	movf	(??_fround+3)+0,w
  7388  14CC  00A4               	movwf	(?___bmul)
  7389  14CD  3064               	movlw	low(064h)
  7390  14CE  00F7               	movwf	(?___awdiv)
  7391  14CF  3000               	movlw	high(064h)
  7392  14D0  00F8               	movwf	((?___awdiv))+1
  7393  14D1  0861               	movf	(fround@prec),w
  7394  14D2  00D9               	movwf	(??_fround+4)+0
  7395  14D3  01DA               	clrf	(??_fround+4)+0+1
  7396  14D4  0859               	movf	0+(??_fround+4)+0,w
  7397  14D5  00F9               	movwf	0+(?___awdiv)+02h
  7398  14D6  085A               	movf	1+(??_fround+4)+0,w
  7399  14D7  00FA               	movwf	1+(?___awdiv)+02h
  7400  14D8  160A  158A  2531   	fcall	___awdiv
              160A  118A         
  7401  14DD  0877               	movf	(0+(?___awdiv)),w
  7402  14DE  3E12               	addlw	012h
  7403  14DF  120A  118A  2004   	fcall	___bmul
              160A  118A         
  7404  14E4  3E29               	addlw	low((__npowers_-__stringbase))
  7405  14E5  0084               	movwf	fsr0
  7406  14E6  160A  118A  2000   	fcall	stringdir
              160A  118A         
  7407  14EB  1283               	bcf	status, 5	;RP0=0, select bank0
  7408  14EC  1303               	bcf	status, 6	;RP1=0, select bank0
  7409  14ED  00B8               	movwf	0+(?___ftmul)+03h
  7410  14EE  160A  118A  2000   	fcall	stringdir
              160A  118A         
  7411  14F3  00B9               	movwf	1+(?___ftmul)+03h
  7412  14F4  160A  118A  2000   	fcall	stringdir
              160A  118A         
  7413  14F9  00BA               	movwf	2+(?___ftmul)+03h
  7414  14FA  120A  118A  201E   	fcall	___ftmul
              160A  118A         
  7415  14FF  1283               	bcf	status, 5	;RP0=0, select bank0
  7416  1500  1303               	bcf	status, 6	;RP1=0, select bank0
  7417  1501  0835               	movf	(0+(?___ftmul)),w
  7418  1502  00DE               	movwf	(_fround$3633)
  7419  1503  0836               	movf	(1+(?___ftmul)),w
  7420  1504  00DF               	movwf	(_fround$3633+1)
  7421  1505  0837               	movf	(2+(?___ftmul)),w
  7422  1506  00E0               	movwf	(_fround$3633+2)
  7423  1507  3003               	movlw	(03h)
  7424  1508  00D5               	movwf	(??_fround+0)+0
  7425  1509  0855               	movf	(??_fround+0)+0,w
  7426  150A  00A4               	movwf	(?___bmul)
  7427  150B  0861               	movf	(fround@prec),w
  7428  150C  00D6               	movwf	(??_fround+1)+0
  7429  150D  01D7               	clrf	(??_fround+1)+0+1
  7430  150E  0856               	movf	0+(??_fround+1)+0,w
  7431  150F  00F2               	movwf	0+(?___awmod)+02h
  7432  1510  0857               	movf	1+(??_fround+1)+0,w
  7433  1511  00F3               	movwf	1+(?___awmod)+02h
  7434  1512  300A               	movlw	low(0Ah)
  7435  1513  00F0               	movwf	(?___awmod)
  7436  1514  3000               	movlw	high(0Ah)
  7437  1515  00F1               	movwf	((?___awmod))+1
  7438  1516  160A  158A  2382   	fcall	___awmod
              160A  118A         
  7439  151B  0870               	movf	(0+(?___awmod)),w
  7440  151C  120A  118A  2004   	fcall	___bmul
              160A  118A         
  7441  1521  3E29               	addlw	low((__npowers_-__stringbase))
  7442  1522  0084               	movwf	fsr0
  7443  1523  160A  118A  2000   	fcall	stringdir
              160A  118A         
  7444  1528  1283               	bcf	status, 5	;RP0=0, select bank0
  7445  1529  1303               	bcf	status, 6	;RP1=0, select bank0
  7446  152A  00B5               	movwf	(?___ftmul)
  7447  152B  160A  118A  2000   	fcall	stringdir
              160A  118A         
  7448  1530  00B6               	movwf	(?___ftmul+1)
  7449  1531  160A  118A  2000   	fcall	stringdir
              160A  118A         
  7450  1536  00B7               	movwf	(?___ftmul+2)
  7451  1537  085E               	movf	(_fround$3633),w
  7452  1538  00B8               	movwf	0+(?___ftmul)+03h
  7453  1539  085F               	movf	(_fround$3633+1),w
  7454  153A  00B9               	movwf	1+(?___ftmul)+03h
  7455  153B  0860               	movf	(_fround$3633+2),w
  7456  153C  00BA               	movwf	2+(?___ftmul)+03h
  7457  153D  120A  118A  201E   	fcall	___ftmul
              160A  118A         
  7458  1542  1283               	bcf	status, 5	;RP0=0, select bank0
  7459  1543  1303               	bcf	status, 6	;RP1=0, select bank0
  7460  1544  0835               	movf	(0+(?___ftmul)),w
  7461  1545  00DB               	movwf	(_fround$3634)
  7462  1546  0836               	movf	(1+(?___ftmul)),w
  7463  1547  00DC               	movwf	(_fround$3634+1)
  7464  1548  0837               	movf	(2+(?___ftmul)),w
  7465  1549  00DD               	movwf	(_fround$3634+2)
  7466                           	
  7467  154A                     l7322:	
  7468  154A  3000               	movlw	0x0
  7469  154B  00B5               	movwf	(?___ftmul)
  7470  154C  3000               	movlw	0x0
  7471  154D  00B6               	movwf	(?___ftmul+1)
  7472  154E  303F               	movlw	0x3f
  7473  154F  00B7               	movwf	(?___ftmul+2)
  7474  1550  085B               	movf	(_fround$3634),w
  7475  1551  00B8               	movwf	0+(?___ftmul)+03h
  7476  1552  085C               	movf	(_fround$3634+1),w
  7477  1553  00B9               	movwf	1+(?___ftmul)+03h
  7478  1554  085D               	movf	(_fround$3634+2),w
  7479  1555  00BA               	movwf	2+(?___ftmul)+03h
  7480  1556  120A  118A  201E   	fcall	___ftmul
              160A  118A         
  7481  155B  1283               	bcf	status, 5	;RP0=0, select bank0
  7482  155C  1303               	bcf	status, 6	;RP1=0, select bank0
  7483  155D  0835               	movf	(0+(?___ftmul)),w
  7484  155E  00D2               	movwf	(?_fround)
  7485  155F  0836               	movf	(1+(?___ftmul)),w
  7486  1560  00D3               	movwf	(?_fround+1)
  7487  1561  0837               	movf	(2+(?___ftmul)),w
  7488  1562  00D4               	movwf	(?_fround+2)
  7489  1563  2E2A               	goto	l2148
  7490                           	
  7491  1564                     l7324:	
  7492  1564  2E2A               	goto	l2148
  7493                           	
  7494  1565                     l7326:	
  7495  1565  2DF6               	goto	l7336
  7496                           	line	411
  7497                           	
  7498  1566                     l2147:	
  7499                           	
  7500  1566                     l7328:	
  7501  1566  300B               	movlw	(0Bh)
  7502  1567  0261               	subwf	(fround@prec),w
  7503  1568  1C03               	skipc
  7504  1569  2D6B               	goto	u5671
  7505  156A  2D6C               	goto	u5670
  7506  156B                     u5671:
  7507  156B  2DF6               	goto	l7336
  7508  156C                     u5670:
  7509                           	line	412
  7510                           	
  7511  156C                     l7330:	
  7512  156C  3003               	movlw	(03h)
  7513  156D  00D5               	movwf	(??_fround+0)+0
  7514  156E  0855               	movf	(??_fround+0)+0,w
  7515  156F  00A4               	movwf	(?___bmul)
  7516  1570  0861               	movf	(fround@prec),w
  7517  1571  00D6               	movwf	(??_fround+1)+0
  7518  1572  01D7               	clrf	(??_fround+1)+0+1
  7519  1573  0856               	movf	0+(??_fround+1)+0,w
  7520  1574  00F2               	movwf	0+(?___awmod)+02h
  7521  1575  0857               	movf	1+(??_fround+1)+0,w
  7522  1576  00F3               	movwf	1+(?___awmod)+02h
  7523  1577  300A               	movlw	low(0Ah)
  7524  1578  00F0               	movwf	(?___awmod)
  7525  1579  3000               	movlw	high(0Ah)
  7526  157A  00F1               	movwf	((?___awmod))+1
  7527  157B  160A  158A  2382   	fcall	___awmod
              160A  118A         
  7528  1580  0870               	movf	(0+(?___awmod)),w
  7529  1581  120A  118A  2004   	fcall	___bmul
              160A  118A         
  7530  1586  3E29               	addlw	low((__npowers_-__stringbase))
  7531  1587  0084               	movwf	fsr0
  7532  1588  160A  118A  2000   	fcall	stringdir
              160A  118A         
  7533  158D  1283               	bcf	status, 5	;RP0=0, select bank0
  7534  158E  1303               	bcf	status, 6	;RP1=0, select bank0
  7535  158F  00B5               	movwf	(?___ftmul)
  7536  1590  160A  118A  2000   	fcall	stringdir
              160A  118A         
  7537  1595  00B6               	movwf	(?___ftmul+1)
  7538  1596  160A  118A  2000   	fcall	stringdir
              160A  118A         
  7539  159B  00B7               	movwf	(?___ftmul+2)
  7540  159C  3003               	movlw	(03h)
  7541  159D  00D8               	movwf	(??_fround+3)+0
  7542  159E  0858               	movf	(??_fround+3)+0,w
  7543  159F  00A4               	movwf	(?___bmul)
  7544  15A0  300A               	movlw	low(0Ah)
  7545  15A1  00F7               	movwf	(?___awdiv)
  7546  15A2  3000               	movlw	high(0Ah)
  7547  15A3  00F8               	movwf	((?___awdiv))+1
  7548  15A4  0861               	movf	(fround@prec),w
  7549  15A5  00D9               	movwf	(??_fround+4)+0
  7550  15A6  01DA               	clrf	(??_fround+4)+0+1
  7551  15A7  0859               	movf	0+(??_fround+4)+0,w
  7552  15A8  00F9               	movwf	0+(?___awdiv)+02h
  7553  15A9  085A               	movf	1+(??_fround+4)+0,w
  7554  15AA  00FA               	movwf	1+(?___awdiv)+02h
  7555  15AB  160A  158A  2531   	fcall	___awdiv
              160A  118A         
  7556  15B0  0877               	movf	(0+(?___awdiv)),w
  7557  15B1  3E09               	addlw	09h
  7558  15B2  120A  118A  2004   	fcall	___bmul
              160A  118A         
  7559  15B7  3E29               	addlw	low((__npowers_-__stringbase))
  7560  15B8  0084               	movwf	fsr0
  7561  15B9  160A  118A  2000   	fcall	stringdir
              160A  118A         
  7562  15BE  1283               	bcf	status, 5	;RP0=0, select bank0
  7563  15BF  1303               	bcf	status, 6	;RP1=0, select bank0
  7564  15C0  00B8               	movwf	0+(?___ftmul)+03h
  7565  15C1  160A  118A  2000   	fcall	stringdir
              160A  118A         
  7566  15C6  00B9               	movwf	1+(?___ftmul)+03h
  7567  15C7  160A  118A  2000   	fcall	stringdir
              160A  118A         
  7568  15CC  00BA               	movwf	2+(?___ftmul)+03h
  7569  15CD  120A  118A  201E   	fcall	___ftmul
              160A  118A         
  7570  15D2  1283               	bcf	status, 5	;RP0=0, select bank0
  7571  15D3  1303               	bcf	status, 6	;RP1=0, select bank0
  7572  15D4  0835               	movf	(0+(?___ftmul)),w
  7573  15D5  00DE               	movwf	(_fround$3633)
  7574  15D6  0836               	movf	(1+(?___ftmul)),w
  7575  15D7  00DF               	movwf	(_fround$3633+1)
  7576  15D8  0837               	movf	(2+(?___ftmul)),w
  7577  15D9  00E0               	movwf	(_fround$3633+2)
  7578                           	
  7579  15DA                     l7332:	
  7580  15DA  3000               	movlw	0x0
  7581  15DB  00B5               	movwf	(?___ftmul)
  7582  15DC  3000               	movlw	0x0
  7583  15DD  00B6               	movwf	(?___ftmul+1)
  7584  15DE  303F               	movlw	0x3f
  7585  15DF  00B7               	movwf	(?___ftmul+2)
  7586  15E0  085E               	movf	(_fround$3633),w
  7587  15E1  00B8               	movwf	0+(?___ftmul)+03h
  7588  15E2  085F               	movf	(_fround$3633+1),w
  7589  15E3  00B9               	movwf	1+(?___ftmul)+03h
  7590  15E4  0860               	movf	(_fround$3633+2),w
  7591  15E5  00BA               	movwf	2+(?___ftmul)+03h
  7592  15E6  120A  118A  201E   	fcall	___ftmul
              160A  118A         
  7593  15EB  1283               	bcf	status, 5	;RP0=0, select bank0
  7594  15EC  1303               	bcf	status, 6	;RP1=0, select bank0
  7595  15ED  0835               	movf	(0+(?___ftmul)),w
  7596  15EE  00D2               	movwf	(?_fround)
  7597  15EF  0836               	movf	(1+(?___ftmul)),w
  7598  15F0  00D3               	movwf	(?_fround+1)
  7599  15F1  0837               	movf	(2+(?___ftmul)),w
  7600  15F2  00D4               	movwf	(?_fround+2)
  7601  15F3  2E2A               	goto	l2148
  7602                           	
  7603  15F4                     l7334:	
  7604  15F4  2E2A               	goto	l2148
  7605                           	
  7606  15F5                     l2150:	
  7607  15F5  2DF6               	goto	l7336
  7608                           	line	413
  7609                           	
  7610  15F6                     l2149:	
  7611                           	
  7612  15F6                     l7336:	
  7613  15F6  3000               	movlw	0x0
  7614  15F7  00B5               	movwf	(?___ftmul)
  7615  15F8  3000               	movlw	0x0
  7616  15F9  00B6               	movwf	(?___ftmul+1)
  7617  15FA  303F               	movlw	0x3f
  7618  15FB  00B7               	movwf	(?___ftmul+2)
  7619  15FC  3003               	movlw	(03h)
  7620  15FD  00D5               	movwf	(??_fround+0)+0
  7621  15FE  0855               	movf	(??_fround+0)+0,w
  7622  15FF  00A4               	movwf	(?___bmul)
  7623  1600  0861               	movf	(fround@prec),w
  7624  1601  120A  118A  2004   	fcall	___bmul
              160A  118A         
  7625  1606  3E29               	addlw	low((__npowers_-__stringbase))
  7626  1607  0084               	movwf	fsr0
  7627  1608  160A  118A  2000   	fcall	stringdir
              160A  118A         
  7628  160D  1283               	bcf	status, 5	;RP0=0, select bank0
  7629  160E  1303               	bcf	status, 6	;RP1=0, select bank0
  7630  160F  00B8               	movwf	0+(?___ftmul)+03h
  7631  1610  160A  118A  2000   	fcall	stringdir
              160A  118A         
  7632  1615  00B9               	movwf	1+(?___ftmul)+03h
  7633  1616  160A  118A  2000   	fcall	stringdir
              160A  118A         
  7634  161B  00BA               	movwf	2+(?___ftmul)+03h
  7635  161C  120A  118A  201E   	fcall	___ftmul
              160A  118A         
  7636  1621  1283               	bcf	status, 5	;RP0=0, select bank0
  7637  1622  1303               	bcf	status, 6	;RP1=0, select bank0
  7638  1623  0835               	movf	(0+(?___ftmul)),w
  7639  1624  00D2               	movwf	(?_fround)
  7640  1625  0836               	movf	(1+(?___ftmul)),w
  7641  1626  00D3               	movwf	(?_fround+1)
  7642  1627  0837               	movf	(2+(?___ftmul)),w
  7643  1628  00D4               	movwf	(?_fround+2)
  7644  1629  2E2A               	goto	l2148
  7645                           	
  7646  162A                     l7338:	
  7647                           	line	414
  7648                           	
  7649  162A                     l2148:	
  7650  162A  0008               	return
  7651                           	opt stack 0
  7652                           GLOBAL	__end_of_fround
  7653  162B                     	__end_of_fround:
  7654 ;; =============== function _fround ends ============
  7655                           
  7656                           	signat	_fround,4219
  7657                           	global	_WriteDataToLCD
  7658                           psect	text699,local,class=CODE,delta=2
  7659                           global __ptext699
  7660  0805                     __ptext699:
  7661                           
  7662 ;; *************** function _WriteDataToLCD *****************
  7663 ;; Defined at:
  7664 ;;		line 28 in file "../LCD.c"
  7665 ;; Parameters:    Size  Location     Type
  7666 ;;  LCDChar         1    wreg     unsigned char 
  7667 ;; Auto vars:     Size  Location     Type
  7668 ;;  LCDChar         1    4[COMMON] unsigned char 
  7669 ;; Return value:  Size  Location     Type
  7670 ;;		None               void
  7671 ;; Registers used:
  7672 ;;		wreg, status,2, status,0, pclath, cstack
  7673 ;; Tracked objects:
  7674 ;;		On entry : 0/0
  7675 ;;		On exit  : 0/0
  7676 ;;		Unchanged: 0/0
  7677 ;; Data sizes:     COMMON   BANK0   BANK1   BANK3   BANK2
  7678 ;;      Params:         0       0       0       0       0
  7679 ;;      Locals:         1       0       0       0       0
  7680 ;;      Temps:          2       0       0       0       0
  7681 ;;      Totals:         3       0       0       0       0
  7682 ;;Total ram usage:        3 bytes
  7683 ;; Hardware stack levels used:    1
  7684 ;; Hardware stack levels required when called:    1
  7685 ;; This function calls:
  7686 ;;		_ToggleEpinOfLCD
  7687 ;; This function is called by:
  7688 ;;		_WriteStringToLCD
  7689 ;;		_main
  7690 ;;		_disp_num
  7691 ;; This function uses a non-reentrant model
  7692 ;;
  7693                           psect	text699
  7694                           	file	"../LCD.c"
  7695                           	line	28
  7696                           	global	__size_of_WriteDataToLCD
  7697  002C                     	__size_of_WriteDataToLCD	equ	__end_of_WriteDataToLCD-_WriteDataToLCD
  7698                           	
  7699  0805                     _WriteDataToLCD:	
  7700                           	opt	stack 4
  7701                           ; Regs used in _WriteDataToLCD: [wreg+status,2+status,0+pclath+cstack]
  7702                           ;WriteDataToLCD@LCDChar stored from wreg
  7703  0805  00F4               	movwf	(WriteDataToLCD@LCDChar)
  7704                           	line	29
  7705                           	
  7706  0806                     l7306:	
  7707                           ;LCD.c: 29: RD1 = 1;
  7708  0806  1283               	bcf	status, 5	;RP0=0, select bank0
  7709  0807  1303               	bcf	status, 6	;RP1=0, select bank0
  7710  0808  1488               	bsf	(65/8),(65)&7
  7711                           	line	31
  7712                           	
  7713  0809                     l7308:	
  7714                           ;LCD.c: 31: PORTD &= 0x0F;
  7715  0809  300F               	movlw	(0Fh)
  7716  080A  00F2               	movwf	(??_WriteDataToLCD+0)+0
  7717  080B  0872               	movf	(??_WriteDataToLCD+0)+0,w
  7718  080C  0588               	andwf	(8),f	;volatile
  7719                           	line	32
  7720                           ;LCD.c: 32: PORTD |= (LCDChar&0xF0);
  7721  080D  0874               	movf	(WriteDataToLCD@LCDChar),w
  7722  080E  39F0               	andlw	0F0h
  7723  080F  00F2               	movwf	(??_WriteDataToLCD+0)+0
  7724  0810  0872               	movf	(??_WriteDataToLCD+0)+0,w
  7725  0811  0488               	iorwf	(8),f	;volatile
  7726                           	line	33
  7727                           	
  7728  0812                     l7310:	
  7729                           ;LCD.c: 33: ToggleEpinOfLCD();
  7730  0812  160A  158A  2178   	fcall	_ToggleEpinOfLCD
              120A  158A         
  7731                           	line	35
  7732                           	
  7733  0817                     l7312:	
  7734                           ;LCD.c: 35: PORTD &= 0x0F;
  7735  0817  300F               	movlw	(0Fh)
  7736  0818  00F2               	movwf	(??_WriteDataToLCD+0)+0
  7737  0819  0872               	movf	(??_WriteDataToLCD+0)+0,w
  7738  081A  1283               	bcf	status, 5	;RP0=0, select bank0
  7739  081B  1303               	bcf	status, 6	;RP1=0, select bank0
  7740  081C  0588               	andwf	(8),f	;volatile
  7741                           	line	36
  7742                           	
  7743  081D                     l7314:	
  7744                           ;LCD.c: 36: PORTD |= ((LCDChar<<4)&0xF0);
  7745  081D  0874               	movf	(WriteDataToLCD@LCDChar),w
  7746  081E  00F2               	movwf	(??_WriteDataToLCD+0)+0
  7747  081F  3003               	movlw	(04h)-1
  7748  0820                     u5655:
  7749  0820  1003               	clrc
  7750  0821  0DF2               	rlf	(??_WriteDataToLCD+0)+0,f
  7751  0822  3EFF               	addlw	-1
  7752  0823  1D03               	skipz
  7753  0824  2820               	goto	u5655
  7754  0825  1003               	clrc
  7755  0826  0D72               	rlf	(??_WriteDataToLCD+0)+0,w
  7756  0827  39F0               	andlw	0F0h
  7757  0828  00F3               	movwf	(??_WriteDataToLCD+1)+0
  7758  0829  0873               	movf	(??_WriteDataToLCD+1)+0,w
  7759  082A  0488               	iorwf	(8),f	;volatile
  7760                           	line	37
  7761                           	
  7762  082B                     l7316:	
  7763                           ;LCD.c: 37: ToggleEpinOfLCD();
  7764  082B  160A  158A  2178   	fcall	_ToggleEpinOfLCD
              120A  158A         
  7765                           	line	38
  7766                           	
  7767  0830                     l1365:	
  7768  0830  0008               	return
  7769                           	opt stack 0
  7770                           GLOBAL	__end_of_WriteDataToLCD
  7771  0831                     	__end_of_WriteDataToLCD:
  7772 ;; =============== function _WriteDataToLCD ends ============
  7773                           
  7774                           	signat	_WriteDataToLCD,4216
  7775                           	global	_WriteCommandToLCD
  7776                           psect	text700,local,class=CODE,delta=2
  7777                           global __ptext700
  7778  19FB                     __ptext700:
  7779                           
  7780 ;; *************** function _WriteCommandToLCD *****************
  7781 ;; Defined at:
  7782 ;;		line 14 in file "../LCD.c"
  7783 ;; Parameters:    Size  Location     Type
  7784 ;;  Command         1    wreg     unsigned char 
  7785 ;; Auto vars:     Size  Location     Type
  7786 ;;  Command         1    4[COMMON] unsigned char 
  7787 ;; Return value:  Size  Location     Type
  7788 ;;		None               void
  7789 ;; Registers used:
  7790 ;;		wreg, status,2, status,0, pclath, cstack
  7791 ;; Tracked objects:
  7792 ;;		On entry : 0/0
  7793 ;;		On exit  : 0/0
  7794 ;;		Unchanged: 0/0
  7795 ;; Data sizes:     COMMON   BANK0   BANK1   BANK3   BANK2
  7796 ;;      Params:         0       0       0       0       0
  7797 ;;      Locals:         1       0       0       0       0
  7798 ;;      Temps:          2       0       0       0       0
  7799 ;;      Totals:         3       0       0       0       0
  7800 ;;Total ram usage:        3 bytes
  7801 ;; Hardware stack levels used:    1
  7802 ;; Hardware stack levels required when called:    1
  7803 ;; This function calls:
  7804 ;;		_ToggleEpinOfLCD
  7805 ;; This function is called by:
  7806 ;;		_InitLCD
  7807 ;;		_ClearLCDScreen
  7808 ;;		_main
  7809 ;; This function uses a non-reentrant model
  7810 ;;
  7811                           psect	text700
  7812                           	file	"../LCD.c"
  7813                           	line	14
  7814                           	global	__size_of_WriteCommandToLCD
  7815  002C                     	__size_of_WriteCommandToLCD	equ	__end_of_WriteCommandToLCD-_WriteCommandToLCD
  7816                           	
  7817  19FB                     _WriteCommandToLCD:	
  7818                           	opt	stack 4
  7819                           ; Regs used in _WriteCommandToLCD: [wreg+status,2+status,0+pclath+cstack]
  7820                           ;WriteCommandToLCD@Command stored from wreg
  7821  19FB  00F4               	movwf	(WriteCommandToLCD@Command)
  7822                           	line	15
  7823                           	
  7824  19FC                     l7294:	
  7825                           ;LCD.c: 15: RD1 = 0;
  7826  19FC  1283               	bcf	status, 5	;RP0=0, select bank0
  7827  19FD  1303               	bcf	status, 6	;RP1=0, select bank0
  7828  19FE  1088               	bcf	(65/8),(65)&7
  7829                           	line	17
  7830                           	
  7831  19FF                     l7296:	
  7832                           ;LCD.c: 17: PORTD &= 0x0F;
  7833  19FF  300F               	movlw	(0Fh)
  7834  1A00  00F2               	movwf	(??_WriteCommandToLCD+0)+0
  7835  1A01  0872               	movf	(??_WriteCommandToLCD+0)+0,w
  7836  1A02  0588               	andwf	(8),f	;volatile
  7837                           	line	18
  7838                           ;LCD.c: 18: PORTD |= (Command&0xF0);
  7839  1A03  0874               	movf	(WriteCommandToLCD@Command),w
  7840  1A04  39F0               	andlw	0F0h
  7841  1A05  00F2               	movwf	(??_WriteCommandToLCD+0)+0
  7842  1A06  0872               	movf	(??_WriteCommandToLCD+0)+0,w
  7843  1A07  0488               	iorwf	(8),f	;volatile
  7844                           	line	19
  7845                           	
  7846  1A08                     l7298:	
  7847                           ;LCD.c: 19: ToggleEpinOfLCD();
  7848  1A08  160A  158A  2178   	fcall	_ToggleEpinOfLCD
              160A  158A         
  7849                           	line	21
  7850                           	
  7851  1A0D                     l7300:	
  7852                           ;LCD.c: 21: PORTD &= 0x0F;
  7853  1A0D  300F               	movlw	(0Fh)
  7854  1A0E  00F2               	movwf	(??_WriteCommandToLCD+0)+0
  7855  1A0F  0872               	movf	(??_WriteCommandToLCD+0)+0,w
  7856  1A10  1283               	bcf	status, 5	;RP0=0, select bank0
  7857  1A11  1303               	bcf	status, 6	;RP1=0, select bank0
  7858  1A12  0588               	andwf	(8),f	;volatile
  7859                           	line	22
  7860                           	
  7861  1A13                     l7302:	
  7862                           ;LCD.c: 22: PORTD |= ((Command<<4)&0xF0);
  7863  1A13  0874               	movf	(WriteCommandToLCD@Command),w
  7864  1A14  00F2               	movwf	(??_WriteCommandToLCD+0)+0
  7865  1A15  3003               	movlw	(04h)-1
  7866  1A16                     u5645:
  7867  1A16  1003               	clrc
  7868  1A17  0DF2               	rlf	(??_WriteCommandToLCD+0)+0,f
  7869  1A18  3EFF               	addlw	-1
  7870  1A19  1D03               	skipz
  7871  1A1A  2A16               	goto	u5645
  7872  1A1B  1003               	clrc
  7873  1A1C  0D72               	rlf	(??_WriteCommandToLCD+0)+0,w
  7874  1A1D  39F0               	andlw	0F0h
  7875  1A1E  00F3               	movwf	(??_WriteCommandToLCD+1)+0
  7876  1A1F  0873               	movf	(??_WriteCommandToLCD+1)+0,w
  7877  1A20  0488               	iorwf	(8),f	;volatile
  7878                           	line	23
  7879                           	
  7880  1A21                     l7304:	
  7881                           ;LCD.c: 23: ToggleEpinOfLCD();
  7882  1A21  160A  158A  2178   	fcall	_ToggleEpinOfLCD
              160A  158A         
  7883                           	line	24
  7884                           	
  7885  1A26                     l1362:	
  7886  1A26  0008               	return
  7887                           	opt stack 0
  7888                           GLOBAL	__end_of_WriteCommandToLCD
  7889  1A27                     	__end_of_WriteCommandToLCD:
  7890 ;; =============== function _WriteCommandToLCD ends ============
  7891                           
  7892                           	signat	_WriteCommandToLCD,4216
  7893                           	global	_GetKey
  7894                           psect	text701,local,class=CODE,delta=2
  7895                           global __ptext701
  7896  1960                     __ptext701:
  7897                           
  7898 ;; *************** function _GetKey *****************
  7899 ;; Defined at:
  7900 ;;		line 55 in file "../Keypad.c"
  7901 ;; Parameters:    Size  Location     Type
  7902 ;;		None
  7903 ;; Auto vars:     Size  Location     Type
  7904 ;;  key             1    4[COMMON] unsigned char 
  7905 ;; Return value:  Size  Location     Type
  7906 ;;                  1    wreg      unsigned char 
  7907 ;; Registers used:
  7908 ;;		wreg, pclath, cstack
  7909 ;; Tracked objects:
  7910 ;;		On entry : 0/0
  7911 ;;		On exit  : 0/0
  7912 ;;		Unchanged: 0/0
  7913 ;; Data sizes:     COMMON   BANK0   BANK1   BANK3   BANK2
  7914 ;;      Params:         0       0       0       0       0
  7915 ;;      Locals:         1       0       0       0       0
  7916 ;;      Temps:          1       0       0       0       0
  7917 ;;      Totals:         2       0       0       0       0
  7918 ;;Total ram usage:        2 bytes
  7919 ;; Hardware stack levels used:    1
  7920 ;; Hardware stack levels required when called:    1
  7921 ;; This function calls:
  7922 ;;		_READ_SWITCHES
  7923 ;; This function is called by:
  7924 ;;		_main
  7925 ;; This function uses a non-reentrant model
  7926 ;;
  7927                           psect	text701
  7928                           	file	"../Keypad.c"
  7929                           	line	55
  7930                           	global	__size_of_GetKey
  7931  0018                     	__size_of_GetKey	equ	__end_of_GetKey-_GetKey
  7932                           	
  7933  1960                     _GetKey:	
  7934                           	opt	stack 6
  7935                           ; Regs used in _GetKey: [wreg+pclath+cstack]
  7936                           	line	56
  7937                           	
  7938  1960                     l7284:	
  7939                           ;Keypad.c: 56: char key = 'n';
  7940  1960  306E               	movlw	(06Eh)
  7941  1961  00F3               	movwf	(??_GetKey+0)+0
  7942  1962  0873               	movf	(??_GetKey+0)+0,w
  7943  1963  00F4               	movwf	(GetKey@key)
  7944                           	line	58
  7945                           ;Keypad.c: 58: while(key=='n')
  7946  1964  296E               	goto	l7288
  7947                           	
  7948  1965                     l714:	
  7949                           	line	59
  7950                           	
  7951  1965                     l7286:	
  7952                           ;Keypad.c: 59: key = READ_SWITCHES();
  7953  1965  160A  118A  262B   	fcall	_READ_SWITCHES
              160A  158A         
  7954  196A  00F3               	movwf	(??_GetKey+0)+0
  7955  196B  0873               	movf	(??_GetKey+0)+0,w
  7956  196C  00F4               	movwf	(GetKey@key)
  7957  196D  296E               	goto	l7288
  7958                           	
  7959  196E                     l713:	
  7960                           	line	58
  7961                           	
  7962  196E                     l7288:	
  7963  196E  0874               	movf	(GetKey@key),w
  7964  196F  3A6E               	xorlw	06Eh
  7965  1970  1903               	skipnz
  7966  1971  2973               	goto	u5631
  7967  1972  2974               	goto	u5630
  7968  1973                     u5631:
  7969  1973  2965               	goto	l7286
  7970  1974                     u5630:
  7971  1974  2975               	goto	l7290
  7972                           	
  7973  1975                     l715:	
  7974                           	line	61
  7975                           	
  7976  1975                     l7290:	
  7977                           ;Keypad.c: 61: return key;
  7978  1975  0874               	movf	(GetKey@key),w
  7979  1976  2977               	goto	l716
  7980                           	
  7981  1977                     l7292:	
  7982                           	line	62
  7983                           	
  7984  1977                     l716:	
  7985  1977  0008               	return
  7986                           	opt stack 0
  7987                           GLOBAL	__end_of_GetKey
  7988  1978                     	__end_of_GetKey:
  7989 ;; =============== function _GetKey ends ============
  7990                           
  7991                           	signat	_GetKey,89
  7992                           	global	___lltoft
  7993                           psect	text702,local,class=CODE,delta=2
  7994                           global __ptext702
  7995  1A27                     __ptext702:
  7996                           
  7997 ;; *************** function ___lltoft *****************
  7998 ;; Defined at:
  7999 ;;		line 36 in file "C:\Program Files (x86)\HI-TECH Software\PICC\9.82\sources\lltoft.c"
  8000 ;; Parameters:    Size  Location     Type
  8001 ;;  c               4    8[COMMON] unsigned long 
  8002 ;; Auto vars:     Size  Location     Type
  8003 ;;  exp             1   13[COMMON] unsigned char 
  8004 ;; Return value:  Size  Location     Type
  8005 ;;                  3    8[COMMON] float 
  8006 ;; Registers used:
  8007 ;;		wreg, status,2, status,0, pclath, cstack
  8008 ;; Tracked objects:
  8009 ;;		On entry : 0/0
  8010 ;;		On exit  : 0/0
  8011 ;;		Unchanged: 0/0
  8012 ;; Data sizes:     COMMON   BANK0   BANK1   BANK3   BANK2
  8013 ;;      Params:         4       0       0       0       0
  8014 ;;      Locals:         1       0       0       0       0
  8015 ;;      Temps:          1       0       0       0       0
  8016 ;;      Totals:         6       0       0       0       0
  8017 ;;Total ram usage:        6 bytes
  8018 ;; Hardware stack levels used:    1
  8019 ;; Hardware stack levels required when called:    1
  8020 ;; This function calls:
  8021 ;;		___ftpack
  8022 ;; This function is called by:
  8023 ;;		_sprintf
  8024 ;; This function uses a non-reentrant model
  8025 ;;
  8026                           psect	text702
  8027                           	file	"C:\Program Files (x86)\HI-TECH Software\PICC\9.82\sources\lltoft.c"
  8028                           	line	36
  8029                           	global	__size_of___lltoft
  8030  0032                     	__size_of___lltoft	equ	__end_of___lltoft-___lltoft
  8031                           	
  8032  1A27                     ___lltoft:	
  8033                           	opt	stack 5
  8034                           ; Regs used in ___lltoft: [wreg+status,2+status,0+pclath+cstack]
  8035                           	line	38
  8036                           	
  8037  1A27                     l7274:	
  8038  1A27  308E               	movlw	(08Eh)
  8039  1A28  00FC               	movwf	(??___lltoft+0)+0
  8040  1A29  087C               	movf	(??___lltoft+0)+0,w
  8041  1A2A  00FD               	movwf	(___lltoft@exp)
  8042                           	line	41
  8043  1A2B  2A3A               	goto	l7278
  8044                           	
  8045  1A2C                     l3122:	
  8046                           	line	42
  8047                           	
  8048  1A2C                     l7276:	
  8049  1A2C  3001               	movlw	01h
  8050  1A2D                     u5615:
  8051  1A2D  1003               	clrc
  8052  1A2E  0CFB               	rrf	(___lltoft@c+3),f
  8053  1A2F  0CFA               	rrf	(___lltoft@c+2),f
  8054  1A30  0CF9               	rrf	(___lltoft@c+1),f
  8055  1A31  0CF8               	rrf	(___lltoft@c),f
  8056  1A32  3EFF               	addlw	-1
  8057  1A33  1D03               	skipz
  8058  1A34  2A2D               	goto	u5615
  8059                           
  8060                           	line	43
  8061  1A35  3001               	movlw	(01h)
  8062  1A36  00FC               	movwf	(??___lltoft+0)+0
  8063  1A37  087C               	movf	(??___lltoft+0)+0,w
  8064  1A38  07FD               	addwf	(___lltoft@exp),f
  8065  1A39  2A3A               	goto	l7278
  8066                           	line	44
  8067                           	
  8068  1A3A                     l3121:	
  8069                           	line	41
  8070                           	
  8071  1A3A                     l7278:	
  8072  1A3A  30FF               	movlw	high highword(-16777216)
  8073  1A3B  057B               	andwf	(___lltoft@c+3),w
  8074  1A3C  1D03               	btfss	status,2
  8075  1A3D  2A3F               	goto	u5621
  8076  1A3E  2A40               	goto	u5620
  8077  1A3F                     u5621:
  8078  1A3F  2A2C               	goto	l7276
  8079  1A40                     u5620:
  8080  1A40  2A41               	goto	l7280
  8081                           	
  8082  1A41                     l3123:	
  8083                           	line	45
  8084                           	
  8085  1A41                     l7280:	
  8086  1A41  0878               	movf	(___lltoft@c),w
  8087  1A42  00F0               	movwf	(?___ftpack)
  8088  1A43  0879               	movf	(___lltoft@c+1),w
  8089  1A44  00F1               	movwf	(?___ftpack+1)
  8090  1A45  087A               	movf	(___lltoft@c+2),w
  8091  1A46  00F2               	movwf	(?___ftpack+2)
  8092  1A47  087D               	movf	(___lltoft@exp),w
  8093  1A48  00FC               	movwf	(??___lltoft+0)+0
  8094  1A49  087C               	movf	(??___lltoft+0)+0,w
  8095  1A4A  00F3               	movwf	0+(?___ftpack)+03h
  8096  1A4B  01F4               	clrf	0+(?___ftpack)+04h
  8097  1A4C  160A  158A  25A7   	fcall	___ftpack
              160A  158A         
  8098  1A51  0870               	movf	(0+(?___ftpack)),w
  8099  1A52  00F8               	movwf	(?___lltoft)
  8100  1A53  0871               	movf	(1+(?___ftpack)),w
  8101  1A54  00F9               	movwf	(?___lltoft+1)
  8102  1A55  0872               	movf	(2+(?___ftpack)),w
  8103  1A56  00FA               	movwf	(?___lltoft+2)
  8104  1A57  2A58               	goto	l3124
  8105                           	
  8106  1A58                     l7282:	
  8107                           	line	46
  8108                           	
  8109  1A58                     l3124:	
  8110  1A58  0008               	return
  8111                           	opt stack 0
  8112                           GLOBAL	__end_of___lltoft
  8113  1A59                     	__end_of___lltoft:
  8114 ;; =============== function ___lltoft ends ============
  8115                           
  8116                           	signat	___lltoft,4219
  8117                           	global	___altoft
  8118                           psect	text703,local,class=CODE,delta=2
  8119                           global __ptext703
  8120  1AD7                     __ptext703:
  8121                           
  8122 ;; *************** function ___altoft *****************
  8123 ;; Defined at:
  8124 ;;		line 43 in file "C:\Program Files (x86)\HI-TECH Software\PICC\9.82\sources\altoft.c"
  8125 ;; Parameters:    Size  Location     Type
  8126 ;;  c               4    6[BANK0 ] long 
  8127 ;; Auto vars:     Size  Location     Type
  8128 ;;  sign            1   13[BANK0 ] unsigned char 
  8129 ;;  exp             1   12[BANK0 ] unsigned char 
  8130 ;; Return value:  Size  Location     Type
  8131 ;;                  3    6[BANK0 ] float 
  8132 ;; Registers used:
  8133 ;;		wreg, status,2, status,0, pclath, cstack
  8134 ;; Tracked objects:
  8135 ;;		On entry : 0/0
  8136 ;;		On exit  : 0/0
  8137 ;;		Unchanged: 0/0
  8138 ;; Data sizes:     COMMON   BANK0   BANK1   BANK3   BANK2
  8139 ;;      Params:         0       4       0       0       0
  8140 ;;      Locals:         0       2       0       0       0
  8141 ;;      Temps:          0       2       0       0       0
  8142 ;;      Totals:         0       8       0       0       0
  8143 ;;Total ram usage:        8 bytes
  8144 ;; Hardware stack levels used:    1
  8145 ;; Hardware stack levels required when called:    1
  8146 ;; This function calls:
  8147 ;;		___ftpack
  8148 ;; This function is called by:
  8149 ;;		_main
  8150 ;; This function uses a non-reentrant model
  8151 ;;
  8152                           psect	text703
  8153                           	file	"C:\Program Files (x86)\HI-TECH Software\PICC\9.82\sources\altoft.c"
  8154                           	line	43
  8155                           	global	__size_of___altoft
  8156  004D                     	__size_of___altoft	equ	__end_of___altoft-___altoft
  8157                           	
  8158  1AD7                     ___altoft:	
  8159                           	opt	stack 6
  8160                           ; Regs used in ___altoft: [wreg+status,2+status,0+pclath+cstack]
  8161                           	line	45
  8162                           	
  8163  1AD7                     l7256:	
  8164  1AD7  1283               	bcf	status, 5	;RP0=0, select bank0
  8165  1AD8  1303               	bcf	status, 6	;RP1=0, select bank0
  8166  1AD9  01AD               	clrf	(___altoft@sign)
  8167                           	line	46
  8168                           	
  8169  1ADA                     l7258:	
  8170  1ADA  308E               	movlw	(08Eh)
  8171  1ADB  00AA               	movwf	(??___altoft+0)+0
  8172  1ADC  082A               	movf	(??___altoft+0)+0,w
  8173  1ADD  00AC               	movwf	(___altoft@exp)
  8174                           	line	47
  8175                           	
  8176  1ADE                     l7260:	
  8177  1ADE  1FA9               	btfss	(___altoft@c+3),7
  8178  1ADF  2AE1               	goto	u5581
  8179  1AE0  2AE2               	goto	u5580
  8180  1AE1                     u5581:
  8181  1AE1  2B00               	goto	l7268
  8182  1AE2                     u5580:
  8183                           	line	48
  8184                           	
  8185  1AE2                     l7262:	
  8186  1AE2  09A6               	comf	(___altoft@c),f
  8187  1AE3  09A7               	comf	(___altoft@c+1),f
  8188  1AE4  09A8               	comf	(___altoft@c+2),f
  8189  1AE5  09A9               	comf	(___altoft@c+3),f
  8190  1AE6  0AA6               	incf	(___altoft@c),f
  8191  1AE7  1903               	skipnz
  8192  1AE8  0AA7               	incf	(___altoft@c+1),f
  8193  1AE9  1903               	skipnz
  8194  1AEA  0AA8               	incf	(___altoft@c+2),f
  8195  1AEB  1903               	skipnz
  8196  1AEC  0AA9               	incf	(___altoft@c+3),f
  8197                           	line	49
  8198                           	
  8199  1AED                     l7264:	
  8200  1AED  01AD               	clrf	(___altoft@sign)
  8201  1AEE  1403               	bsf	status,0
  8202  1AEF  0DAD               	rlf	(___altoft@sign),f
  8203  1AF0  2B00               	goto	l7268
  8204                           	line	50
  8205                           	
  8206  1AF1                     l3112:	
  8207                           	line	52
  8208  1AF1  2B00               	goto	l7268
  8209                           	
  8210  1AF2                     l3114:	
  8211                           	line	53
  8212                           	
  8213  1AF2                     l7266:	
  8214  1AF2  3001               	movlw	01h
  8215  1AF3                     u5595:
  8216  1AF3  1003               	clrc
  8217  1AF4  0CA9               	rrf	(___altoft@c+3),f
  8218  1AF5  0CA8               	rrf	(___altoft@c+2),f
  8219  1AF6  0CA7               	rrf	(___altoft@c+1),f
  8220  1AF7  0CA6               	rrf	(___altoft@c),f
  8221  1AF8  3EFF               	addlw	-1
  8222  1AF9  1D03               	skipz
  8223  1AFA  2AF3               	goto	u5595
  8224                           
  8225                           	line	54
  8226  1AFB  3001               	movlw	(01h)
  8227  1AFC  00AA               	movwf	(??___altoft+0)+0
  8228  1AFD  082A               	movf	(??___altoft+0)+0,w
  8229  1AFE  07AC               	addwf	(___altoft@exp),f
  8230  1AFF  2B00               	goto	l7268
  8231                           	line	55
  8232                           	
  8233  1B00                     l3113:	
  8234                           	line	52
  8235                           	
  8236  1B00                     l7268:	
  8237  1B00  30FF               	movlw	high highword(-16777216)
  8238  1B01  0529               	andwf	(___altoft@c+3),w
  8239  1B02  1D03               	btfss	status,2
  8240  1B03  2B05               	goto	u5601
  8241  1B04  2B06               	goto	u5600
  8242  1B05                     u5601:
  8243  1B05  2AF2               	goto	l7266
  8244  1B06                     u5600:
  8245  1B06  2B07               	goto	l7270
  8246                           	
  8247  1B07                     l3115:	
  8248                           	line	56
  8249                           	
  8250  1B07                     l7270:	
  8251  1B07  0826               	movf	(___altoft@c),w
  8252  1B08  00F0               	movwf	(?___ftpack)
  8253  1B09  0827               	movf	(___altoft@c+1),w
  8254  1B0A  00F1               	movwf	(?___ftpack+1)
  8255  1B0B  0828               	movf	(___altoft@c+2),w
  8256  1B0C  00F2               	movwf	(?___ftpack+2)
  8257  1B0D  082C               	movf	(___altoft@exp),w
  8258  1B0E  00AA               	movwf	(??___altoft+0)+0
  8259  1B0F  082A               	movf	(??___altoft+0)+0,w
  8260  1B10  00F3               	movwf	0+(?___ftpack)+03h
  8261  1B11  082D               	movf	(___altoft@sign),w
  8262  1B12  00AB               	movwf	(??___altoft+1)+0
  8263  1B13  082B               	movf	(??___altoft+1)+0,w
  8264  1B14  00F4               	movwf	0+(?___ftpack)+04h
  8265  1B15  160A  158A  25A7   	fcall	___ftpack
              160A  158A         
  8266  1B1A  0870               	movf	(0+(?___ftpack)),w
  8267  1B1B  1283               	bcf	status, 5	;RP0=0, select bank0
  8268  1B1C  1303               	bcf	status, 6	;RP1=0, select bank0
  8269  1B1D  00A6               	movwf	(?___altoft)
  8270  1B1E  0871               	movf	(1+(?___ftpack)),w
  8271  1B1F  00A7               	movwf	(?___altoft+1)
  8272  1B20  0872               	movf	(2+(?___ftpack)),w
  8273  1B21  00A8               	movwf	(?___altoft+2)
  8274  1B22  2B23               	goto	l3116
  8275                           	
  8276  1B23                     l7272:	
  8277                           	line	57
  8278                           	
  8279  1B23                     l3116:	
  8280  1B23  0008               	return
  8281                           	opt stack 0
  8282                           GLOBAL	__end_of___altoft
  8283  1B24                     	__end_of___altoft:
  8284 ;; =============== function ___altoft ends ============
  8285                           
  8286                           	signat	___altoft,4219
  8287                           	global	___ftmul
  8288                           psect	text704,local,class=CODE,delta=2
  8289                           global __ptext704
  8290  001E                     __ptext704:
  8291                           
  8292 ;; *************** function ___ftmul *****************
  8293 ;; Defined at:
  8294 ;;		line 52 in file "C:\Program Files (x86)\HI-TECH Software\PICC\9.82\sources\ftmul.c"
  8295 ;; Parameters:    Size  Location     Type
  8296 ;;  f1              3   21[BANK0 ] float 
  8297 ;;  f2              3   24[BANK0 ] float 
  8298 ;; Auto vars:     Size  Location     Type
  8299 ;;  f3_as_produc    3   32[BANK0 ] unsigned um
  8300 ;;  sign            1   36[BANK0 ] unsigned char 
  8301 ;;  cntr            1   35[BANK0 ] unsigned char 
  8302 ;;  exp             1   31[BANK0 ] unsigned char 
  8303 ;; Return value:  Size  Location     Type
  8304 ;;                  3   21[BANK0 ] float 
  8305 ;; Registers used:
  8306 ;;		wreg, status,2, status,0, pclath, cstack
  8307 ;; Tracked objects:
  8308 ;;		On entry : 0/0
  8309 ;;		On exit  : 0/0
  8310 ;;		Unchanged: 0/0
  8311 ;; Data sizes:     COMMON   BANK0   BANK1   BANK3   BANK2
  8312 ;;      Params:         0       6       0       0       0
  8313 ;;      Locals:         0       6       0       0       0
  8314 ;;      Temps:          0       4       0       0       0
  8315 ;;      Totals:         0      16       0       0       0
  8316 ;;Total ram usage:       16 bytes
  8317 ;; Hardware stack levels used:    1
  8318 ;; Hardware stack levels required when called:    1
  8319 ;; This function calls:
  8320 ;;		___ftpack
  8321 ;; This function is called by:
  8322 ;;		_fround
  8323 ;;		_scale
  8324 ;;		_sprintf
  8325 ;;		_sqrt
  8326 ;; This function uses a non-reentrant model
  8327 ;;
  8328                           psect	text704
  8329                           	file	"C:\Program Files (x86)\HI-TECH Software\PICC\9.82\sources\ftmul.c"
  8330                           	line	52
  8331                           	global	__size_of___ftmul
  8332  00EE                     	__size_of___ftmul	equ	__end_of___ftmul-___ftmul
  8333                           	
  8334  001E                     ___ftmul:	
  8335                           	opt	stack 4
  8336                           ; Regs used in ___ftmul: [wreg+status,2+status,0+pclath+cstack]
  8337                           	line	56
  8338                           	
  8339  001E                     l7206:	
  8340  001E  1283               	bcf	status, 5	;RP0=0, select bank0
  8341  001F  1303               	bcf	status, 6	;RP1=0, select bank0
  8342  0020  0835               	movf	(___ftmul@f1),w
  8343  0021  00BB               	movwf	((??___ftmul+0)+0)
  8344  0022  0836               	movf	(___ftmul@f1+1),w
  8345  0023  00BC               	movwf	((??___ftmul+0)+0+1)
  8346  0024  0837               	movf	(___ftmul@f1+2),w
  8347  0025  00BD               	movwf	((??___ftmul+0)+0+2)
  8348  0026  1003               	clrc
  8349  0027  0D3C               	rlf	(??___ftmul+0)+1,w
  8350  0028  0D3D               	rlf	(??___ftmul+0)+2,w
  8351  0029  00BE               	movwf	(??___ftmul+3)+0
  8352  002A  083E               	movf	(??___ftmul+3)+0,w
  8353  002B  00BF               	movwf	(___ftmul@exp)
  8354  002C  08BF               	movf	((___ftmul@exp)),f
  8355  002D  1D03               	skipz
  8356  002E  2830               	goto	u5441
  8357  002F  2831               	goto	u5440
  8358  0030                     u5441:
  8359  0030  2839               	goto	l7212
  8360  0031                     u5440:
  8361                           	line	57
  8362                           	
  8363  0031                     l7208:	
  8364  0031  3000               	movlw	0x0
  8365  0032  00B5               	movwf	(?___ftmul)
  8366  0033  3000               	movlw	0x0
  8367  0034  00B6               	movwf	(?___ftmul+1)
  8368  0035  3000               	movlw	0x0
  8369  0036  00B7               	movwf	(?___ftmul+2)
  8370  0037  290B               	goto	l2983
  8371                           	
  8372  0038                     l7210:	
  8373  0038  290B               	goto	l2983
  8374                           	
  8375  0039                     l2982:	
  8376                           	line	58
  8377                           	
  8378  0039                     l7212:	
  8379  0039  0838               	movf	(___ftmul@f2),w
  8380  003A  00BB               	movwf	((??___ftmul+0)+0)
  8381  003B  0839               	movf	(___ftmul@f2+1),w
  8382  003C  00BC               	movwf	((??___ftmul+0)+0+1)
  8383  003D  083A               	movf	(___ftmul@f2+2),w
  8384  003E  00BD               	movwf	((??___ftmul+0)+0+2)
  8385  003F  1003               	clrc
  8386  0040  0D3C               	rlf	(??___ftmul+0)+1,w
  8387  0041  0D3D               	rlf	(??___ftmul+0)+2,w
  8388  0042  00BE               	movwf	(??___ftmul+3)+0
  8389  0043  083E               	movf	(??___ftmul+3)+0,w
  8390  0044  00C4               	movwf	(___ftmul@sign)
  8391  0045  08C4               	movf	((___ftmul@sign)),f
  8392  0046  1D03               	skipz
  8393  0047  2849               	goto	u5451
  8394  0048  284A               	goto	u5450
  8395  0049                     u5451:
  8396  0049  2852               	goto	l7218
  8397  004A                     u5450:
  8398                           	line	59
  8399                           	
  8400  004A                     l7214:	
  8401  004A  3000               	movlw	0x0
  8402  004B  00B5               	movwf	(?___ftmul)
  8403  004C  3000               	movlw	0x0
  8404  004D  00B6               	movwf	(?___ftmul+1)
  8405  004E  3000               	movlw	0x0
  8406  004F  00B7               	movwf	(?___ftmul+2)
  8407  0050  290B               	goto	l2983
  8408                           	
  8409  0051                     l7216:	
  8410  0051  290B               	goto	l2983
  8411                           	
  8412  0052                     l2984:	
  8413                           	line	60
  8414                           	
  8415  0052                     l7218:	
  8416  0052  0844               	movf	(___ftmul@sign),w
  8417  0053  3E7B               	addlw	07Bh
  8418  0054  00BB               	movwf	(??___ftmul+0)+0
  8419  0055  083B               	movf	(??___ftmul+0)+0,w
  8420  0056  07BF               	addwf	(___ftmul@exp),f
  8421                           	line	61
  8422  0057  0835               	movf	(___ftmul@f1),w
  8423  0058  00BB               	movwf	((??___ftmul+0)+0)
  8424  0059  0836               	movf	(___ftmul@f1+1),w
  8425  005A  00BC               	movwf	((??___ftmul+0)+0+1)
  8426  005B  0837               	movf	(___ftmul@f1+2),w
  8427  005C  00BD               	movwf	((??___ftmul+0)+0+2)
  8428  005D  3010               	movlw	010h
  8429  005E                     u5465:
  8430  005E  1003               	clrc
  8431  005F  0CBD               	rrf	(??___ftmul+0)+2,f
  8432  0060  0CBC               	rrf	(??___ftmul+0)+1,f
  8433  0061  0CBB               	rrf	(??___ftmul+0)+0,f
  8434  0062                     u5460:
  8435  0062  3EFF               	addlw	-1
  8436  0063  1D03               	skipz
  8437  0064  285E               	goto	u5465
  8438  0065  083B               	movf	0+(??___ftmul+0)+0,w
  8439  0066  00BE               	movwf	(??___ftmul+3)+0
  8440  0067  083E               	movf	(??___ftmul+3)+0,w
  8441  0068  00C4               	movwf	(___ftmul@sign)
  8442                           	line	62
  8443  0069  0838               	movf	(___ftmul@f2),w
  8444  006A  00BB               	movwf	((??___ftmul+0)+0)
  8445  006B  0839               	movf	(___ftmul@f2+1),w
  8446  006C  00BC               	movwf	((??___ftmul+0)+0+1)
  8447  006D  083A               	movf	(___ftmul@f2+2),w
  8448  006E  00BD               	movwf	((??___ftmul+0)+0+2)
  8449  006F  3010               	movlw	010h
  8450  0070                     u5475:
  8451  0070  1003               	clrc
  8452  0071  0CBD               	rrf	(??___ftmul+0)+2,f
  8453  0072  0CBC               	rrf	(??___ftmul+0)+1,f
  8454  0073  0CBB               	rrf	(??___ftmul+0)+0,f
  8455  0074                     u5470:
  8456  0074  3EFF               	addlw	-1
  8457  0075  1D03               	skipz
  8458  0076  2870               	goto	u5475
  8459  0077  083B               	movf	0+(??___ftmul+0)+0,w
  8460  0078  00BE               	movwf	(??___ftmul+3)+0
  8461  0079  083E               	movf	(??___ftmul+3)+0,w
  8462  007A  06C4               	xorwf	(___ftmul@sign),f
  8463                           	line	63
  8464  007B  3080               	movlw	(080h)
  8465  007C  00BB               	movwf	(??___ftmul+0)+0
  8466  007D  083B               	movf	(??___ftmul+0)+0,w
  8467  007E  05C4               	andwf	(___ftmul@sign),f
  8468                           	line	64
  8469                           	
  8470  007F                     l7220:	
  8471  007F  17B6               	bsf	(___ftmul@f1)+(15/8),(15)&7
  8472                           	line	66
  8473                           	
  8474  0080                     l7222:	
  8475  0080  17B9               	bsf	(___ftmul@f2)+(15/8),(15)&7
  8476                           	line	67
  8477                           	
  8478  0081                     l7224:	
  8479  0081  30FF               	movlw	0FFh
  8480  0082  05B8               	andwf	(___ftmul@f2),f
  8481  0083  30FF               	movlw	0FFh
  8482  0084  05B9               	andwf	(___ftmul@f2+1),f
  8483  0085  3000               	movlw	0
  8484  0086  05BA               	andwf	(___ftmul@f2+2),f
  8485                           	line	68
  8486                           	
  8487  0087                     l7226:	
  8488  0087  3000               	movlw	0
  8489  0088  00C0               	movwf	(___ftmul@f3_as_product)
  8490  0089  3000               	movlw	0
  8491  008A  00C1               	movwf	(___ftmul@f3_as_product+1)
  8492  008B  3000               	movlw	0
  8493  008C  00C2               	movwf	(___ftmul@f3_as_product+2)
  8494                           	line	69
  8495                           	
  8496  008D                     l7228:	
  8497  008D  3007               	movlw	(07h)
  8498  008E  00BB               	movwf	(??___ftmul+0)+0
  8499  008F  083B               	movf	(??___ftmul+0)+0,w
  8500  0090  00C3               	movwf	(___ftmul@cntr)
  8501  0091  2892               	goto	l7230
  8502                           	line	70
  8503                           	
  8504  0092                     l2985:	
  8505                           	line	71
  8506                           	
  8507  0092                     l7230:	
  8508  0092  1C35               	btfss	(___ftmul@f1),(0)&7
  8509  0093  2895               	goto	u5481
  8510  0094  2896               	goto	u5480
  8511  0095                     u5481:
  8512  0095  28A7               	goto	l7234
  8513  0096                     u5480:
  8514                           	line	72
  8515                           	
  8516  0096                     l7232:	
  8517  0096  0838               	movf	(___ftmul@f2),w
  8518  0097  07C0               	addwf	(___ftmul@f3_as_product),f
  8519  0098  0839               	movf	(___ftmul@f2+1),w
  8520  0099  1103               	clrz
  8521  009A  1803               	skipnc
  8522  009B  0A39               	incf	(___ftmul@f2+1),w
  8523  009C  1903               	skipnz
  8524  009D  289F               	goto	u5491
  8525  009E  07C1               	addwf	(___ftmul@f3_as_product+1),f
  8526  009F                     u5491:
  8527  009F  083A               	movf	(___ftmul@f2+2),w
  8528  00A0  1103               	clrz
  8529  00A1  1803               	skipnc
  8530  00A2  0A3A               	incf	(___ftmul@f2+2),w
  8531  00A3  1903               	skipnz
  8532  00A4  28A6               	goto	u5492
  8533  00A5  07C2               	addwf	(___ftmul@f3_as_product+2),f
  8534  00A6                     u5492:
  8535                           
  8536  00A6  28A7               	goto	l7234
  8537                           	
  8538  00A7                     l2986:	
  8539                           	line	73
  8540                           	
  8541  00A7                     l7234:	
  8542  00A7  3001               	movlw	01h
  8543  00A8                     u5505:
  8544  00A8  1003               	clrc
  8545  00A9  0CB7               	rrf	(___ftmul@f1+2),f
  8546  00AA  0CB6               	rrf	(___ftmul@f1+1),f
  8547  00AB  0CB5               	rrf	(___ftmul@f1),f
  8548  00AC  3EFF               	addlw	-1
  8549  00AD  1D03               	skipz
  8550  00AE  28A8               	goto	u5505
  8551                           
  8552                           	line	74
  8553                           	
  8554  00AF                     l7236:	
  8555  00AF  3001               	movlw	01h
  8556  00B0                     u5515:
  8557  00B0  1003               	clrc
  8558  00B1  0DB8               	rlf	(___ftmul@f2),f
  8559  00B2  0DB9               	rlf	(___ftmul@f2+1),f
  8560  00B3  0DBA               	rlf	(___ftmul@f2+2),f
  8561  00B4  3EFF               	addlw	-1
  8562  00B5  1D03               	skipz
  8563  00B6  28B0               	goto	u5515
  8564                           	line	75
  8565                           	
  8566  00B7                     l7238:	
  8567  00B7  3001               	movlw	low(01h)
  8568  00B8  02C3               	subwf	(___ftmul@cntr),f
  8569  00B9  1D03               	btfss	status,2
  8570  00BA  28BC               	goto	u5521
  8571  00BB  28BD               	goto	u5520
  8572  00BC                     u5521:
  8573  00BC  2892               	goto	l7230
  8574  00BD                     u5520:
  8575  00BD  28BE               	goto	l7240
  8576                           	
  8577  00BE                     l2987:	
  8578                           	line	76
  8579                           	
  8580  00BE                     l7240:	
  8581  00BE  3009               	movlw	(09h)
  8582  00BF  00BB               	movwf	(??___ftmul+0)+0
  8583  00C0  083B               	movf	(??___ftmul+0)+0,w
  8584  00C1  00C3               	movwf	(___ftmul@cntr)
  8585  00C2  28C3               	goto	l7242
  8586                           	line	77
  8587                           	
  8588  00C3                     l2988:	
  8589                           	line	78
  8590                           	
  8591  00C3                     l7242:	
  8592  00C3  1C35               	btfss	(___ftmul@f1),(0)&7
  8593  00C4  28C6               	goto	u5531
  8594  00C5  28C7               	goto	u5530
  8595  00C6                     u5531:
  8596  00C6  28D8               	goto	l7246
  8597  00C7                     u5530:
  8598                           	line	79
  8599                           	
  8600  00C7                     l7244:	
  8601  00C7  0838               	movf	(___ftmul@f2),w
  8602  00C8  07C0               	addwf	(___ftmul@f3_as_product),f
  8603  00C9  0839               	movf	(___ftmul@f2+1),w
  8604  00CA  1103               	clrz
  8605  00CB  1803               	skipnc
  8606  00CC  0A39               	incf	(___ftmul@f2+1),w
  8607  00CD  1903               	skipnz
  8608  00CE  28D0               	goto	u5541
  8609  00CF  07C1               	addwf	(___ftmul@f3_as_product+1),f
  8610  00D0                     u5541:
  8611  00D0  083A               	movf	(___ftmul@f2+2),w
  8612  00D1  1103               	clrz
  8613  00D2  1803               	skipnc
  8614  00D3  0A3A               	incf	(___ftmul@f2+2),w
  8615  00D4  1903               	skipnz
  8616  00D5  28D7               	goto	u5542
  8617  00D6  07C2               	addwf	(___ftmul@f3_as_product+2),f
  8618  00D7                     u5542:
  8619                           
  8620  00D7  28D8               	goto	l7246
  8621                           	
  8622  00D8                     l2989:	
  8623                           	line	80
  8624                           	
  8625  00D8                     l7246:	
  8626  00D8  3001               	movlw	01h
  8627  00D9                     u5555:
  8628  00D9  1003               	clrc
  8629  00DA  0CB7               	rrf	(___ftmul@f1+2),f
  8630  00DB  0CB6               	rrf	(___ftmul@f1+1),f
  8631  00DC  0CB5               	rrf	(___ftmul@f1),f
  8632  00DD  3EFF               	addlw	-1
  8633  00DE  1D03               	skipz
  8634  00DF  28D9               	goto	u5555
  8635                           
  8636                           	line	81
  8637                           	
  8638  00E0                     l7248:	
  8639  00E0  3001               	movlw	01h
  8640  00E1                     u5565:
  8641  00E1  1003               	clrc
  8642  00E2  0CC2               	rrf	(___ftmul@f3_as_product+2),f
  8643  00E3  0CC1               	rrf	(___ftmul@f3_as_product+1),f
  8644  00E4  0CC0               	rrf	(___ftmul@f3_as_product),f
  8645  00E5  3EFF               	addlw	-1
  8646  00E6  1D03               	skipz
  8647  00E7  28E1               	goto	u5565
  8648                           
  8649                           	line	82
  8650                           	
  8651  00E8                     l7250:	
  8652  00E8  3001               	movlw	low(01h)
  8653  00E9  02C3               	subwf	(___ftmul@cntr),f
  8654  00EA  1D03               	btfss	status,2
  8655  00EB  28ED               	goto	u5571
  8656  00EC  28EE               	goto	u5570
  8657  00ED                     u5571:
  8658  00ED  28C3               	goto	l7242
  8659  00EE                     u5570:
  8660  00EE  28EF               	goto	l7252
  8661                           	
  8662  00EF                     l2990:	
  8663                           	line	83
  8664                           	
  8665  00EF                     l7252:	
  8666  00EF  0840               	movf	(___ftmul@f3_as_product),w
  8667  00F0  00F0               	movwf	(?___ftpack)
  8668  00F1  0841               	movf	(___ftmul@f3_as_product+1),w
  8669  00F2  00F1               	movwf	(?___ftpack+1)
  8670  00F3  0842               	movf	(___ftmul@f3_as_product+2),w
  8671  00F4  00F2               	movwf	(?___ftpack+2)
  8672  00F5  083F               	movf	(___ftmul@exp),w
  8673  00F6  00BB               	movwf	(??___ftmul+0)+0
  8674  00F7  083B               	movf	(??___ftmul+0)+0,w
  8675  00F8  00F3               	movwf	0+(?___ftpack)+03h
  8676  00F9  0844               	movf	(___ftmul@sign),w
  8677  00FA  00BC               	movwf	(??___ftmul+1)+0
  8678  00FB  083C               	movf	(??___ftmul+1)+0,w
  8679  00FC  00F4               	movwf	0+(?___ftpack)+04h
  8680  00FD  160A  158A  25A7   	fcall	___ftpack
              120A  118A         
  8681  0102  0870               	movf	(0+(?___ftpack)),w
  8682  0103  1283               	bcf	status, 5	;RP0=0, select bank0
  8683  0104  1303               	bcf	status, 6	;RP1=0, select bank0
  8684  0105  00B5               	movwf	(?___ftmul)
  8685  0106  0871               	movf	(1+(?___ftpack)),w
  8686  0107  00B6               	movwf	(?___ftmul+1)
  8687  0108  0872               	movf	(2+(?___ftpack)),w
  8688  0109  00B7               	movwf	(?___ftmul+2)
  8689  010A  290B               	goto	l2983
  8690                           	
  8691  010B                     l7254:	
  8692                           	line	84
  8693                           	
  8694  010B                     l2983:	
  8695  010B  0008               	return
  8696                           	opt stack 0
  8697                           GLOBAL	__end_of___ftmul
  8698  010C                     	__end_of___ftmul:
  8699 ;; =============== function ___ftmul ends ============
  8700                           
  8701                           	signat	___ftmul,8315
  8702                           	global	___ftadd
  8703                           psect	text705,local,class=CODE,delta=2
  8704                           global __ptext705
  8705  11E6                     __ptext705:
  8706                           
  8707 ;; *************** function ___ftadd *****************
  8708 ;; Defined at:
  8709 ;;		line 87 in file "C:\Program Files (x86)\HI-TECH Software\PICC\9.82\sources\ftadd.c"
  8710 ;; Parameters:    Size  Location     Type
  8711 ;;  f1              3   37[BANK0 ] float 
  8712 ;;  f2              3   40[BANK0 ] float 
  8713 ;; Auto vars:     Size  Location     Type
  8714 ;;  exp1            1   49[BANK0 ] unsigned char 
  8715 ;;  exp2            1   48[BANK0 ] unsigned char 
  8716 ;;  sign            1   47[BANK0 ] unsigned char 
  8717 ;; Return value:  Size  Location     Type
  8718 ;;                  3   37[BANK0 ] float 
  8719 ;; Registers used:
  8720 ;;		wreg, status,2, status,0, pclath, cstack
  8721 ;; Tracked objects:
  8722 ;;		On entry : 0/0
  8723 ;;		On exit  : 0/0
  8724 ;;		Unchanged: 0/0
  8725 ;; Data sizes:     COMMON   BANK0   BANK1   BANK3   BANK2
  8726 ;;      Params:         0       6       0       0       0
  8727 ;;      Locals:         0       3       0       0       0
  8728 ;;      Temps:          0       4       0       0       0
  8729 ;;      Totals:         0      13       0       0       0
  8730 ;;Total ram usage:       13 bytes
  8731 ;; Hardware stack levels used:    1
  8732 ;; Hardware stack levels required when called:    1
  8733 ;; This function calls:
  8734 ;;		___ftpack
  8735 ;; This function is called by:
  8736 ;;		_sprintf
  8737 ;;		___ftsub
  8738 ;; This function uses a non-reentrant model
  8739 ;;
  8740                           psect	text705
  8741                           	file	"C:\Program Files (x86)\HI-TECH Software\PICC\9.82\sources\ftadd.c"
  8742                           	line	87
  8743                           	global	__size_of___ftadd
  8744  0146                     	__size_of___ftadd	equ	__end_of___ftadd-___ftadd
  8745                           	
  8746  11E6                     ___ftadd:	
  8747                           	opt	stack 4
  8748                           ; Regs used in ___ftadd: [wreg+status,2+status,0+pclath+cstack]
  8749                           	line	90
  8750                           	
  8751  11E6                     l7136:	
  8752  11E6  1283               	bcf	status, 5	;RP0=0, select bank0
  8753  11E7  1303               	bcf	status, 6	;RP1=0, select bank0
  8754  11E8  0845               	movf	(___ftadd@f1),w
  8755  11E9  00CB               	movwf	((??___ftadd+0)+0)
  8756  11EA  0846               	movf	(___ftadd@f1+1),w
  8757  11EB  00CC               	movwf	((??___ftadd+0)+0+1)
  8758  11EC  0847               	movf	(___ftadd@f1+2),w
  8759  11ED  00CD               	movwf	((??___ftadd+0)+0+2)
  8760  11EE  1003               	clrc
  8761  11EF  0D4C               	rlf	(??___ftadd+0)+1,w
  8762  11F0  0D4D               	rlf	(??___ftadd+0)+2,w
  8763  11F1  00CE               	movwf	(??___ftadd+3)+0
  8764  11F2  084E               	movf	(??___ftadd+3)+0,w
  8765  11F3  00D1               	movwf	(___ftadd@exp1)
  8766                           	line	91
  8767  11F4  0848               	movf	(___ftadd@f2),w
  8768  11F5  00CB               	movwf	((??___ftadd+0)+0)
  8769  11F6  0849               	movf	(___ftadd@f2+1),w
  8770  11F7  00CC               	movwf	((??___ftadd+0)+0+1)
  8771  11F8  084A               	movf	(___ftadd@f2+2),w
  8772  11F9  00CD               	movwf	((??___ftadd+0)+0+2)
  8773  11FA  1003               	clrc
  8774  11FB  0D4C               	rlf	(??___ftadd+0)+1,w
  8775  11FC  0D4D               	rlf	(??___ftadd+0)+2,w
  8776  11FD  00CE               	movwf	(??___ftadd+3)+0
  8777  11FE  084E               	movf	(??___ftadd+3)+0,w
  8778  11FF  00D0               	movwf	(___ftadd@exp2)
  8779                           	line	92
  8780                           	
  8781  1200                     l7138:	
  8782  1200  0851               	movf	(___ftadd@exp1),w
  8783  1201  1D03               	skipz
  8784  1202  2A04               	goto	u5200
  8785  1203  2A15               	goto	l7144
  8786  1204                     u5200:
  8787                           	
  8788  1204                     l7140:	
  8789  1204  0850               	movf	(___ftadd@exp2),w
  8790  1205  0251               	subwf	(___ftadd@exp1),w
  8791  1206  1803               	skipnc
  8792  1207  2A09               	goto	u5211
  8793  1208  2A0A               	goto	u5210
  8794  1209                     u5211:
  8795  1209  2A1D               	goto	l7148
  8796  120A                     u5210:
  8797                           	
  8798  120A                     l7142:	
  8799  120A  0351               	decf	(___ftadd@exp1),w
  8800  120B  3AFF               	xorlw	0ffh
  8801  120C  0750               	addwf	(___ftadd@exp2),w
  8802  120D  00CB               	movwf	(??___ftadd+0)+0
  8803  120E  3019               	movlw	(019h)
  8804  120F  024B               	subwf	0+(??___ftadd+0)+0,w
  8805  1210  1C03               	skipc
  8806  1211  2A13               	goto	u5221
  8807  1212  2A14               	goto	u5220
  8808  1213                     u5221:
  8809  1213  2A1D               	goto	l7148
  8810  1214                     u5220:
  8811  1214  2A15               	goto	l7144
  8812                           	
  8813  1215                     l2930:	
  8814                           	line	93
  8815                           	
  8816  1215                     l7144:	
  8817  1215  0848               	movf	(___ftadd@f2),w
  8818  1216  00C5               	movwf	(?___ftadd)
  8819  1217  0849               	movf	(___ftadd@f2+1),w
  8820  1218  00C6               	movwf	(?___ftadd+1)
  8821  1219  084A               	movf	(___ftadd@f2+2),w
  8822  121A  00C7               	movwf	(?___ftadd+2)
  8823  121B  2B2B               	goto	l2931
  8824                           	
  8825  121C                     l7146:	
  8826  121C  2B2B               	goto	l2931
  8827                           	
  8828  121D                     l2928:	
  8829                           	line	94
  8830                           	
  8831  121D                     l7148:	
  8832  121D  0850               	movf	(___ftadd@exp2),w
  8833  121E  1D03               	skipz
  8834  121F  2A21               	goto	u5230
  8835  1220  2A31               	goto	l2934
  8836  1221                     u5230:
  8837                           	
  8838  1221                     l7150:	
  8839  1221  0851               	movf	(___ftadd@exp1),w
  8840  1222  0250               	subwf	(___ftadd@exp2),w
  8841  1223  1803               	skipnc
  8842  1224  2A26               	goto	u5241
  8843  1225  2A27               	goto	u5240
  8844  1226                     u5241:
  8845  1226  2A32               	goto	l7154
  8846  1227                     u5240:
  8847                           	
  8848  1227                     l7152:	
  8849  1227  0350               	decf	(___ftadd@exp2),w
  8850  1228  3AFF               	xorlw	0ffh
  8851  1229  0751               	addwf	(___ftadd@exp1),w
  8852  122A  00CB               	movwf	(??___ftadd+0)+0
  8853  122B  3019               	movlw	(019h)
  8854  122C  024B               	subwf	0+(??___ftadd+0)+0,w
  8855  122D  1C03               	skipc
  8856  122E  2A30               	goto	u5251
  8857  122F  2A31               	goto	u5250
  8858  1230                     u5251:
  8859  1230  2A32               	goto	l7154
  8860  1231                     u5250:
  8861                           	
  8862  1231                     l2934:	
  8863                           	line	95
  8864  1231  2B2B               	goto	l2931
  8865                           	
  8866  1232                     l2932:	
  8867                           	line	96
  8868                           	
  8869  1232                     l7154:	
  8870  1232  3006               	movlw	(06h)
  8871  1233  00CB               	movwf	(??___ftadd+0)+0
  8872  1234  084B               	movf	(??___ftadd+0)+0,w
  8873  1235  00CF               	movwf	(___ftadd@sign)
  8874                           	line	97
  8875                           	
  8876  1236                     l7156:	
  8877  1236  1FC7               	btfss	(___ftadd@f1+2),(23)&7
  8878  1237  2A39               	goto	u5261
  8879  1238  2A3A               	goto	u5260
  8880  1239                     u5261:
  8881  1239  2A3B               	goto	l2935
  8882  123A                     u5260:
  8883                           	line	98
  8884                           	
  8885  123A                     l7158:	
  8886  123A  17CF               	bsf	(___ftadd@sign)+(7/8),(7)&7
  8887                           	
  8888  123B                     l2935:	
  8889                           	line	99
  8890  123B  1FCA               	btfss	(___ftadd@f2+2),(23)&7
  8891  123C  2A3E               	goto	u5271
  8892  123D  2A3F               	goto	u5270
  8893  123E                     u5271:
  8894  123E  2A40               	goto	l2936
  8895  123F                     u5270:
  8896                           	line	100
  8897                           	
  8898  123F                     l7160:	
  8899  123F  174F               	bsf	(___ftadd@sign)+(6/8),(6)&7
  8900                           	
  8901  1240                     l2936:	
  8902                           	line	101
  8903  1240  17C6               	bsf	(___ftadd@f1)+(15/8),(15)&7
  8904                           	line	102
  8905                           	
  8906  1241                     l7162:	
  8907  1241  30FF               	movlw	0FFh
  8908  1242  05C5               	andwf	(___ftadd@f1),f
  8909  1243  30FF               	movlw	0FFh
  8910  1244  05C6               	andwf	(___ftadd@f1+1),f
  8911  1245  3000               	movlw	0
  8912  1246  05C7               	andwf	(___ftadd@f1+2),f
  8913                           	line	103
  8914                           	
  8915  1247                     l7164:	
  8916  1247  17C9               	bsf	(___ftadd@f2)+(15/8),(15)&7
  8917                           	line	104
  8918  1248  30FF               	movlw	0FFh
  8919  1249  05C8               	andwf	(___ftadd@f2),f
  8920  124A  30FF               	movlw	0FFh
  8921  124B  05C9               	andwf	(___ftadd@f2+1),f
  8922  124C  3000               	movlw	0
  8923  124D  05CA               	andwf	(___ftadd@f2+2),f
  8924                           	line	106
  8925  124E  0850               	movf	(___ftadd@exp2),w
  8926  124F  0251               	subwf	(___ftadd@exp1),w
  8927  1250  1803               	skipnc
  8928  1251  2A53               	goto	u5281
  8929  1252  2A54               	goto	u5280
  8930  1253                     u5281:
  8931  1253  2A85               	goto	l7176
  8932  1254                     u5280:
  8933  1254  2A55               	goto	l7166
  8934                           	line	109
  8935                           	
  8936  1255                     l2938:	
  8937                           	line	110
  8938                           	
  8939  1255                     l7166:	
  8940  1255  3001               	movlw	01h
  8941  1256                     u5295:
  8942  1256  1003               	clrc
  8943  1257  0DC8               	rlf	(___ftadd@f2),f
  8944  1258  0DC9               	rlf	(___ftadd@f2+1),f
  8945  1259  0DCA               	rlf	(___ftadd@f2+2),f
  8946  125A  3EFF               	addlw	-1
  8947  125B  1D03               	skipz
  8948  125C  2A56               	goto	u5295
  8949                           	line	111
  8950  125D  3001               	movlw	low(01h)
  8951  125E  02D0               	subwf	(___ftadd@exp2),f
  8952                           	line	112
  8953                           	
  8954  125F                     l7168:	
  8955  125F  0850               	movf	(___ftadd@exp2),w
  8956  1260  0651               	xorwf	(___ftadd@exp1),w
  8957  1261  1903               	skipnz
  8958  1262  2A64               	goto	u5301
  8959  1263  2A65               	goto	u5300
  8960  1264                     u5301:
  8961  1264  2A7D               	goto	l7174
  8962  1265                     u5300:
  8963                           	
  8964  1265                     l7170:	
  8965  1265  3001               	movlw	low(01h)
  8966  1266  02CF               	subwf	(___ftadd@sign),f
  8967  1267  084F               	movf	((___ftadd@sign)),w
  8968  1268  3907               	andlw	07h
  8969  1269  1D03               	btfss	status,2
  8970  126A  2A6C               	goto	u5311
  8971  126B  2A6D               	goto	u5310
  8972  126C                     u5311:
  8973  126C  2A55               	goto	l7166
  8974  126D                     u5310:
  8975  126D  2A7D               	goto	l7174
  8976                           	
  8977  126E                     l2940:	
  8978  126E  2A7D               	goto	l7174
  8979                           	
  8980  126F                     l2941:	
  8981                           	line	113
  8982  126F  2A7D               	goto	l7174
  8983                           	
  8984  1270                     l2943:	
  8985                           	line	114
  8986                           	
  8987  1270                     l7172:	
  8988  1270  3001               	movlw	01h
  8989  1271                     u5325:
  8990  1271  1003               	clrc
  8991  1272  0CC7               	rrf	(___ftadd@f1+2),f
  8992  1273  0CC6               	rrf	(___ftadd@f1+1),f
  8993  1274  0CC5               	rrf	(___ftadd@f1),f
  8994  1275  3EFF               	addlw	-1
  8995  1276  1D03               	skipz
  8996  1277  2A71               	goto	u5325
  8997                           
  8998                           	line	115
  8999  1278  3001               	movlw	(01h)
  9000  1279  00CB               	movwf	(??___ftadd+0)+0
  9001  127A  084B               	movf	(??___ftadd+0)+0,w
  9002  127B  07D1               	addwf	(___ftadd@exp1),f
  9003  127C  2A7D               	goto	l7174
  9004                           	line	116
  9005                           	
  9006  127D                     l2942:	
  9007                           	line	113
  9008                           	
  9009  127D                     l7174:	
  9010  127D  0851               	movf	(___ftadd@exp1),w
  9011  127E  0650               	xorwf	(___ftadd@exp2),w
  9012  127F  1D03               	skipz
  9013  1280  2A82               	goto	u5331
  9014  1281  2A83               	goto	u5330
  9015  1282                     u5331:
  9016  1282  2A70               	goto	l7172
  9017  1283                     u5330:
  9018  1283  2ABC               	goto	l2945
  9019                           	
  9020  1284                     l2944:	
  9021                           	line	117
  9022  1284  2ABC               	goto	l2945
  9023                           	
  9024  1285                     l2937:	
  9025                           	
  9026  1285                     l7176:	
  9027  1285  0851               	movf	(___ftadd@exp1),w
  9028  1286  0250               	subwf	(___ftadd@exp2),w
  9029  1287  1803               	skipnc
  9030  1288  2A8A               	goto	u5341
  9031  1289  2A8B               	goto	u5340
  9032  128A                     u5341:
  9033  128A  2ABC               	goto	l2945
  9034  128B                     u5340:
  9035  128B  2A8C               	goto	l7178
  9036                           	line	120
  9037                           	
  9038  128C                     l2947:	
  9039                           	line	121
  9040                           	
  9041  128C                     l7178:	
  9042  128C  3001               	movlw	01h
  9043  128D                     u5355:
  9044  128D  1003               	clrc
  9045  128E  0DC5               	rlf	(___ftadd@f1),f
  9046  128F  0DC6               	rlf	(___ftadd@f1+1),f
  9047  1290  0DC7               	rlf	(___ftadd@f1+2),f
  9048  1291  3EFF               	addlw	-1
  9049  1292  1D03               	skipz
  9050  1293  2A8D               	goto	u5355
  9051                           	line	122
  9052  1294  3001               	movlw	low(01h)
  9053  1295  02D1               	subwf	(___ftadd@exp1),f
  9054                           	line	123
  9055                           	
  9056  1296                     l7180:	
  9057  1296  0850               	movf	(___ftadd@exp2),w
  9058  1297  0651               	xorwf	(___ftadd@exp1),w
  9059  1298  1903               	skipnz
  9060  1299  2A9B               	goto	u5361
  9061  129A  2A9C               	goto	u5360
  9062  129B                     u5361:
  9063  129B  2AB4               	goto	l7186
  9064  129C                     u5360:
  9065                           	
  9066  129C                     l7182:	
  9067  129C  3001               	movlw	low(01h)
  9068  129D  02CF               	subwf	(___ftadd@sign),f
  9069  129E  084F               	movf	((___ftadd@sign)),w
  9070  129F  3907               	andlw	07h
  9071  12A0  1D03               	btfss	status,2
  9072  12A1  2AA3               	goto	u5371
  9073  12A2  2AA4               	goto	u5370
  9074  12A3                     u5371:
  9075  12A3  2A8C               	goto	l7178
  9076  12A4                     u5370:
  9077  12A4  2AB4               	goto	l7186
  9078                           	
  9079  12A5                     l2949:	
  9080  12A5  2AB4               	goto	l7186
  9081                           	
  9082  12A6                     l2950:	
  9083                           	line	124
  9084  12A6  2AB4               	goto	l7186
  9085                           	
  9086  12A7                     l2952:	
  9087                           	line	125
  9088                           	
  9089  12A7                     l7184:	
  9090  12A7  3001               	movlw	01h
  9091  12A8                     u5385:
  9092  12A8  1003               	clrc
  9093  12A9  0CCA               	rrf	(___ftadd@f2+2),f
  9094  12AA  0CC9               	rrf	(___ftadd@f2+1),f
  9095  12AB  0CC8               	rrf	(___ftadd@f2),f
  9096  12AC  3EFF               	addlw	-1
  9097  12AD  1D03               	skipz
  9098  12AE  2AA8               	goto	u5385
  9099                           
  9100                           	line	126
  9101  12AF  3001               	movlw	(01h)
  9102  12B0  00CB               	movwf	(??___ftadd+0)+0
  9103  12B1  084B               	movf	(??___ftadd+0)+0,w
  9104  12B2  07D0               	addwf	(___ftadd@exp2),f
  9105  12B3  2AB4               	goto	l7186
  9106                           	line	127
  9107                           	
  9108  12B4                     l2951:	
  9109                           	line	124
  9110                           	
  9111  12B4                     l7186:	
  9112  12B4  0851               	movf	(___ftadd@exp1),w
  9113  12B5  0650               	xorwf	(___ftadd@exp2),w
  9114  12B6  1D03               	skipz
  9115  12B7  2AB9               	goto	u5391
  9116  12B8  2ABA               	goto	u5390
  9117  12B9                     u5391:
  9118  12B9  2AA7               	goto	l7184
  9119  12BA                     u5390:
  9120  12BA  2ABC               	goto	l2945
  9121                           	
  9122  12BB                     l2953:	
  9123  12BB  2ABC               	goto	l2945
  9124                           	line	128
  9125                           	
  9126  12BC                     l2946:	
  9127                           	line	129
  9128                           	
  9129  12BC                     l2945:	
  9130  12BC  1FCF               	btfss	(___ftadd@sign),(7)&7
  9131  12BD  2ABF               	goto	u5401
  9132  12BE  2AC0               	goto	u5400
  9133  12BF                     u5401:
  9134  12BF  2AD1               	goto	l7190
  9135  12C0                     u5400:
  9136                           	line	131
  9137                           	
  9138  12C0                     l7188:	
  9139  12C0  30FF               	movlw	0FFh
  9140  12C1  06C5               	xorwf	(___ftadd@f1),f
  9141  12C2  30FF               	movlw	0FFh
  9142  12C3  06C6               	xorwf	(___ftadd@f1+1),f
  9143  12C4  30FF               	movlw	0FFh
  9144  12C5  06C7               	xorwf	(___ftadd@f1+2),f
  9145                           	line	132
  9146  12C6  3001               	movlw	01h
  9147  12C7  07C5               	addwf	(___ftadd@f1),f
  9148  12C8  3000               	movlw	0
  9149  12C9  1803               	skipnc
  9150  12CA  3001               movlw 1
  9151  12CB  07C6               	addwf	(___ftadd@f1+1),f
  9152  12CC  3000               	movlw	0
  9153  12CD  1803               	skipnc
  9154  12CE  3001               movlw 1
  9155  12CF  07C7               	addwf	(___ftadd@f1+2),f
  9156  12D0  2AD1               	goto	l7190
  9157                           	line	133
  9158                           	
  9159  12D1                     l2954:	
  9160                           	line	134
  9161                           	
  9162  12D1                     l7190:	
  9163  12D1  1F4F               	btfss	(___ftadd@sign),(6)&7
  9164  12D2  2AD4               	goto	u5411
  9165  12D3  2AD5               	goto	u5410
  9166  12D4                     u5411:
  9167  12D4  2AE6               	goto	l7194
  9168  12D5                     u5410:
  9169                           	line	136
  9170                           	
  9171  12D5                     l7192:	
  9172  12D5  30FF               	movlw	0FFh
  9173  12D6  06C8               	xorwf	(___ftadd@f2),f
  9174  12D7  30FF               	movlw	0FFh
  9175  12D8  06C9               	xorwf	(___ftadd@f2+1),f
  9176  12D9  30FF               	movlw	0FFh
  9177  12DA  06CA               	xorwf	(___ftadd@f2+2),f
  9178                           	line	137
  9179  12DB  3001               	movlw	01h
  9180  12DC  07C8               	addwf	(___ftadd@f2),f
  9181  12DD  3000               	movlw	0
  9182  12DE  1803               	skipnc
  9183  12DF  3001               movlw 1
  9184  12E0  07C9               	addwf	(___ftadd@f2+1),f
  9185  12E1  3000               	movlw	0
  9186  12E2  1803               	skipnc
  9187  12E3  3001               movlw 1
  9188  12E4  07CA               	addwf	(___ftadd@f2+2),f
  9189  12E5  2AE6               	goto	l7194
  9190                           	line	138
  9191                           	
  9192  12E6                     l2955:	
  9193                           	line	139
  9194                           	
  9195  12E6                     l7194:	
  9196  12E6  01CF               	clrf	(___ftadd@sign)
  9197                           	line	140
  9198  12E7  0845               	movf	(___ftadd@f1),w
  9199  12E8  07C8               	addwf	(___ftadd@f2),f
  9200  12E9  0846               	movf	(___ftadd@f1+1),w
  9201  12EA  1103               	clrz
  9202  12EB  1803               	skipnc
  9203  12EC  0A46               	incf	(___ftadd@f1+1),w
  9204  12ED  1903               	skipnz
  9205  12EE  2AF0               	goto	u5421
  9206  12EF  07C9               	addwf	(___ftadd@f2+1),f
  9207  12F0                     u5421:
  9208  12F0  0847               	movf	(___ftadd@f1+2),w
  9209  12F1  1103               	clrz
  9210  12F2  1803               	skipnc
  9211  12F3  0A47               	incf	(___ftadd@f1+2),w
  9212  12F4  1903               	skipnz
  9213  12F5  2AF7               	goto	u5422
  9214  12F6  07CA               	addwf	(___ftadd@f2+2),f
  9215  12F7                     u5422:
  9216                           
  9217                           	line	141
  9218                           	
  9219  12F7                     l7196:	
  9220  12F7  1FCA               	btfss	(___ftadd@f2+2),(23)&7
  9221  12F8  2AFA               	goto	u5431
  9222  12F9  2AFB               	goto	u5430
  9223  12FA                     u5431:
  9224  12FA  2B0F               	goto	l7202
  9225  12FB                     u5430:
  9226                           	line	142
  9227                           	
  9228  12FB                     l7198:	
  9229  12FB  30FF               	movlw	0FFh
  9230  12FC  06C8               	xorwf	(___ftadd@f2),f
  9231  12FD  30FF               	movlw	0FFh
  9232  12FE  06C9               	xorwf	(___ftadd@f2+1),f
  9233  12FF  30FF               	movlw	0FFh
  9234  1300  06CA               	xorwf	(___ftadd@f2+2),f
  9235                           	line	143
  9236  1301  3001               	movlw	01h
  9237  1302  07C8               	addwf	(___ftadd@f2),f
  9238  1303  3000               	movlw	0
  9239  1304  1803               	skipnc
  9240  1305  3001               movlw 1
  9241  1306  07C9               	addwf	(___ftadd@f2+1),f
  9242  1307  3000               	movlw	0
  9243  1308  1803               	skipnc
  9244  1309  3001               movlw 1
  9245  130A  07CA               	addwf	(___ftadd@f2+2),f
  9246                           	line	144
  9247                           	
  9248  130B                     l7200:	
  9249  130B  01CF               	clrf	(___ftadd@sign)
  9250  130C  1403               	bsf	status,0
  9251  130D  0DCF               	rlf	(___ftadd@sign),f
  9252  130E  2B0F               	goto	l7202
  9253                           	line	145
  9254                           	
  9255  130F                     l2956:	
  9256                           	line	146
  9257                           	
  9258  130F                     l7202:	
  9259  130F  0848               	movf	(___ftadd@f2),w
  9260  1310  00F0               	movwf	(?___ftpack)
  9261  1311  0849               	movf	(___ftadd@f2+1),w
  9262  1312  00F1               	movwf	(?___ftpack+1)
  9263  1313  084A               	movf	(___ftadd@f2+2),w
  9264  1314  00F2               	movwf	(?___ftpack+2)
  9265  1315  0851               	movf	(___ftadd@exp1),w
  9266  1316  00CB               	movwf	(??___ftadd+0)+0
  9267  1317  084B               	movf	(??___ftadd+0)+0,w
  9268  1318  00F3               	movwf	0+(?___ftpack)+03h
  9269  1319  084F               	movf	(___ftadd@sign),w
  9270  131A  00CC               	movwf	(??___ftadd+1)+0
  9271  131B  084C               	movf	(??___ftadd+1)+0,w
  9272  131C  00F4               	movwf	0+(?___ftpack)+04h
  9273  131D  160A  158A  25A7   	fcall	___ftpack
              160A  118A         
  9274  1322  0870               	movf	(0+(?___ftpack)),w
  9275  1323  1283               	bcf	status, 5	;RP0=0, select bank0
  9276  1324  1303               	bcf	status, 6	;RP1=0, select bank0
  9277  1325  00C5               	movwf	(?___ftadd)
  9278  1326  0871               	movf	(1+(?___ftpack)),w
  9279  1327  00C6               	movwf	(?___ftadd+1)
  9280  1328  0872               	movf	(2+(?___ftpack)),w
  9281  1329  00C7               	movwf	(?___ftadd+2)
  9282  132A  2B2B               	goto	l2931
  9283                           	
  9284  132B                     l7204:	
  9285                           	line	148
  9286                           	
  9287  132B                     l2931:	
  9288  132B  0008               	return
  9289                           	opt stack 0
  9290                           GLOBAL	__end_of___ftadd
  9291  132C                     	__end_of___ftadd:
  9292 ;; =============== function ___ftadd ends ============
  9293                           
  9294                           	signat	___ftadd,8315
  9295                           	global	_ToggleEpinOfLCD
  9296                           psect	text706,local,class=CODE,delta=2
  9297                           global __ptext706
  9298  1978                     __ptext706:
  9299                           
  9300 ;; *************** function _ToggleEpinOfLCD *****************
  9301 ;; Defined at:
  9302 ;;		line 5 in file "../LCD.c"
  9303 ;; Parameters:    Size  Location     Type
  9304 ;;		None
  9305 ;; Auto vars:     Size  Location     Type
  9306 ;;		None
  9307 ;; Return value:  Size  Location     Type
  9308 ;;		None               void
  9309 ;; Registers used:
  9310 ;;		wreg
  9311 ;; Tracked objects:
  9312 ;;		On entry : 0/0
  9313 ;;		On exit  : 0/0
  9314 ;;		Unchanged: 0/0
  9315 ;; Data sizes:     COMMON   BANK0   BANK1   BANK3   BANK2
  9316 ;;      Params:         0       0       0       0       0
  9317 ;;      Locals:         0       0       0       0       0
  9318 ;;      Temps:          2       0       0       0       0
  9319 ;;      Totals:         2       0       0       0       0
  9320 ;;Total ram usage:        2 bytes
  9321 ;; Hardware stack levels used:    1
  9322 ;; This function calls:
  9323 ;;		Nothing
  9324 ;; This function is called by:
  9325 ;;		_WriteCommandToLCD
  9326 ;;		_WriteDataToLCD
  9327 ;;		_InitLCD
  9328 ;; This function uses a non-reentrant model
  9329 ;;
  9330                           psect	text706
  9331                           	file	"../LCD.c"
  9332                           	line	5
  9333                           	global	__size_of_ToggleEpinOfLCD
  9334  0019                     	__size_of_ToggleEpinOfLCD	equ	__end_of_ToggleEpinOfLCD-_ToggleEpinOfLCD
  9335                           	
  9336  1978                     _ToggleEpinOfLCD:	
  9337                           	opt	stack 4
  9338                           ; Regs used in _ToggleEpinOfLCD: [wreg]
  9339                           	line	6
  9340                           	
  9341  1978                     l7130:	
  9342                           ;LCD.c: 6: RD0 = 1;
  9343  1978  1283               	bcf	status, 5	;RP0=0, select bank0
  9344  1979  1303               	bcf	status, 6	;RP1=0, select bank0
  9345  197A  1408               	bsf	(64/8),(64)&7
  9346                           	line	7
  9347                           	
  9348  197B                     l7132:	
  9349                           ;LCD.c: 7: _delay((unsigned long)((500)*(20000000/4000000.0)));
  9350                           	opt asmopt_off
  9351  197B  3004               movlw	4
  9352  197C  00F1               movwf	((??_ToggleEpinOfLCD+0)+0+1),f
  9353  197D  303D               	movlw	61
  9354  197E  00F0               movwf	((??_ToggleEpinOfLCD+0)+0),f
  9355  197F                     u6417:
  9356  197F  0BF0               	decfsz	((??_ToggleEpinOfLCD+0)+0),f
  9357  1980  297F               	goto	u6417
  9358  1981  0BF1               	decfsz	((??_ToggleEpinOfLCD+0)+0+1),f
  9359  1982  297F               	goto	u6417
  9360  1983  2984               	nop2
  9361                           opt asmopt_on
  9362                           
  9363                           	line	8
  9364                           	
  9365  1984                     l7134:	
  9366                           ;LCD.c: 8: RD0 = 0;
  9367  1984  1283               	bcf	status, 5	;RP0=0, select bank0
  9368  1985  1303               	bcf	status, 6	;RP1=0, select bank0
  9369  1986  1008               	bcf	(64/8),(64)&7
  9370                           	line	9
  9371                           ;LCD.c: 9: _delay((unsigned long)((500)*(20000000/4000000.0)));
  9372                           	opt asmopt_off
  9373  1987  3004               movlw	4
  9374  1988  00F1               movwf	((??_ToggleEpinOfLCD+0)+0+1),f
  9375  1989  303D               	movlw	61
  9376  198A  00F0               movwf	((??_ToggleEpinOfLCD+0)+0),f
  9377  198B                     u6427:
  9378  198B  0BF0               	decfsz	((??_ToggleEpinOfLCD+0)+0),f
  9379  198C  298B               	goto	u6427
  9380  198D  0BF1               	decfsz	((??_ToggleEpinOfLCD+0)+0+1),f
  9381  198E  298B               	goto	u6427
  9382  198F  2990               	nop2
  9383                           opt asmopt_on
  9384                           
  9385                           	line	10
  9386                           	
  9387  1990                     l1359:	
  9388  1990  0008               	return
  9389                           	opt stack 0
  9390                           GLOBAL	__end_of_ToggleEpinOfLCD
  9391  1991                     	__end_of_ToggleEpinOfLCD:
  9392 ;; =============== function _ToggleEpinOfLCD ends ============
  9393                           
  9394                           	signat	_ToggleEpinOfLCD,88
  9395                           	global	_READ_SWITCHES
  9396                           psect	text707,local,class=CODE,delta=2
  9397                           global __ptext707
  9398  162B                     __ptext707:
  9399                           
  9400 ;; *************** function _READ_SWITCHES *****************
  9401 ;; Defined at:
  9402 ;;		line 19 in file "../Keypad.c"
  9403 ;; Parameters:    Size  Location     Type
  9404 ;;		None
  9405 ;; Auto vars:     Size  Location     Type
  9406 ;;		None
  9407 ;; Return value:  Size  Location     Type
  9408 ;;                  1    wreg      unsigned char 
  9409 ;; Registers used:
  9410 ;;		wreg
  9411 ;; Tracked objects:
  9412 ;;		On entry : 0/0
  9413 ;;		On exit  : 0/0
  9414 ;;		Unchanged: 0/0
  9415 ;; Data sizes:     COMMON   BANK0   BANK1   BANK3   BANK2
  9416 ;;      Params:         0       0       0       0       0
  9417 ;;      Locals:         0       0       0       0       0
  9418 ;;      Temps:          3       0       0       0       0
  9419 ;;      Totals:         3       0       0       0       0
  9420 ;;Total ram usage:        3 bytes
  9421 ;; Hardware stack levels used:    1
  9422 ;; This function calls:
  9423 ;;		Nothing
  9424 ;; This function is called by:
  9425 ;;		_GetKey
  9426 ;; This function uses a non-reentrant model
  9427 ;;
  9428                           psect	text707
  9429                           	file	"../Keypad.c"
  9430                           	line	19
  9431                           	global	__size_of_READ_SWITCHES
  9432  01D5                     	__size_of_READ_SWITCHES	equ	__end_of_READ_SWITCHES-_READ_SWITCHES
  9433                           	
  9434  162B                     _READ_SWITCHES:	
  9435                           	opt	stack 6
  9436                           ; Regs used in _READ_SWITCHES: [wreg]
  9437                           	line	20
  9438                           	
  9439  162B                     l7028:	
  9440                           ;Keypad.c: 20: RB0 = 0; RB1 = 1; RB2 = 1; RB3 = 1;
  9441  162B  1283               	bcf	status, 5	;RP0=0, select bank0
  9442  162C  1303               	bcf	status, 6	;RP1=0, select bank0
  9443  162D  1006               	bcf	(48/8),(48)&7
  9444  162E  1486               	bsf	(49/8),(49)&7
  9445  162F  1506               	bsf	(50/8),(50)&7
  9446  1630  1586               	bsf	(51/8),(51)&7
  9447                           	line	22
  9448                           ;Keypad.c: 22: if (RB4 == 0) { _delay((unsigned long)((250)*(20000000/4000.0))); while (
                                 RB4==0); return '7'; }
  9449  1631  1A06               	btfsc	(52/8),(52)&7
  9450  1632  2E34               	goto	u4881
  9451  1633  2E35               	goto	u4880
  9452  1634                     u4881:
  9453  1634  2E4D               	goto	l646
  9454  1635                     u4880:
  9455                           	
  9456  1635                     l7030:	
  9457                           	opt asmopt_off
  9458  1635  3007               movlw  7
  9459  1636  00F2               movwf	((??_READ_SWITCHES+0)+0+2),f
  9460  1637  3058               movlw	88
  9461  1638  00F1               movwf	((??_READ_SWITCHES+0)+0+1),f
  9462  1639  305E               	movlw	94
  9463  163A  00F0               movwf	((??_READ_SWITCHES+0)+0),f
  9464  163B                     u6437:
  9465  163B  0BF0               	decfsz	((??_READ_SWITCHES+0)+0),f
  9466  163C  2E3B               	goto	u6437
  9467  163D  0BF1               	decfsz	((??_READ_SWITCHES+0)+0+1),f
  9468  163E  2E3B               	goto	u6437
  9469  163F  0BF2               	decfsz	((??_READ_SWITCHES+0)+0+2),f
  9470  1640  2E3B               	goto	u6437
  9471  1641  2E42               	nop2
  9472                           opt asmopt_on
  9473                           
  9474  1642  2E43               	goto	l647
  9475                           	
  9476  1643                     l648:	
  9477                           	
  9478  1643                     l647:	
  9479  1643  1283               	bcf	status, 5	;RP0=0, select bank0
  9480  1644  1303               	bcf	status, 6	;RP1=0, select bank0
  9481  1645  1E06               	btfss	(52/8),(52)&7
  9482  1646  2E48               	goto	u4891
  9483  1647  2E49               	goto	u4890
  9484  1648                     u4891:
  9485  1648  2E43               	goto	l647
  9486  1649                     u4890:
  9487  1649  2E4A               	goto	l7032
  9488                           	
  9489  164A                     l649:	
  9490                           	
  9491  164A                     l7032:	
  9492  164A  3037               	movlw	(037h)
  9493  164B  2FFF               	goto	l650
  9494                           	
  9495  164C                     l7034:	
  9496  164C  2FFF               	goto	l650
  9497                           	
  9498  164D                     l646:	
  9499                           	line	23
  9500                           ;Keypad.c: 23: if (RB5 == 0) { _delay((unsigned long)((250)*(20000000/4000.0))); while (
                                 RB5==0); return '8'; }
  9501  164D  1A86               	btfsc	(53/8),(53)&7
  9502  164E  2E50               	goto	u4901
  9503  164F  2E51               	goto	u4900
  9504  1650                     u4901:
  9505  1650  2E69               	goto	l651
  9506  1651                     u4900:
  9507                           	
  9508  1651                     l7036:	
  9509                           	opt asmopt_off
  9510  1651  3007               movlw  7
  9511  1652  00F2               movwf	((??_READ_SWITCHES+0)+0+2),f
  9512  1653  3058               movlw	88
  9513  1654  00F1               movwf	((??_READ_SWITCHES+0)+0+1),f
  9514  1655  305E               	movlw	94
  9515  1656  00F0               movwf	((??_READ_SWITCHES+0)+0),f
  9516  1657                     u6447:
  9517  1657  0BF0               	decfsz	((??_READ_SWITCHES+0)+0),f
  9518  1658  2E57               	goto	u6447
  9519  1659  0BF1               	decfsz	((??_READ_SWITCHES+0)+0+1),f
  9520  165A  2E57               	goto	u6447
  9521  165B  0BF2               	decfsz	((??_READ_SWITCHES+0)+0+2),f
  9522  165C  2E57               	goto	u6447
  9523  165D  2E5E               	nop2
  9524                           opt asmopt_on
  9525                           
  9526  165E  2E5F               	goto	l652
  9527                           	
  9528  165F                     l653:	
  9529                           	
  9530  165F                     l652:	
  9531  165F  1283               	bcf	status, 5	;RP0=0, select bank0
  9532  1660  1303               	bcf	status, 6	;RP1=0, select bank0
  9533  1661  1E86               	btfss	(53/8),(53)&7
  9534  1662  2E64               	goto	u4911
  9535  1663  2E65               	goto	u4910
  9536  1664                     u4911:
  9537  1664  2E5F               	goto	l652
  9538  1665                     u4910:
  9539  1665  2E66               	goto	l7038
  9540                           	
  9541  1666                     l654:	
  9542                           	
  9543  1666                     l7038:	
  9544  1666  3038               	movlw	(038h)
  9545  1667  2FFF               	goto	l650
  9546                           	
  9547  1668                     l7040:	
  9548  1668  2FFF               	goto	l650
  9549                           	
  9550  1669                     l651:	
  9551                           	line	24
  9552                           ;Keypad.c: 24: if (RB6 == 0) { _delay((unsigned long)((250)*(20000000/4000.0))); while (
                                 RB6==0); return '9'; }
  9553  1669  1B06               	btfsc	(54/8),(54)&7
  9554  166A  2E6C               	goto	u4921
  9555  166B  2E6D               	goto	u4920
  9556  166C                     u4921:
  9557  166C  2E85               	goto	l655
  9558  166D                     u4920:
  9559                           	
  9560  166D                     l7042:	
  9561                           	opt asmopt_off
  9562  166D  3007               movlw  7
  9563  166E  00F2               movwf	((??_READ_SWITCHES+0)+0+2),f
  9564  166F  3058               movlw	88
  9565  1670  00F1               movwf	((??_READ_SWITCHES+0)+0+1),f
  9566  1671  305E               	movlw	94
  9567  1672  00F0               movwf	((??_READ_SWITCHES+0)+0),f
  9568  1673                     u6457:
  9569  1673  0BF0               	decfsz	((??_READ_SWITCHES+0)+0),f
  9570  1674  2E73               	goto	u6457
  9571  1675  0BF1               	decfsz	((??_READ_SWITCHES+0)+0+1),f
  9572  1676  2E73               	goto	u6457
  9573  1677  0BF2               	decfsz	((??_READ_SWITCHES+0)+0+2),f
  9574  1678  2E73               	goto	u6457
  9575  1679  2E7A               	nop2
  9576                           opt asmopt_on
  9577                           
  9578  167A  2E7B               	goto	l656
  9579                           	
  9580  167B                     l657:	
  9581                           	
  9582  167B                     l656:	
  9583  167B  1283               	bcf	status, 5	;RP0=0, select bank0
  9584  167C  1303               	bcf	status, 6	;RP1=0, select bank0
  9585  167D  1F06               	btfss	(54/8),(54)&7
  9586  167E  2E80               	goto	u4931
  9587  167F  2E81               	goto	u4930
  9588  1680                     u4931:
  9589  1680  2E7B               	goto	l656
  9590  1681                     u4930:
  9591  1681  2E82               	goto	l7044
  9592                           	
  9593  1682                     l658:	
  9594                           	
  9595  1682                     l7044:	
  9596  1682  3039               	movlw	(039h)
  9597  1683  2FFF               	goto	l650
  9598                           	
  9599  1684                     l7046:	
  9600  1684  2FFF               	goto	l650
  9601                           	
  9602  1685                     l655:	
  9603                           	line	25
  9604                           ;Keypad.c: 25: if (RB7 == 0) { _delay((unsigned long)((250)*(20000000/4000.0))); while (
                                 RB7==0); return '/'; }
  9605  1685  1B86               	btfsc	(55/8),(55)&7
  9606  1686  2E88               	goto	u4941
  9607  1687  2E89               	goto	u4940
  9608  1688                     u4941:
  9609  1688  2EA1               	goto	l659
  9610  1689                     u4940:
  9611                           	
  9612  1689                     l7048:	
  9613                           	opt asmopt_off
  9614  1689  3007               movlw  7
  9615  168A  00F2               movwf	((??_READ_SWITCHES+0)+0+2),f
  9616  168B  3058               movlw	88
  9617  168C  00F1               movwf	((??_READ_SWITCHES+0)+0+1),f
  9618  168D  305E               	movlw	94
  9619  168E  00F0               movwf	((??_READ_SWITCHES+0)+0),f
  9620  168F                     u6467:
  9621  168F  0BF0               	decfsz	((??_READ_SWITCHES+0)+0),f
  9622  1690  2E8F               	goto	u6467
  9623  1691  0BF1               	decfsz	((??_READ_SWITCHES+0)+0+1),f
  9624  1692  2E8F               	goto	u6467
  9625  1693  0BF2               	decfsz	((??_READ_SWITCHES+0)+0+2),f
  9626  1694  2E8F               	goto	u6467
  9627  1695  2E96               	nop2
  9628                           opt asmopt_on
  9629                           
  9630  1696  2E97               	goto	l660
  9631                           	
  9632  1697                     l661:	
  9633                           	
  9634  1697                     l660:	
  9635  1697  1283               	bcf	status, 5	;RP0=0, select bank0
  9636  1698  1303               	bcf	status, 6	;RP1=0, select bank0
  9637  1699  1F86               	btfss	(55/8),(55)&7
  9638  169A  2E9C               	goto	u4951
  9639  169B  2E9D               	goto	u4950
  9640  169C                     u4951:
  9641  169C  2E97               	goto	l660
  9642  169D                     u4950:
  9643  169D  2E9E               	goto	l7050
  9644                           	
  9645  169E                     l662:	
  9646                           	
  9647  169E                     l7050:	
  9648  169E  302F               	movlw	(02Fh)
  9649  169F  2FFF               	goto	l650
  9650                           	
  9651  16A0                     l7052:	
  9652  16A0  2FFF               	goto	l650
  9653                           	
  9654  16A1                     l659:	
  9655                           	line	27
  9656                           ;Keypad.c: 27: RB0 = 1; RB1 = 0; RB2 = 1; RB3 = 1;
  9657  16A1  1406               	bsf	(48/8),(48)&7
  9658  16A2  1086               	bcf	(49/8),(49)&7
  9659  16A3  1506               	bsf	(50/8),(50)&7
  9660  16A4  1586               	bsf	(51/8),(51)&7
  9661                           	line	29
  9662                           ;Keypad.c: 29: if (RB4 == 0) { _delay((unsigned long)((250)*(20000000/4000.0))); while (
                                 RB4==0); return '4'; }
  9663  16A5  1A06               	btfsc	(52/8),(52)&7
  9664  16A6  2EA8               	goto	u4961
  9665  16A7  2EA9               	goto	u4960
  9666  16A8                     u4961:
  9667  16A8  2EC1               	goto	l663
  9668  16A9                     u4960:
  9669                           	
  9670  16A9                     l7054:	
  9671                           	opt asmopt_off
  9672  16A9  3007               movlw  7
  9673  16AA  00F2               movwf	((??_READ_SWITCHES+0)+0+2),f
  9674  16AB  3058               movlw	88
  9675  16AC  00F1               movwf	((??_READ_SWITCHES+0)+0+1),f
  9676  16AD  305E               	movlw	94
  9677  16AE  00F0               movwf	((??_READ_SWITCHES+0)+0),f
  9678  16AF                     u6477:
  9679  16AF  0BF0               	decfsz	((??_READ_SWITCHES+0)+0),f
  9680  16B0  2EAF               	goto	u6477
  9681  16B1  0BF1               	decfsz	((??_READ_SWITCHES+0)+0+1),f
  9682  16B2  2EAF               	goto	u6477
  9683  16B3  0BF2               	decfsz	((??_READ_SWITCHES+0)+0+2),f
  9684  16B4  2EAF               	goto	u6477
  9685  16B5  2EB6               	nop2
  9686                           opt asmopt_on
  9687                           
  9688  16B6  2EB7               	goto	l664
  9689                           	
  9690  16B7                     l665:	
  9691                           	
  9692  16B7                     l664:	
  9693  16B7  1283               	bcf	status, 5	;RP0=0, select bank0
  9694  16B8  1303               	bcf	status, 6	;RP1=0, select bank0
  9695  16B9  1E06               	btfss	(52/8),(52)&7
  9696  16BA  2EBC               	goto	u4971
  9697  16BB  2EBD               	goto	u4970
  9698  16BC                     u4971:
  9699  16BC  2EB7               	goto	l664
  9700  16BD                     u4970:
  9701  16BD  2EBE               	goto	l7056
  9702                           	
  9703  16BE                     l666:	
  9704                           	
  9705  16BE                     l7056:	
  9706  16BE  3034               	movlw	(034h)
  9707  16BF  2FFF               	goto	l650
  9708                           	
  9709  16C0                     l7058:	
  9710  16C0  2FFF               	goto	l650
  9711                           	
  9712  16C1                     l663:	
  9713                           	line	30
  9714                           ;Keypad.c: 30: if (RB5 == 0) { _delay((unsigned long)((250)*(20000000/4000.0))); while (
                                 RB5==0); return '5'; }
  9715  16C1  1A86               	btfsc	(53/8),(53)&7
  9716  16C2  2EC4               	goto	u4981
  9717  16C3  2EC5               	goto	u4980
  9718  16C4                     u4981:
  9719  16C4  2EDD               	goto	l667
  9720  16C5                     u4980:
  9721                           	
  9722  16C5                     l7060:	
  9723                           	opt asmopt_off
  9724  16C5  3007               movlw  7
  9725  16C6  00F2               movwf	((??_READ_SWITCHES+0)+0+2),f
  9726  16C7  3058               movlw	88
  9727  16C8  00F1               movwf	((??_READ_SWITCHES+0)+0+1),f
  9728  16C9  305E               	movlw	94
  9729  16CA  00F0               movwf	((??_READ_SWITCHES+0)+0),f
  9730  16CB                     u6487:
  9731  16CB  0BF0               	decfsz	((??_READ_SWITCHES+0)+0),f
  9732  16CC  2ECB               	goto	u6487
  9733  16CD  0BF1               	decfsz	((??_READ_SWITCHES+0)+0+1),f
  9734  16CE  2ECB               	goto	u6487
  9735  16CF  0BF2               	decfsz	((??_READ_SWITCHES+0)+0+2),f
  9736  16D0  2ECB               	goto	u6487
  9737  16D1  2ED2               	nop2
  9738                           opt asmopt_on
  9739                           
  9740  16D2  2ED3               	goto	l668
  9741                           	
  9742  16D3                     l669:	
  9743                           	
  9744  16D3                     l668:	
  9745  16D3  1283               	bcf	status, 5	;RP0=0, select bank0
  9746  16D4  1303               	bcf	status, 6	;RP1=0, select bank0
  9747  16D5  1E86               	btfss	(53/8),(53)&7
  9748  16D6  2ED8               	goto	u4991
  9749  16D7  2ED9               	goto	u4990
  9750  16D8                     u4991:
  9751  16D8  2ED3               	goto	l668
  9752  16D9                     u4990:
  9753  16D9  2EDA               	goto	l7062
  9754                           	
  9755  16DA                     l670:	
  9756                           	
  9757  16DA                     l7062:	
  9758  16DA  3035               	movlw	(035h)
  9759  16DB  2FFF               	goto	l650
  9760                           	
  9761  16DC                     l7064:	
  9762  16DC  2FFF               	goto	l650
  9763                           	
  9764  16DD                     l667:	
  9765                           	line	31
  9766                           ;Keypad.c: 31: if (RB6 == 0) { _delay((unsigned long)((250)*(20000000/4000.0))); while (
                                 RB6==0); return '6'; }
  9767  16DD  1B06               	btfsc	(54/8),(54)&7
  9768  16DE  2EE0               	goto	u5001
  9769  16DF  2EE1               	goto	u5000
  9770  16E0                     u5001:
  9771  16E0  2EF9               	goto	l671
  9772  16E1                     u5000:
  9773                           	
  9774  16E1                     l7066:	
  9775                           	opt asmopt_off
  9776  16E1  3007               movlw  7
  9777  16E2  00F2               movwf	((??_READ_SWITCHES+0)+0+2),f
  9778  16E3  3058               movlw	88
  9779  16E4  00F1               movwf	((??_READ_SWITCHES+0)+0+1),f
  9780  16E5  305E               	movlw	94
  9781  16E6  00F0               movwf	((??_READ_SWITCHES+0)+0),f
  9782  16E7                     u6497:
  9783  16E7  0BF0               	decfsz	((??_READ_SWITCHES+0)+0),f
  9784  16E8  2EE7               	goto	u6497
  9785  16E9  0BF1               	decfsz	((??_READ_SWITCHES+0)+0+1),f
  9786  16EA  2EE7               	goto	u6497
  9787  16EB  0BF2               	decfsz	((??_READ_SWITCHES+0)+0+2),f
  9788  16EC  2EE7               	goto	u6497
  9789  16ED  2EEE               	nop2
  9790                           opt asmopt_on
  9791                           
  9792  16EE  2EEF               	goto	l672
  9793                           	
  9794  16EF                     l673:	
  9795                           	
  9796  16EF                     l672:	
  9797  16EF  1283               	bcf	status, 5	;RP0=0, select bank0
  9798  16F0  1303               	bcf	status, 6	;RP1=0, select bank0
  9799  16F1  1F06               	btfss	(54/8),(54)&7
  9800  16F2  2EF4               	goto	u5011
  9801  16F3  2EF5               	goto	u5010
  9802  16F4                     u5011:
  9803  16F4  2EEF               	goto	l672
  9804  16F5                     u5010:
  9805  16F5  2EF6               	goto	l7068
  9806                           	
  9807  16F6                     l674:	
  9808                           	
  9809  16F6                     l7068:	
  9810  16F6  3036               	movlw	(036h)
  9811  16F7  2FFF               	goto	l650
  9812                           	
  9813  16F8                     l7070:	
  9814  16F8  2FFF               	goto	l650
  9815                           	
  9816  16F9                     l671:	
  9817                           	line	32
  9818                           ;Keypad.c: 32: if (RB7 == 0) { _delay((unsigned long)((250)*(20000000/4000.0))); while (
                                 RB7==0); return 'x'; }
  9819  16F9  1B86               	btfsc	(55/8),(55)&7
  9820  16FA  2EFC               	goto	u5021
  9821  16FB  2EFD               	goto	u5020
  9822  16FC                     u5021:
  9823  16FC  2F15               	goto	l675
  9824  16FD                     u5020:
  9825                           	
  9826  16FD                     l7072:	
  9827                           	opt asmopt_off
  9828  16FD  3007               movlw  7
  9829  16FE  00F2               movwf	((??_READ_SWITCHES+0)+0+2),f
  9830  16FF  3058               movlw	88
  9831  1700  00F1               movwf	((??_READ_SWITCHES+0)+0+1),f
  9832  1701  305E               	movlw	94
  9833  1702  00F0               movwf	((??_READ_SWITCHES+0)+0),f
  9834  1703                     u6507:
  9835  1703  0BF0               	decfsz	((??_READ_SWITCHES+0)+0),f
  9836  1704  2F03               	goto	u6507
  9837  1705  0BF1               	decfsz	((??_READ_SWITCHES+0)+0+1),f
  9838  1706  2F03               	goto	u6507
  9839  1707  0BF2               	decfsz	((??_READ_SWITCHES+0)+0+2),f
  9840  1708  2F03               	goto	u6507
  9841  1709  2F0A               	nop2
  9842                           opt asmopt_on
  9843                           
  9844  170A  2F0B               	goto	l676
  9845                           	
  9846  170B                     l677:	
  9847                           	
  9848  170B                     l676:	
  9849  170B  1283               	bcf	status, 5	;RP0=0, select bank0
  9850  170C  1303               	bcf	status, 6	;RP1=0, select bank0
  9851  170D  1F86               	btfss	(55/8),(55)&7
  9852  170E  2F10               	goto	u5031
  9853  170F  2F11               	goto	u5030
  9854  1710                     u5031:
  9855  1710  2F0B               	goto	l676
  9856  1711                     u5030:
  9857  1711  2F12               	goto	l7074
  9858                           	
  9859  1712                     l678:	
  9860                           	
  9861  1712                     l7074:	
  9862  1712  3078               	movlw	(078h)
  9863  1713  2FFF               	goto	l650
  9864                           	
  9865  1714                     l7076:	
  9866  1714  2FFF               	goto	l650
  9867                           	
  9868  1715                     l675:	
  9869                           	line	34
  9870                           ;Keypad.c: 34: RB0 = 1; RB1 = 1; RB2 = 0; RB3 = 1;
  9871  1715  1406               	bsf	(48/8),(48)&7
  9872  1716  1486               	bsf	(49/8),(49)&7
  9873  1717  1106               	bcf	(50/8),(50)&7
  9874  1718  1586               	bsf	(51/8),(51)&7
  9875                           	line	36
  9876                           ;Keypad.c: 36: if (RB4 == 0) { _delay((unsigned long)((250)*(20000000/4000.0))); while (
                                 RB4==0); return '1'; }
  9877  1719  1A06               	btfsc	(52/8),(52)&7
  9878  171A  2F1C               	goto	u5041
  9879  171B  2F1D               	goto	u5040
  9880  171C                     u5041:
  9881  171C  2F35               	goto	l679
  9882  171D                     u5040:
  9883                           	
  9884  171D                     l7078:	
  9885                           	opt asmopt_off
  9886  171D  3007               movlw  7
  9887  171E  00F2               movwf	((??_READ_SWITCHES+0)+0+2),f
  9888  171F  3058               movlw	88
  9889  1720  00F1               movwf	((??_READ_SWITCHES+0)+0+1),f
  9890  1721  305E               	movlw	94
  9891  1722  00F0               movwf	((??_READ_SWITCHES+0)+0),f
  9892  1723                     u6517:
  9893  1723  0BF0               	decfsz	((??_READ_SWITCHES+0)+0),f
  9894  1724  2F23               	goto	u6517
  9895  1725  0BF1               	decfsz	((??_READ_SWITCHES+0)+0+1),f
  9896  1726  2F23               	goto	u6517
  9897  1727  0BF2               	decfsz	((??_READ_SWITCHES+0)+0+2),f
  9898  1728  2F23               	goto	u6517
  9899  1729  2F2A               	nop2
  9900                           opt asmopt_on
  9901                           
  9902  172A  2F2B               	goto	l680
  9903                           	
  9904  172B                     l681:	
  9905                           	
  9906  172B                     l680:	
  9907  172B  1283               	bcf	status, 5	;RP0=0, select bank0
  9908  172C  1303               	bcf	status, 6	;RP1=0, select bank0
  9909  172D  1E06               	btfss	(52/8),(52)&7
  9910  172E  2F30               	goto	u5051
  9911  172F  2F31               	goto	u5050
  9912  1730                     u5051:
  9913  1730  2F2B               	goto	l680
  9914  1731                     u5050:
  9915  1731  2F32               	goto	l7080
  9916                           	
  9917  1732                     l682:	
  9918                           	
  9919  1732                     l7080:	
  9920  1732  3031               	movlw	(031h)
  9921  1733  2FFF               	goto	l650
  9922                           	
  9923  1734                     l7082:	
  9924  1734  2FFF               	goto	l650
  9925                           	
  9926  1735                     l679:	
  9927                           	line	37
  9928                           ;Keypad.c: 37: if (RB5 == 0) { _delay((unsigned long)((250)*(20000000/4000.0))); while (
                                 RB5==0); return '2'; }
  9929  1735  1A86               	btfsc	(53/8),(53)&7
  9930  1736  2F38               	goto	u5061
  9931  1737  2F39               	goto	u5060
  9932  1738                     u5061:
  9933  1738  2F51               	goto	l683
  9934  1739                     u5060:
  9935                           	
  9936  1739                     l7084:	
  9937                           	opt asmopt_off
  9938  1739  3007               movlw  7
  9939  173A  00F2               movwf	((??_READ_SWITCHES+0)+0+2),f
  9940  173B  3058               movlw	88
  9941  173C  00F1               movwf	((??_READ_SWITCHES+0)+0+1),f
  9942  173D  305E               	movlw	94
  9943  173E  00F0               movwf	((??_READ_SWITCHES+0)+0),f
  9944  173F                     u6527:
  9945  173F  0BF0               	decfsz	((??_READ_SWITCHES+0)+0),f
  9946  1740  2F3F               	goto	u6527
  9947  1741  0BF1               	decfsz	((??_READ_SWITCHES+0)+0+1),f
  9948  1742  2F3F               	goto	u6527
  9949  1743  0BF2               	decfsz	((??_READ_SWITCHES+0)+0+2),f
  9950  1744  2F3F               	goto	u6527
  9951  1745  2F46               	nop2
  9952                           opt asmopt_on
  9953                           
  9954  1746  2F47               	goto	l684
  9955                           	
  9956  1747                     l685:	
  9957                           	
  9958  1747                     l684:	
  9959  1747  1283               	bcf	status, 5	;RP0=0, select bank0
  9960  1748  1303               	bcf	status, 6	;RP1=0, select bank0
  9961  1749  1E86               	btfss	(53/8),(53)&7
  9962  174A  2F4C               	goto	u5071
  9963  174B  2F4D               	goto	u5070
  9964  174C                     u5071:
  9965  174C  2F47               	goto	l684
  9966  174D                     u5070:
  9967  174D  2F4E               	goto	l7086
  9968                           	
  9969  174E                     l686:	
  9970                           	
  9971  174E                     l7086:	
  9972  174E  3032               	movlw	(032h)
  9973  174F  2FFF               	goto	l650
  9974                           	
  9975  1750                     l7088:	
  9976  1750  2FFF               	goto	l650
  9977                           	
  9978  1751                     l683:	
  9979                           	line	38
  9980                           ;Keypad.c: 38: if (RB6 == 0) { _delay((unsigned long)((250)*(20000000/4000.0))); while (
                                 RB6==0); return '3'; }
  9981  1751  1B06               	btfsc	(54/8),(54)&7
  9982  1752  2F54               	goto	u5081
  9983  1753  2F55               	goto	u5080
  9984  1754                     u5081:
  9985  1754  2F6D               	goto	l687
  9986  1755                     u5080:
  9987                           	
  9988  1755                     l7090:	
  9989                           	opt asmopt_off
  9990  1755  3007               movlw  7
  9991  1756  00F2               movwf	((??_READ_SWITCHES+0)+0+2),f
  9992  1757  3058               movlw	88
  9993  1758  00F1               movwf	((??_READ_SWITCHES+0)+0+1),f
  9994  1759  305E               	movlw	94
  9995  175A  00F0               movwf	((??_READ_SWITCHES+0)+0),f
  9996  175B                     u6537:
  9997  175B  0BF0               	decfsz	((??_READ_SWITCHES+0)+0),f
  9998  175C  2F5B               	goto	u6537
  9999  175D  0BF1               	decfsz	((??_READ_SWITCHES+0)+0+1),f
 10000  175E  2F5B               	goto	u6537
 10001  175F  0BF2               	decfsz	((??_READ_SWITCHES+0)+0+2),f
 10002  1760  2F5B               	goto	u6537
 10003  1761  2F62               	nop2
 10004                           opt asmopt_on
 10005                           
 10006  1762  2F63               	goto	l688
 10007                           	
 10008  1763                     l689:	
 10009                           	
 10010  1763                     l688:	
 10011  1763  1283               	bcf	status, 5	;RP0=0, select bank0
 10012  1764  1303               	bcf	status, 6	;RP1=0, select bank0
 10013  1765  1F06               	btfss	(54/8),(54)&7
 10014  1766  2F68               	goto	u5091
 10015  1767  2F69               	goto	u5090
 10016  1768                     u5091:
 10017  1768  2F63               	goto	l688
 10018  1769                     u5090:
 10019  1769  2F6A               	goto	l7092
 10020                           	
 10021  176A                     l690:	
 10022                           	
 10023  176A                     l7092:	
 10024  176A  3033               	movlw	(033h)
 10025  176B  2FFF               	goto	l650
 10026                           	
 10027  176C                     l7094:	
 10028  176C  2FFF               	goto	l650
 10029                           	
 10030  176D                     l687:	
 10031                           	line	39
 10032                           ;Keypad.c: 39: if (RB7 == 0) { _delay((unsigned long)((250)*(20000000/4000.0))); while (
                                 RB7==0); return '-'; }
 10033  176D  1B86               	btfsc	(55/8),(55)&7
 10034  176E  2F70               	goto	u5101
 10035  176F  2F71               	goto	u5100
 10036  1770                     u5101:
 10037  1770  2F89               	goto	l691
 10038  1771                     u5100:
 10039                           	
 10040  1771                     l7096:	
 10041                           	opt asmopt_off
 10042  1771  3007               movlw  7
 10043  1772  00F2               movwf	((??_READ_SWITCHES+0)+0+2),f
 10044  1773  3058               movlw	88
 10045  1774  00F1               movwf	((??_READ_SWITCHES+0)+0+1),f
 10046  1775  305E               	movlw	94
 10047  1776  00F0               movwf	((??_READ_SWITCHES+0)+0),f
 10048  1777                     u6547:
 10049  1777  0BF0               	decfsz	((??_READ_SWITCHES+0)+0),f
 10050  1778  2F77               	goto	u6547
 10051  1779  0BF1               	decfsz	((??_READ_SWITCHES+0)+0+1),f
 10052  177A  2F77               	goto	u6547
 10053  177B  0BF2               	decfsz	((??_READ_SWITCHES+0)+0+2),f
 10054  177C  2F77               	goto	u6547
 10055  177D  2F7E               	nop2
 10056                           opt asmopt_on
 10057                           
 10058  177E  2F7F               	goto	l692
 10059                           	
 10060  177F                     l693:	
 10061                           	
 10062  177F                     l692:	
 10063  177F  1283               	bcf	status, 5	;RP0=0, select bank0
 10064  1780  1303               	bcf	status, 6	;RP1=0, select bank0
 10065  1781  1F86               	btfss	(55/8),(55)&7
 10066  1782  2F84               	goto	u5111
 10067  1783  2F85               	goto	u5110
 10068  1784                     u5111:
 10069  1784  2F7F               	goto	l692
 10070  1785                     u5110:
 10071  1785  2F86               	goto	l7098
 10072                           	
 10073  1786                     l694:	
 10074                           	
 10075  1786                     l7098:	
 10076  1786  302D               	movlw	(02Dh)
 10077  1787  2FFF               	goto	l650
 10078                           	
 10079  1788                     l7100:	
 10080  1788  2FFF               	goto	l650
 10081                           	
 10082  1789                     l691:	
 10083                           	line	41
 10084                           ;Keypad.c: 41: RB0 = 1; RB1 = 1; RB2 = 1; RB3 = 0;
 10085  1789  1406               	bsf	(48/8),(48)&7
 10086  178A  1486               	bsf	(49/8),(49)&7
 10087  178B  1506               	bsf	(50/8),(50)&7
 10088  178C  1186               	bcf	(51/8),(51)&7
 10089                           	line	43
 10090                           ;Keypad.c: 43: if (RB4 == 0) { _delay((unsigned long)((250)*(20000000/4000.0))); while (
                                 RB4==0); return 'C'; }
 10091  178D  1A06               	btfsc	(52/8),(52)&7
 10092  178E  2F90               	goto	u5121
 10093  178F  2F91               	goto	u5120
 10094  1790                     u5121:
 10095  1790  2FA9               	goto	l695
 10096  1791                     u5120:
 10097                           	
 10098  1791                     l7102:	
 10099                           	opt asmopt_off
 10100  1791  3007               movlw  7
 10101  1792  00F2               movwf	((??_READ_SWITCHES+0)+0+2),f
 10102  1793  3058               movlw	88
 10103  1794  00F1               movwf	((??_READ_SWITCHES+0)+0+1),f
 10104  1795  305E               	movlw	94
 10105  1796  00F0               movwf	((??_READ_SWITCHES+0)+0),f
 10106  1797                     u6557:
 10107  1797  0BF0               	decfsz	((??_READ_SWITCHES+0)+0),f
 10108  1798  2F97               	goto	u6557
 10109  1799  0BF1               	decfsz	((??_READ_SWITCHES+0)+0+1),f
 10110  179A  2F97               	goto	u6557
 10111  179B  0BF2               	decfsz	((??_READ_SWITCHES+0)+0+2),f
 10112  179C  2F97               	goto	u6557
 10113  179D  2F9E               	nop2
 10114                           opt asmopt_on
 10115                           
 10116  179E  2F9F               	goto	l696
 10117                           	
 10118  179F                     l697:	
 10119                           	
 10120  179F                     l696:	
 10121  179F  1283               	bcf	status, 5	;RP0=0, select bank0
 10122  17A0  1303               	bcf	status, 6	;RP1=0, select bank0
 10123  17A1  1E06               	btfss	(52/8),(52)&7
 10124  17A2  2FA4               	goto	u5131
 10125  17A3  2FA5               	goto	u5130
 10126  17A4                     u5131:
 10127  17A4  2F9F               	goto	l696
 10128  17A5                     u5130:
 10129  17A5  2FA6               	goto	l7104
 10130                           	
 10131  17A6                     l698:	
 10132                           	
 10133  17A6                     l7104:	
 10134  17A6  3043               	movlw	(043h)
 10135  17A7  2FFF               	goto	l650
 10136                           	
 10137  17A8                     l7106:	
 10138  17A8  2FFF               	goto	l650
 10139                           	
 10140  17A9                     l695:	
 10141                           	line	44
 10142                           ;Keypad.c: 44: if (RB5 == 0) { _delay((unsigned long)((250)*(20000000/4000.0))); while (
                                 RB5==0); return '0'; }
 10143  17A9  1A86               	btfsc	(53/8),(53)&7
 10144  17AA  2FAC               	goto	u5141
 10145  17AB  2FAD               	goto	u5140
 10146  17AC                     u5141:
 10147  17AC  2FC5               	goto	l699
 10148  17AD                     u5140:
 10149                           	
 10150  17AD                     l7108:	
 10151                           	opt asmopt_off
 10152  17AD  3007               movlw  7
 10153  17AE  00F2               movwf	((??_READ_SWITCHES+0)+0+2),f
 10154  17AF  3058               movlw	88
 10155  17B0  00F1               movwf	((??_READ_SWITCHES+0)+0+1),f
 10156  17B1  305E               	movlw	94
 10157  17B2  00F0               movwf	((??_READ_SWITCHES+0)+0),f
 10158  17B3                     u6567:
 10159  17B3  0BF0               	decfsz	((??_READ_SWITCHES+0)+0),f
 10160  17B4  2FB3               	goto	u6567
 10161  17B5  0BF1               	decfsz	((??_READ_SWITCHES+0)+0+1),f
 10162  17B6  2FB3               	goto	u6567
 10163  17B7  0BF2               	decfsz	((??_READ_SWITCHES+0)+0+2),f
 10164  17B8  2FB3               	goto	u6567
 10165  17B9  2FBA               	nop2
 10166                           opt asmopt_on
 10167                           
 10168  17BA  2FBB               	goto	l700
 10169                           	
 10170  17BB                     l701:	
 10171                           	
 10172  17BB                     l700:	
 10173  17BB  1283               	bcf	status, 5	;RP0=0, select bank0
 10174  17BC  1303               	bcf	status, 6	;RP1=0, select bank0
 10175  17BD  1E86               	btfss	(53/8),(53)&7
 10176  17BE  2FC0               	goto	u5151
 10177  17BF  2FC1               	goto	u5150
 10178  17C0                     u5151:
 10179  17C0  2FBB               	goto	l700
 10180  17C1                     u5150:
 10181  17C1  2FC2               	goto	l7110
 10182                           	
 10183  17C2                     l702:	
 10184                           	
 10185  17C2                     l7110:	
 10186  17C2  3030               	movlw	(030h)
 10187  17C3  2FFF               	goto	l650
 10188                           	
 10189  17C4                     l7112:	
 10190  17C4  2FFF               	goto	l650
 10191                           	
 10192  17C5                     l699:	
 10193                           	line	45
 10194                           ;Keypad.c: 45: if (RB6 == 0) { _delay((unsigned long)((250)*(20000000/4000.0))); while (
                                 RB6==0); return '='; }
 10195  17C5  1B06               	btfsc	(54/8),(54)&7
 10196  17C6  2FC8               	goto	u5161
 10197  17C7  2FC9               	goto	u5160
 10198  17C8                     u5161:
 10199  17C8  2FE1               	goto	l703
 10200  17C9                     u5160:
 10201                           	
 10202  17C9                     l7114:	
 10203                           	opt asmopt_off
 10204  17C9  3007               movlw  7
 10205  17CA  00F2               movwf	((??_READ_SWITCHES+0)+0+2),f
 10206  17CB  3058               movlw	88
 10207  17CC  00F1               movwf	((??_READ_SWITCHES+0)+0+1),f
 10208  17CD  305E               	movlw	94
 10209  17CE  00F0               movwf	((??_READ_SWITCHES+0)+0),f
 10210  17CF                     u6577:
 10211  17CF  0BF0               	decfsz	((??_READ_SWITCHES+0)+0),f
 10212  17D0  2FCF               	goto	u6577
 10213  17D1  0BF1               	decfsz	((??_READ_SWITCHES+0)+0+1),f
 10214  17D2  2FCF               	goto	u6577
 10215  17D3  0BF2               	decfsz	((??_READ_SWITCHES+0)+0+2),f
 10216  17D4  2FCF               	goto	u6577
 10217  17D5  2FD6               	nop2
 10218                           opt asmopt_on
 10219                           
 10220  17D6  2FD7               	goto	l704
 10221                           	
 10222  17D7                     l705:	
 10223                           	
 10224  17D7                     l704:	
 10225  17D7  1283               	bcf	status, 5	;RP0=0, select bank0
 10226  17D8  1303               	bcf	status, 6	;RP1=0, select bank0
 10227  17D9  1F06               	btfss	(54/8),(54)&7
 10228  17DA  2FDC               	goto	u5171
 10229  17DB  2FDD               	goto	u5170
 10230  17DC                     u5171:
 10231  17DC  2FD7               	goto	l704
 10232  17DD                     u5170:
 10233  17DD  2FDE               	goto	l7116
 10234                           	
 10235  17DE                     l706:	
 10236                           	
 10237  17DE                     l7116:	
 10238  17DE  303D               	movlw	(03Dh)
 10239  17DF  2FFF               	goto	l650
 10240                           	
 10241  17E0                     l7118:	
 10242  17E0  2FFF               	goto	l650
 10243                           	
 10244  17E1                     l703:	
 10245                           	line	46
 10246                           ;Keypad.c: 46: if (RB7 == 0) { _delay((unsigned long)((250)*(20000000/4000.0))); while (
                                 RB7==0); return '+'; }
 10247  17E1  1B86               	btfsc	(55/8),(55)&7
 10248  17E2  2FE4               	goto	u5181
 10249  17E3  2FE5               	goto	u5180
 10250  17E4                     u5181:
 10251  17E4  2FFD               	goto	l7126
 10252  17E5                     u5180:
 10253                           	
 10254  17E5                     l7120:	
 10255                           	opt asmopt_off
 10256  17E5  3007               movlw  7
 10257  17E6  00F2               movwf	((??_READ_SWITCHES+0)+0+2),f
 10258  17E7  3058               movlw	88
 10259  17E8  00F1               movwf	((??_READ_SWITCHES+0)+0+1),f
 10260  17E9  305E               	movlw	94
 10261  17EA  00F0               movwf	((??_READ_SWITCHES+0)+0),f
 10262  17EB                     u6587:
 10263  17EB  0BF0               	decfsz	((??_READ_SWITCHES+0)+0),f
 10264  17EC  2FEB               	goto	u6587
 10265  17ED  0BF1               	decfsz	((??_READ_SWITCHES+0)+0+1),f
 10266  17EE  2FEB               	goto	u6587
 10267  17EF  0BF2               	decfsz	((??_READ_SWITCHES+0)+0+2),f
 10268  17F0  2FEB               	goto	u6587
 10269  17F1  2FF2               	nop2
 10270                           opt asmopt_on
 10271                           
 10272  17F2  2FF3               	goto	l708
 10273                           	
 10274  17F3                     l709:	
 10275                           	
 10276  17F3                     l708:	
 10277  17F3  1283               	bcf	status, 5	;RP0=0, select bank0
 10278  17F4  1303               	bcf	status, 6	;RP1=0, select bank0
 10279  17F5  1F86               	btfss	(55/8),(55)&7
 10280  17F6  2FF8               	goto	u5191
 10281  17F7  2FF9               	goto	u5190
 10282  17F8                     u5191:
 10283  17F8  2FF3               	goto	l708
 10284  17F9                     u5190:
 10285  17F9  2FFA               	goto	l7122
 10286                           	
 10287  17FA                     l710:	
 10288                           	
 10289  17FA                     l7122:	
 10290  17FA  302B               	movlw	(02Bh)
 10291  17FB  2FFF               	goto	l650
 10292                           	
 10293  17FC                     l7124:	
 10294  17FC  2FFF               	goto	l650
 10295                           	
 10296  17FD                     l707:	
 10297                           	line	48
 10298                           	
 10299  17FD                     l7126:	
 10300                           ;Keypad.c: 48: return 'n';
 10301  17FD  306E               	movlw	(06Eh)
 10302  17FE  2FFF               	goto	l650
 10303                           	
 10304  17FF                     l7128:	
 10305                           	line	49
 10306                           	
 10307  17FF                     l650:	
 10308  17FF  0008               	return
 10309                           	opt stack 0
 10310                           GLOBAL	__end_of_READ_SWITCHES
 10311  1800                     	__end_of_READ_SWITCHES:
 10312 ;; =============== function _READ_SWITCHES ends ============
 10313                           
 10314                           	signat	_READ_SWITCHES,89
 10315                           	global	___awmod
 10316                           psect	text708,local,class=CODE,delta=2
 10317                           global __ptext708
 10318  1B82                     __ptext708:
 10319                           
 10320 ;; *************** function ___awmod *****************
 10321 ;; Defined at:
 10322 ;;		line 5 in file "C:\Program Files (x86)\HI-TECH Software\PICC\9.82\sources\awmod.c"
 10323 ;; Parameters:    Size  Location     Type
 10324 ;;  divisor         2    0[COMMON] int 
 10325 ;;  dividend        2    2[COMMON] int 
 10326 ;; Auto vars:     Size  Location     Type
 10327 ;;  sign            1    6[COMMON] unsigned char 
 10328 ;;  counter         1    5[COMMON] unsigned char 
 10329 ;; Return value:  Size  Location     Type
 10330 ;;                  2    0[COMMON] int 
 10331 ;; Registers used:
 10332 ;;		wreg, status,2, status,0
 10333 ;; Tracked objects:
 10334 ;;		On entry : 0/0
 10335 ;;		On exit  : 0/0
 10336 ;;		Unchanged: 0/0
 10337 ;; Data sizes:     COMMON   BANK0   BANK1   BANK3   BANK2
 10338 ;;      Params:         4       0       0       0       0
 10339 ;;      Locals:         2       0       0       0       0
 10340 ;;      Temps:          1       0       0       0       0
 10341 ;;      Totals:         7       0       0       0       0
 10342 ;;Total ram usage:        7 bytes
 10343 ;; Hardware stack levels used:    1
 10344 ;; This function calls:
 10345 ;;		Nothing
 10346 ;; This function is called by:
 10347 ;;		_fround
 10348 ;;		_scale
 10349 ;; This function uses a non-reentrant model
 10350 ;;
 10351                           psect	text708
 10352                           	file	"C:\Program Files (x86)\HI-TECH Software\PICC\9.82\sources\awmod.c"
 10353                           	line	5
 10354                           	global	__size_of___awmod
 10355  0066                     	__size_of___awmod	equ	__end_of___awmod-___awmod
 10356                           	
 10357  1B82                     ___awmod:	
 10358                           	opt	stack 5
 10359                           ; Regs used in ___awmod: [wreg+status,2+status,0]
 10360                           	line	8
 10361                           	
 10362  1B82                     l6976:	
 10363  1B82  01F6               	clrf	(___awmod@sign)
 10364                           	line	9
 10365  1B83  1FF3               	btfss	(___awmod@dividend+1),7
 10366  1B84  2B86               	goto	u4781
 10367  1B85  2B87               	goto	u4780
 10368  1B86                     u4781:
 10369  1B86  2B90               	goto	l6980
 10370  1B87                     u4780:
 10371                           	line	10
 10372                           	
 10373  1B87                     l6978:	
 10374  1B87  09F2               	comf	(___awmod@dividend),f
 10375  1B88  09F3               	comf	(___awmod@dividend+1),f
 10376  1B89  0AF2               	incf	(___awmod@dividend),f
 10377  1B8A  1903               	skipnz
 10378  1B8B  0AF3               	incf	(___awmod@dividend+1),f
 10379                           	line	11
 10380  1B8C  01F6               	clrf	(___awmod@sign)
 10381  1B8D  1403               	bsf	status,0
 10382  1B8E  0DF6               	rlf	(___awmod@sign),f
 10383  1B8F  2B90               	goto	l6980
 10384                           	line	12
 10385                           	
 10386  1B90                     l3092:	
 10387                           	line	13
 10388                           	
 10389  1B90                     l6980:	
 10390  1B90  1FF1               	btfss	(___awmod@divisor+1),7
 10391  1B91  2B93               	goto	u4791
 10392  1B92  2B94               	goto	u4790
 10393  1B93                     u4791:
 10394  1B93  2B9A               	goto	l6984
 10395  1B94                     u4790:
 10396                           	line	14
 10397                           	
 10398  1B94                     l6982:	
 10399  1B94  09F0               	comf	(___awmod@divisor),f
 10400  1B95  09F1               	comf	(___awmod@divisor+1),f
 10401  1B96  0AF0               	incf	(___awmod@divisor),f
 10402  1B97  1903               	skipnz
 10403  1B98  0AF1               	incf	(___awmod@divisor+1),f
 10404  1B99  2B9A               	goto	l6984
 10405                           	
 10406  1B9A                     l3093:	
 10407                           	line	15
 10408                           	
 10409  1B9A                     l6984:	
 10410  1B9A  0871               	movf	(___awmod@divisor+1),w
 10411  1B9B  0470               	iorwf	(___awmod@divisor),w
 10412  1B9C  1903               	skipnz
 10413  1B9D  2B9F               	goto	u4801
 10414  1B9E  2BA0               	goto	u4800
 10415  1B9F                     u4801:
 10416  1B9F  2BD6               	goto	l7002
 10417  1BA0                     u4800:
 10418                           	line	16
 10419                           	
 10420  1BA0                     l6986:	
 10421  1BA0  01F5               	clrf	(___awmod@counter)
 10422  1BA1  1403               	bsf	status,0
 10423  1BA2  0DF5               	rlf	(___awmod@counter),f
 10424                           	line	17
 10425  1BA3  2BB0               	goto	l6992
 10426                           	
 10427  1BA4                     l3096:	
 10428                           	line	18
 10429                           	
 10430  1BA4                     l6988:	
 10431  1BA4  3001               	movlw	01h
 10432                           	
 10433  1BA5                     u4815:
 10434  1BA5  1003               	clrc
 10435  1BA6  0DF0               	rlf	(___awmod@divisor),f
 10436  1BA7  0DF1               	rlf	(___awmod@divisor+1),f
 10437  1BA8  3EFF               	addlw	-1
 10438  1BA9  1D03               	skipz
 10439  1BAA  2BA5               	goto	u4815
 10440                           	line	19
 10441                           	
 10442  1BAB                     l6990:	
 10443  1BAB  3001               	movlw	(01h)
 10444  1BAC  00F4               	movwf	(??___awmod+0)+0
 10445  1BAD  0874               	movf	(??___awmod+0)+0,w
 10446  1BAE  07F5               	addwf	(___awmod@counter),f
 10447  1BAF  2BB0               	goto	l6992
 10448                           	line	20
 10449                           	
 10450  1BB0                     l3095:	
 10451                           	line	17
 10452                           	
 10453  1BB0                     l6992:	
 10454  1BB0  1FF1               	btfss	(___awmod@divisor+1),(15)&7
 10455  1BB1  2BB3               	goto	u4821
 10456  1BB2  2BB4               	goto	u4820
 10457  1BB3                     u4821:
 10458  1BB3  2BA4               	goto	l6988
 10459  1BB4                     u4820:
 10460  1BB4  2BB6               	goto	l6994
 10461                           	
 10462  1BB5                     l3097:	
 10463  1BB5  2BB6               	goto	l6994
 10464                           	line	21
 10465                           	
 10466  1BB6                     l3098:	
 10467                           	line	22
 10468                           	
 10469  1BB6                     l6994:	
 10470  1BB6  0871               	movf	(___awmod@divisor+1),w
 10471  1BB7  0273               	subwf	(___awmod@dividend+1),w
 10472  1BB8  1D03               	skipz
 10473  1BB9  2BBC               	goto	u4835
 10474  1BBA  0870               	movf	(___awmod@divisor),w
 10475  1BBB  0272               	subwf	(___awmod@dividend),w
 10476  1BBC                     u4835:
 10477  1BBC  1C03               	skipc
 10478  1BBD  2BBF               	goto	u4831
 10479  1BBE  2BC0               	goto	u4830
 10480  1BBF                     u4831:
 10481  1BBF  2BC7               	goto	l6998
 10482  1BC0                     u4830:
 10483                           	line	23
 10484                           	
 10485  1BC0                     l6996:	
 10486  1BC0  0870               	movf	(___awmod@divisor),w
 10487  1BC1  02F2               	subwf	(___awmod@dividend),f
 10488  1BC2  0871               	movf	(___awmod@divisor+1),w
 10489  1BC3  1C03               	skipc
 10490  1BC4  03F3               	decf	(___awmod@dividend+1),f
 10491  1BC5  02F3               	subwf	(___awmod@dividend+1),f
 10492  1BC6  2BC7               	goto	l6998
 10493                           	
 10494  1BC7                     l3099:	
 10495                           	line	24
 10496                           	
 10497  1BC7                     l6998:	
 10498  1BC7  3001               	movlw	01h
 10499                           	
 10500  1BC8                     u4845:
 10501  1BC8  1003               	clrc
 10502  1BC9  0CF1               	rrf	(___awmod@divisor+1),f
 10503  1BCA  0CF0               	rrf	(___awmod@divisor),f
 10504  1BCB  3EFF               	addlw	-1
 10505  1BCC  1D03               	skipz
 10506  1BCD  2BC8               	goto	u4845
 10507                           	line	25
 10508                           	
 10509  1BCE                     l7000:	
 10510  1BCE  3001               	movlw	low(01h)
 10511  1BCF  02F5               	subwf	(___awmod@counter),f
 10512  1BD0  1D03               	btfss	status,2
 10513  1BD1  2BD3               	goto	u4851
 10514  1BD2  2BD4               	goto	u4850
 10515  1BD3                     u4851:
 10516  1BD3  2BB6               	goto	l6994
 10517  1BD4                     u4850:
 10518  1BD4  2BD6               	goto	l7002
 10519                           	
 10520  1BD5                     l3100:	
 10521  1BD5  2BD6               	goto	l7002
 10522                           	line	26
 10523                           	
 10524  1BD6                     l3094:	
 10525                           	line	27
 10526                           	
 10527  1BD6                     l7002:	
 10528  1BD6  0876               	movf	(___awmod@sign),w
 10529  1BD7  1D03               	skipz
 10530  1BD8  2BDA               	goto	u4860
 10531  1BD9  2BE0               	goto	l7006
 10532  1BDA                     u4860:
 10533                           	line	28
 10534                           	
 10535  1BDA                     l7004:	
 10536  1BDA  09F2               	comf	(___awmod@dividend),f
 10537  1BDB  09F3               	comf	(___awmod@dividend+1),f
 10538  1BDC  0AF2               	incf	(___awmod@dividend),f
 10539  1BDD  1903               	skipnz
 10540  1BDE  0AF3               	incf	(___awmod@dividend+1),f
 10541  1BDF  2BE0               	goto	l7006
 10542                           	
 10543  1BE0                     l3101:	
 10544                           	line	29
 10545                           	
 10546  1BE0                     l7006:	
 10547  1BE0  0873               	movf	(___awmod@dividend+1),w
 10548  1BE1  01F1               	clrf	(?___awmod+1)
 10549  1BE2  07F1               	addwf	(?___awmod+1)
 10550  1BE3  0872               	movf	(___awmod@dividend),w
 10551  1BE4  01F0               	clrf	(?___awmod)
 10552  1BE5  07F0               	addwf	(?___awmod)
 10553                           
 10554  1BE6  2BE7               	goto	l3102
 10555                           	
 10556  1BE7                     l7008:	
 10557                           	line	30
 10558                           	
 10559  1BE7                     l3102:	
 10560  1BE7  0008               	return
 10561                           	opt stack 0
 10562                           GLOBAL	__end_of___awmod
 10563  1BE8                     	__end_of___awmod:
 10564 ;; =============== function ___awmod ends ============
 10565                           
 10566                           	signat	___awmod,8314
 10567                           	global	___aldiv
 10568                           psect	text709,local,class=CODE,delta=2
 10569                           global __ptext709
 10570  1F58                     __ptext709:
 10571                           
 10572 ;; *************** function ___aldiv *****************
 10573 ;; Defined at:
 10574 ;;		line 5 in file "C:\Program Files (x86)\HI-TECH Software\PICC\9.82\sources\aldiv.c"
 10575 ;; Parameters:    Size  Location     Type
 10576 ;;  divisor         4    0[COMMON] long 
 10577 ;;  dividend        4    4[COMMON] long 
 10578 ;; Auto vars:     Size  Location     Type
 10579 ;;  quotient        4    2[BANK0 ] long 
 10580 ;;  sign            1    1[BANK0 ] unsigned char 
 10581 ;;  counter         1    0[BANK0 ] unsigned char 
 10582 ;; Return value:  Size  Location     Type
 10583 ;;                  4    0[COMMON] long 
 10584 ;; Registers used:
 10585 ;;		wreg, status,2, status,0
 10586 ;; Tracked objects:
 10587 ;;		On entry : 0/0
 10588 ;;		On exit  : 0/0
 10589 ;;		Unchanged: 0/0
 10590 ;; Data sizes:     COMMON   BANK0   BANK1   BANK3   BANK2
 10591 ;;      Params:         8       0       0       0       0
 10592 ;;      Locals:         0       6       0       0       0
 10593 ;;      Temps:          1       0       0       0       0
 10594 ;;      Totals:         9       6       0       0       0
 10595 ;;Total ram usage:       15 bytes
 10596 ;; Hardware stack levels used:    1
 10597 ;; This function calls:
 10598 ;;		Nothing
 10599 ;; This function is called by:
 10600 ;;		_main
 10601 ;; This function uses a non-reentrant model
 10602 ;;
 10603                           psect	text709
 10604                           	file	"C:\Program Files (x86)\HI-TECH Software\PICC\9.82\sources\aldiv.c"
 10605                           	line	5
 10606                           	global	__size_of___aldiv
 10607  00A8                     	__size_of___aldiv	equ	__end_of___aldiv-___aldiv
 10608                           	
 10609  1F58                     ___aldiv:	
 10610                           	opt	stack 7
 10611                           ; Regs used in ___aldiv: [wreg+status,2+status,0]
 10612                           	line	9
 10613                           	
 10614  1F58                     l6934:	
 10615  1F58  1283               	bcf	status, 5	;RP0=0, select bank0
 10616  1F59  1303               	bcf	status, 6	;RP1=0, select bank0
 10617  1F5A  01A1               	clrf	(___aldiv@sign)
 10618                           	line	10
 10619  1F5B  1FF3               	btfss	(___aldiv@divisor+3),7
 10620  1F5C  2F5E               	goto	u4681
 10621  1F5D  2F5F               	goto	u4680
 10622  1F5E                     u4681:
 10623  1F5E  2F6E               	goto	l6940
 10624  1F5F                     u4680:
 10625                           	line	11
 10626                           	
 10627  1F5F                     l6936:	
 10628  1F5F  09F0               	comf	(___aldiv@divisor),f
 10629  1F60  09F1               	comf	(___aldiv@divisor+1),f
 10630  1F61  09F2               	comf	(___aldiv@divisor+2),f
 10631  1F62  09F3               	comf	(___aldiv@divisor+3),f
 10632  1F63  0AF0               	incf	(___aldiv@divisor),f
 10633  1F64  1903               	skipnz
 10634  1F65  0AF1               	incf	(___aldiv@divisor+1),f
 10635  1F66  1903               	skipnz
 10636  1F67  0AF2               	incf	(___aldiv@divisor+2),f
 10637  1F68  1903               	skipnz
 10638  1F69  0AF3               	incf	(___aldiv@divisor+3),f
 10639                           	line	12
 10640                           	
 10641  1F6A                     l6938:	
 10642  1F6A  01A1               	clrf	(___aldiv@sign)
 10643  1F6B  1403               	bsf	status,0
 10644  1F6C  0DA1               	rlf	(___aldiv@sign),f
 10645  1F6D  2F6E               	goto	l6940
 10646                           	line	13
 10647                           	
 10648  1F6E                     l3079:	
 10649                           	line	14
 10650                           	
 10651  1F6E                     l6940:	
 10652  1F6E  1FF7               	btfss	(___aldiv@dividend+3),7
 10653  1F6F  2F71               	goto	u4691
 10654  1F70  2F72               	goto	u4690
 10655  1F71                     u4691:
 10656  1F71  2F82               	goto	l6946
 10657  1F72                     u4690:
 10658                           	line	15
 10659                           	
 10660  1F72                     l6942:	
 10661  1F72  09F4               	comf	(___aldiv@dividend),f
 10662  1F73  09F5               	comf	(___aldiv@dividend+1),f
 10663  1F74  09F6               	comf	(___aldiv@dividend+2),f
 10664  1F75  09F7               	comf	(___aldiv@dividend+3),f
 10665  1F76  0AF4               	incf	(___aldiv@dividend),f
 10666  1F77  1903               	skipnz
 10667  1F78  0AF5               	incf	(___aldiv@dividend+1),f
 10668  1F79  1903               	skipnz
 10669  1F7A  0AF6               	incf	(___aldiv@dividend+2),f
 10670  1F7B  1903               	skipnz
 10671  1F7C  0AF7               	incf	(___aldiv@dividend+3),f
 10672                           	line	16
 10673                           	
 10674  1F7D                     l6944:	
 10675  1F7D  3001               	movlw	(01h)
 10676  1F7E  00F8               	movwf	(??___aldiv+0)+0
 10677  1F7F  0878               	movf	(??___aldiv+0)+0,w
 10678  1F80  06A1               	xorwf	(___aldiv@sign),f
 10679  1F81  2F82               	goto	l6946
 10680                           	line	17
 10681                           	
 10682  1F82                     l3080:	
 10683                           	line	18
 10684                           	
 10685  1F82                     l6946:	
 10686  1F82  3000               	movlw	0
 10687  1F83  00A5               	movwf	(___aldiv@quotient+3)
 10688  1F84  3000               	movlw	0
 10689  1F85  00A4               	movwf	(___aldiv@quotient+2)
 10690  1F86  3000               	movlw	0
 10691  1F87  00A3               	movwf	(___aldiv@quotient+1)
 10692  1F88  3000               	movlw	0
 10693  1F89  00A2               	movwf	(___aldiv@quotient)
 10694                           
 10695                           	line	19
 10696                           	
 10697  1F8A                     l6948:	
 10698  1F8A  0873               	movf	(___aldiv@divisor+3),w
 10699  1F8B  0472               	iorwf	(___aldiv@divisor+2),w
 10700  1F8C  0471               	iorwf	(___aldiv@divisor+1),w
 10701  1F8D  0470               	iorwf	(___aldiv@divisor),w
 10702  1F8E  1903               	skipnz
 10703  1F8F  2F91               	goto	u4701
 10704  1F90  2F92               	goto	u4700
 10705  1F91                     u4701:
 10706  1F91  2FE6               	goto	l6968
 10707  1F92                     u4700:
 10708                           	line	20
 10709                           	
 10710  1F92                     l6950:	
 10711  1F92  01A0               	clrf	(___aldiv@counter)
 10712  1F93  1403               	bsf	status,0
 10713  1F94  0DA0               	rlf	(___aldiv@counter),f
 10714                           	line	21
 10715  1F95  2FA4               	goto	l6954
 10716                           	
 10717  1F96                     l3083:	
 10718                           	line	22
 10719                           	
 10720  1F96                     l6952:	
 10721  1F96  3001               	movlw	01h
 10722  1F97  00F8               	movwf	(??___aldiv+0)+0
 10723  1F98                     u4715:
 10724  1F98  1003               	clrc
 10725  1F99  0DF0               	rlf	(___aldiv@divisor),f
 10726  1F9A  0DF1               	rlf	(___aldiv@divisor+1),f
 10727  1F9B  0DF2               	rlf	(___aldiv@divisor+2),f
 10728  1F9C  0DF3               	rlf	(___aldiv@divisor+3),f
 10729  1F9D  0BF8               	decfsz	(??___aldiv+0)+0
 10730  1F9E  2F98               	goto	u4715
 10731                           	line	23
 10732  1F9F  3001               	movlw	(01h)
 10733  1FA0  00F8               	movwf	(??___aldiv+0)+0
 10734  1FA1  0878               	movf	(??___aldiv+0)+0,w
 10735  1FA2  07A0               	addwf	(___aldiv@counter),f
 10736  1FA3  2FA4               	goto	l6954
 10737                           	line	24
 10738                           	
 10739  1FA4                     l3082:	
 10740                           	line	21
 10741                           	
 10742  1FA4                     l6954:	
 10743  1FA4  1FF3               	btfss	(___aldiv@divisor+3),(31)&7
 10744  1FA5  2FA7               	goto	u4721
 10745  1FA6  2FA8               	goto	u4720
 10746  1FA7                     u4721:
 10747  1FA7  2F96               	goto	l6952
 10748  1FA8                     u4720:
 10749  1FA8  2FAA               	goto	l6956
 10750                           	
 10751  1FA9                     l3084:	
 10752  1FA9  2FAA               	goto	l6956
 10753                           	line	25
 10754                           	
 10755  1FAA                     l3085:	
 10756                           	line	26
 10757                           	
 10758  1FAA                     l6956:	
 10759  1FAA  3001               	movlw	01h
 10760  1FAB  00F8               	movwf	(??___aldiv+0)+0
 10761  1FAC                     u4735:
 10762  1FAC  1003               	clrc
 10763  1FAD  0DA2               	rlf	(___aldiv@quotient),f
 10764  1FAE  0DA3               	rlf	(___aldiv@quotient+1),f
 10765  1FAF  0DA4               	rlf	(___aldiv@quotient+2),f
 10766  1FB0  0DA5               	rlf	(___aldiv@quotient+3),f
 10767  1FB1  0BF8               	decfsz	(??___aldiv+0)+0
 10768  1FB2  2FAC               	goto	u4735
 10769                           	line	27
 10770                           	
 10771  1FB3                     l6958:	
 10772  1FB3  0873               	movf	(___aldiv@divisor+3),w
 10773  1FB4  0277               	subwf	(___aldiv@dividend+3),w
 10774  1FB5  1D03               	skipz
 10775  1FB6  2FC1               	goto	u4745
 10776  1FB7  0872               	movf	(___aldiv@divisor+2),w
 10777  1FB8  0276               	subwf	(___aldiv@dividend+2),w
 10778  1FB9  1D03               	skipz
 10779  1FBA  2FC1               	goto	u4745
 10780  1FBB  0871               	movf	(___aldiv@divisor+1),w
 10781  1FBC  0275               	subwf	(___aldiv@dividend+1),w
 10782  1FBD  1D03               	skipz
 10783  1FBE  2FC1               	goto	u4745
 10784  1FBF  0870               	movf	(___aldiv@divisor),w
 10785  1FC0  0274               	subwf	(___aldiv@dividend),w
 10786  1FC1                     u4745:
 10787  1FC1  1C03               	skipc
 10788  1FC2  2FC4               	goto	u4741
 10789  1FC3  2FC5               	goto	u4740
 10790  1FC4                     u4741:
 10791  1FC4  2FD5               	goto	l6964
 10792  1FC5                     u4740:
 10793                           	line	28
 10794                           	
 10795  1FC5                     l6960:	
 10796  1FC5  0870               	movf	(___aldiv@divisor),w
 10797  1FC6  02F4               	subwf	(___aldiv@dividend),f
 10798  1FC7  0871               	movf	(___aldiv@divisor+1),w
 10799  1FC8  1C03               	skipc
 10800  1FC9  0F71               	incfsz	(___aldiv@divisor+1),w
 10801  1FCA  02F5               	subwf	(___aldiv@dividend+1),f
 10802  1FCB  0872               	movf	(___aldiv@divisor+2),w
 10803  1FCC  1C03               	skipc
 10804  1FCD  0F72               	incfsz	(___aldiv@divisor+2),w
 10805  1FCE  02F6               	subwf	(___aldiv@dividend+2),f
 10806  1FCF  0873               	movf	(___aldiv@divisor+3),w
 10807  1FD0  1C03               	skipc
 10808  1FD1  0F73               	incfsz	(___aldiv@divisor+3),w
 10809  1FD2  02F7               	subwf	(___aldiv@dividend+3),f
 10810                           	line	29
 10811                           	
 10812  1FD3                     l6962:	
 10813  1FD3  1422               	bsf	(___aldiv@quotient)+(0/8),(0)&7
 10814  1FD4  2FD5               	goto	l6964
 10815                           	line	30
 10816                           	
 10817  1FD5                     l3086:	
 10818                           	line	31
 10819                           	
 10820  1FD5                     l6964:	
 10821  1FD5  3001               	movlw	01h
 10822  1FD6                     u4755:
 10823  1FD6  1003               	clrc
 10824  1FD7  0CF3               	rrf	(___aldiv@divisor+3),f
 10825  1FD8  0CF2               	rrf	(___aldiv@divisor+2),f
 10826  1FD9  0CF1               	rrf	(___aldiv@divisor+1),f
 10827  1FDA  0CF0               	rrf	(___aldiv@divisor),f
 10828  1FDB  3EFF               	addlw	-1
 10829  1FDC  1D03               	skipz
 10830  1FDD  2FD6               	goto	u4755
 10831                           
 10832                           	line	32
 10833                           	
 10834  1FDE                     l6966:	
 10835  1FDE  3001               	movlw	low(01h)
 10836  1FDF  02A0               	subwf	(___aldiv@counter),f
 10837  1FE0  1D03               	btfss	status,2
 10838  1FE1  2FE3               	goto	u4761
 10839  1FE2  2FE4               	goto	u4760
 10840  1FE3                     u4761:
 10841  1FE3  2FAA               	goto	l6956
 10842  1FE4                     u4760:
 10843  1FE4  2FE6               	goto	l6968
 10844                           	
 10845  1FE5                     l3087:	
 10846  1FE5  2FE6               	goto	l6968
 10847                           	line	33
 10848                           	
 10849  1FE6                     l3081:	
 10850                           	line	34
 10851                           	
 10852  1FE6                     l6968:	
 10853  1FE6  0821               	movf	(___aldiv@sign),w
 10854  1FE7  1D03               	skipz
 10855  1FE8  2FEA               	goto	u4770
 10856  1FE9  2FF6               	goto	l6972
 10857  1FEA                     u4770:
 10858                           	line	35
 10859                           	
 10860  1FEA                     l6970:	
 10861  1FEA  09A2               	comf	(___aldiv@quotient),f
 10862  1FEB  09A3               	comf	(___aldiv@quotient+1),f
 10863  1FEC  09A4               	comf	(___aldiv@quotient+2),f
 10864  1FED  09A5               	comf	(___aldiv@quotient+3),f
 10865  1FEE  0AA2               	incf	(___aldiv@quotient),f
 10866  1FEF  1903               	skipnz
 10867  1FF0  0AA3               	incf	(___aldiv@quotient+1),f
 10868  1FF1  1903               	skipnz
 10869  1FF2  0AA4               	incf	(___aldiv@quotient+2),f
 10870  1FF3  1903               	skipnz
 10871  1FF4  0AA5               	incf	(___aldiv@quotient+3),f
 10872  1FF5  2FF6               	goto	l6972
 10873                           	
 10874  1FF6                     l3088:	
 10875                           	line	36
 10876                           	
 10877  1FF6                     l6972:	
 10878  1FF6  0825               	movf	(___aldiv@quotient+3),w
 10879  1FF7  00F3               	movwf	(?___aldiv+3)
 10880  1FF8  0824               	movf	(___aldiv@quotient+2),w
 10881  1FF9  00F2               	movwf	(?___aldiv+2)
 10882  1FFA  0823               	movf	(___aldiv@quotient+1),w
 10883  1FFB  00F1               	movwf	(?___aldiv+1)
 10884  1FFC  0822               	movf	(___aldiv@quotient),w
 10885  1FFD  00F0               	movwf	(?___aldiv)
 10886                           
 10887  1FFE  2FFF               	goto	l3089
 10888                           	
 10889  1FFF                     l6974:	
 10890                           	line	37
 10891                           	
 10892  1FFF                     l3089:	
 10893  1FFF  0008               	return
 10894                           	opt stack 0
 10895                           GLOBAL	__end_of___aldiv
 10896  2000                     	__end_of___aldiv:
 10897 ;; =============== function ___aldiv ends ============
 10898                           
 10899                           	signat	___aldiv,8316
 10900                           	global	___lldiv
 10901                           psect	text710,local,class=CODE,delta=2
 10902                           global __ptext710
 10903  1C54                     __ptext710:
 10904                           
 10905 ;; *************** function ___lldiv *****************
 10906 ;; Defined at:
 10907 ;;		line 5 in file "C:\Program Files (x86)\HI-TECH Software\PICC\9.82\sources\lldiv.c"
 10908 ;; Parameters:    Size  Location     Type
 10909 ;;  divisor         4    0[COMMON] unsigned long 
 10910 ;;  dividend        4    4[COMMON] unsigned long 
 10911 ;; Auto vars:     Size  Location     Type
 10912 ;;  quotient        4    9[COMMON] unsigned long 
 10913 ;;  counter         1   13[COMMON] unsigned char 
 10914 ;; Return value:  Size  Location     Type
 10915 ;;                  4    0[COMMON] unsigned long 
 10916 ;; Registers used:
 10917 ;;		wreg, status,2, status,0
 10918 ;; Tracked objects:
 10919 ;;		On entry : 0/0
 10920 ;;		On exit  : 0/0
 10921 ;;		Unchanged: 0/0
 10922 ;; Data sizes:     COMMON   BANK0   BANK1   BANK3   BANK2
 10923 ;;      Params:         8       0       0       0       0
 10924 ;;      Locals:         5       0       0       0       0
 10925 ;;      Temps:          1       0       0       0       0
 10926 ;;      Totals:        14       0       0       0       0
 10927 ;;Total ram usage:       14 bytes
 10928 ;; Hardware stack levels used:    1
 10929 ;; This function calls:
 10930 ;;		Nothing
 10931 ;; This function is called by:
 10932 ;;		_sprintf
 10933 ;; This function uses a non-reentrant model
 10934 ;;
 10935                           psect	text710
 10936                           	file	"C:\Program Files (x86)\HI-TECH Software\PICC\9.82\sources\lldiv.c"
 10937                           	line	5
 10938                           	global	__size_of___lldiv
 10939  006E                     	__size_of___lldiv	equ	__end_of___lldiv-___lldiv
 10940                           	
 10941  1C54                     ___lldiv:	
 10942                           	opt	stack 6
 10943                           ; Regs used in ___lldiv: [wreg+status,2+status,0]
 10944                           	line	9
 10945                           	
 10946  1C54                     l6910:	
 10947  1C54  3000               	movlw	0
 10948  1C55  00FC               	movwf	(___lldiv@quotient+3)
 10949  1C56  3000               	movlw	0
 10950  1C57  00FB               	movwf	(___lldiv@quotient+2)
 10951  1C58  3000               	movlw	0
 10952  1C59  00FA               	movwf	(___lldiv@quotient+1)
 10953  1C5A  3000               	movlw	0
 10954  1C5B  00F9               	movwf	(___lldiv@quotient)
 10955                           
 10956                           	line	10
 10957  1C5C  0873               	movf	(___lldiv@divisor+3),w
 10958  1C5D  0472               	iorwf	(___lldiv@divisor+2),w
 10959  1C5E  0471               	iorwf	(___lldiv@divisor+1),w
 10960  1C5F  0470               	iorwf	(___lldiv@divisor),w
 10961  1C60  1903               	skipnz
 10962  1C61  2C63               	goto	u4611
 10963  1C62  2C64               	goto	u4610
 10964  1C63                     u4611:
 10965  1C63  2CB8               	goto	l6930
 10966  1C64                     u4610:
 10967                           	line	11
 10968                           	
 10969  1C64                     l6912:	
 10970  1C64  01FD               	clrf	(___lldiv@counter)
 10971  1C65  1403               	bsf	status,0
 10972  1C66  0DFD               	rlf	(___lldiv@counter),f
 10973                           	line	12
 10974  1C67  2C76               	goto	l6916
 10975                           	
 10976  1C68                     l3058:	
 10977                           	line	13
 10978                           	
 10979  1C68                     l6914:	
 10980  1C68  3001               	movlw	01h
 10981  1C69  00F8               	movwf	(??___lldiv+0)+0
 10982  1C6A                     u4625:
 10983  1C6A  1003               	clrc
 10984  1C6B  0DF0               	rlf	(___lldiv@divisor),f
 10985  1C6C  0DF1               	rlf	(___lldiv@divisor+1),f
 10986  1C6D  0DF2               	rlf	(___lldiv@divisor+2),f
 10987  1C6E  0DF3               	rlf	(___lldiv@divisor+3),f
 10988  1C6F  0BF8               	decfsz	(??___lldiv+0)+0
 10989  1C70  2C6A               	goto	u4625
 10990                           	line	14
 10991  1C71  3001               	movlw	(01h)
 10992  1C72  00F8               	movwf	(??___lldiv+0)+0
 10993  1C73  0878               	movf	(??___lldiv+0)+0,w
 10994  1C74  07FD               	addwf	(___lldiv@counter),f
 10995  1C75  2C76               	goto	l6916
 10996                           	line	15
 10997                           	
 10998  1C76                     l3057:	
 10999                           	line	12
 11000                           	
 11001  1C76                     l6916:	
 11002  1C76  1FF3               	btfss	(___lldiv@divisor+3),(31)&7
 11003  1C77  2C79               	goto	u4631
 11004  1C78  2C7A               	goto	u4630
 11005  1C79                     u4631:
 11006  1C79  2C68               	goto	l6914
 11007  1C7A                     u4630:
 11008  1C7A  2C7C               	goto	l6918
 11009                           	
 11010  1C7B                     l3059:	
 11011  1C7B  2C7C               	goto	l6918
 11012                           	line	16
 11013                           	
 11014  1C7C                     l3060:	
 11015                           	line	17
 11016                           	
 11017  1C7C                     l6918:	
 11018  1C7C  3001               	movlw	01h
 11019  1C7D  00F8               	movwf	(??___lldiv+0)+0
 11020  1C7E                     u4645:
 11021  1C7E  1003               	clrc
 11022  1C7F  0DF9               	rlf	(___lldiv@quotient),f
 11023  1C80  0DFA               	rlf	(___lldiv@quotient+1),f
 11024  1C81  0DFB               	rlf	(___lldiv@quotient+2),f
 11025  1C82  0DFC               	rlf	(___lldiv@quotient+3),f
 11026  1C83  0BF8               	decfsz	(??___lldiv+0)+0
 11027  1C84  2C7E               	goto	u4645
 11028                           	line	18
 11029                           	
 11030  1C85                     l6920:	
 11031  1C85  0873               	movf	(___lldiv@divisor+3),w
 11032  1C86  0277               	subwf	(___lldiv@dividend+3),w
 11033  1C87  1D03               	skipz
 11034  1C88  2C93               	goto	u4655
 11035  1C89  0872               	movf	(___lldiv@divisor+2),w
 11036  1C8A  0276               	subwf	(___lldiv@dividend+2),w
 11037  1C8B  1D03               	skipz
 11038  1C8C  2C93               	goto	u4655
 11039  1C8D  0871               	movf	(___lldiv@divisor+1),w
 11040  1C8E  0275               	subwf	(___lldiv@dividend+1),w
 11041  1C8F  1D03               	skipz
 11042  1C90  2C93               	goto	u4655
 11043  1C91  0870               	movf	(___lldiv@divisor),w
 11044  1C92  0274               	subwf	(___lldiv@dividend),w
 11045  1C93                     u4655:
 11046  1C93  1C03               	skipc
 11047  1C94  2C96               	goto	u4651
 11048  1C95  2C97               	goto	u4650
 11049  1C96                     u4651:
 11050  1C96  2CA7               	goto	l6926
 11051  1C97                     u4650:
 11052                           	line	19
 11053                           	
 11054  1C97                     l6922:	
 11055  1C97  0870               	movf	(___lldiv@divisor),w
 11056  1C98  02F4               	subwf	(___lldiv@dividend),f
 11057  1C99  0871               	movf	(___lldiv@divisor+1),w
 11058  1C9A  1C03               	skipc
 11059  1C9B  0F71               	incfsz	(___lldiv@divisor+1),w
 11060  1C9C  02F5               	subwf	(___lldiv@dividend+1),f
 11061  1C9D  0872               	movf	(___lldiv@divisor+2),w
 11062  1C9E  1C03               	skipc
 11063  1C9F  0F72               	incfsz	(___lldiv@divisor+2),w
 11064  1CA0  02F6               	subwf	(___lldiv@dividend+2),f
 11065  1CA1  0873               	movf	(___lldiv@divisor+3),w
 11066  1CA2  1C03               	skipc
 11067  1CA3  0F73               	incfsz	(___lldiv@divisor+3),w
 11068  1CA4  02F7               	subwf	(___lldiv@dividend+3),f
 11069                           	line	20
 11070                           	
 11071  1CA5                     l6924:	
 11072  1CA5  1479               	bsf	(___lldiv@quotient)+(0/8),(0)&7
 11073  1CA6  2CA7               	goto	l6926
 11074                           	line	21
 11075                           	
 11076  1CA7                     l3061:	
 11077                           	line	22
 11078                           	
 11079  1CA7                     l6926:	
 11080  1CA7  3001               	movlw	01h
 11081  1CA8                     u4665:
 11082  1CA8  1003               	clrc
 11083  1CA9  0CF3               	rrf	(___lldiv@divisor+3),f
 11084  1CAA  0CF2               	rrf	(___lldiv@divisor+2),f
 11085  1CAB  0CF1               	rrf	(___lldiv@divisor+1),f
 11086  1CAC  0CF0               	rrf	(___lldiv@divisor),f
 11087  1CAD  3EFF               	addlw	-1
 11088  1CAE  1D03               	skipz
 11089  1CAF  2CA8               	goto	u4665
 11090                           
 11091                           	line	23
 11092                           	
 11093  1CB0                     l6928:	
 11094  1CB0  3001               	movlw	low(01h)
 11095  1CB1  02FD               	subwf	(___lldiv@counter),f
 11096  1CB2  1D03               	btfss	status,2
 11097  1CB3  2CB5               	goto	u4671
 11098  1CB4  2CB6               	goto	u4670
 11099  1CB5                     u4671:
 11100  1CB5  2C7C               	goto	l6918
 11101  1CB6                     u4670:
 11102  1CB6  2CB8               	goto	l6930
 11103                           	
 11104  1CB7                     l3062:	
 11105  1CB7  2CB8               	goto	l6930
 11106                           	line	24
 11107                           	
 11108  1CB8                     l3056:	
 11109                           	line	25
 11110                           	
 11111  1CB8                     l6930:	
 11112  1CB8  087C               	movf	(___lldiv@quotient+3),w
 11113  1CB9  00F3               	movwf	(?___lldiv+3)
 11114  1CBA  087B               	movf	(___lldiv@quotient+2),w
 11115  1CBB  00F2               	movwf	(?___lldiv+2)
 11116  1CBC  087A               	movf	(___lldiv@quotient+1),w
 11117  1CBD  00F1               	movwf	(?___lldiv+1)
 11118  1CBE  0879               	movf	(___lldiv@quotient),w
 11119  1CBF  00F0               	movwf	(?___lldiv)
 11120                           
 11121  1CC0  2CC1               	goto	l3063
 11122                           	
 11123  1CC1                     l6932:	
 11124                           	line	26
 11125                           	
 11126  1CC1                     l3063:	
 11127  1CC1  0008               	return
 11128                           	opt stack 0
 11129                           GLOBAL	__end_of___lldiv
 11130  1CC2                     	__end_of___lldiv:
 11131 ;; =============== function ___lldiv ends ============
 11132                           
 11133                           	signat	___lldiv,8316
 11134                           	global	___ftge
 11135                           psect	text711,local,class=CODE,delta=2
 11136                           global __ptext711
 11137  1BE8                     __ptext711:
 11138                           
 11139 ;; *************** function ___ftge *****************
 11140 ;; Defined at:
 11141 ;;		line 5 in file "C:\Program Files (x86)\HI-TECH Software\PICC\9.82\sources\ftge.c"
 11142 ;; Parameters:    Size  Location     Type
 11143 ;;  ff1             3    0[COMMON] float 
 11144 ;;  ff2             3    3[COMMON] float 
 11145 ;; Auto vars:     Size  Location     Type
 11146 ;;		None
 11147 ;; Return value:  Size  Location     Type
 11148 ;;		None               void
 11149 ;; Registers used:
 11150 ;;		wreg, status,2, status,0
 11151 ;; Tracked objects:
 11152 ;;		On entry : 0/0
 11153 ;;		On exit  : 0/0
 11154 ;;		Unchanged: 0/0
 11155 ;; Data sizes:     COMMON   BANK0   BANK1   BANK3   BANK2
 11156 ;;      Params:         6       0       0       0       0
 11157 ;;      Locals:         0       0       0       0       0
 11158 ;;      Temps:          6       0       0       0       0
 11159 ;;      Totals:        12       0       0       0       0
 11160 ;;Total ram usage:       12 bytes
 11161 ;; Hardware stack levels used:    1
 11162 ;; This function calls:
 11163 ;;		Nothing
 11164 ;; This function is called by:
 11165 ;;		_sprintf
 11166 ;;		_sqrt
 11167 ;; This function uses a non-reentrant model
 11168 ;;
 11169                           psect	text711
 11170                           	file	"C:\Program Files (x86)\HI-TECH Software\PICC\9.82\sources\ftge.c"
 11171                           	line	5
 11172                           	global	__size_of___ftge
 11173  006C                     	__size_of___ftge	equ	__end_of___ftge-___ftge
 11174                           	
 11175  1BE8                     ___ftge:	
 11176                           	opt	stack 6
 11177                           ; Regs used in ___ftge: [wreg+status,2+status,0]
 11178                           	line	6
 11179                           	
 11180  1BE8                     l6890:	
 11181  1BE8  1FF2               	btfss	(___ftge@ff1+2),(23)&7
 11182  1BE9  2BEB               	goto	u4561
 11183  1BEA  2BEC               	goto	u4560
 11184  1BEB                     u4561:
 11185  1BEB  2C12               	goto	l6894
 11186  1BEC                     u4560:
 11187                           	line	7
 11188                           	
 11189  1BEC                     l6892:	
 11190  1BEC  3000               	movlw	0
 11191  1BED  00F6               	movwf	((??___ftge+0)+0)
 11192  1BEE  3000               	movlw	0
 11193  1BEF  00F7               	movwf	((??___ftge+0)+0+1)
 11194  1BF0  3080               	movlw	080h
 11195  1BF1  00F8               	movwf	((??___ftge+0)+0+2)
 11196  1BF2  0970               	comf	(___ftge@ff1),w
 11197  1BF3  00F9               	movwf	(??___ftge+3)+0
 11198  1BF4  0971               	comf	(___ftge@ff1+1),w
 11199  1BF5  00FA               	movwf	((??___ftge+3)+0+1)
 11200  1BF6  0972               	comf	(___ftge@ff1+2),w
 11201  1BF7  00FB               	movwf	((??___ftge+3)+0+2)
 11202  1BF8  0AF9               	incf	(??___ftge+3)+0,f
 11203  1BF9  1903               	skipnz
 11204  1BFA  0AFA               	incf	((??___ftge+3)+0+1),f
 11205  1BFB  1903               	skipnz
 11206  1BFC  0AFB               	incf	((??___ftge+3)+0+2),f
 11207  1BFD  0879               	movf	0+(??___ftge+3)+0,w
 11208  1BFE  07F6               	addwf	(??___ftge+0)+0,f
 11209  1BFF  087A               	movf	1+(??___ftge+3)+0,w
 11210  1C00  1803               	skipnc
 11211  1C01  0F7A               	incfsz	1+(??___ftge+3)+0,w
 11212  1C02  2C04               	goto	u4571
 11213  1C03  2C05               	goto	u4572
 11214  1C04                     u4571:
 11215  1C04  07F7               	addwf	(??___ftge+0)+1,f
 11216                           	
 11217  1C05                     u4572:
 11218  1C05  087B               	movf	2+(??___ftge+3)+0,w
 11219  1C06  1803               	skipnc
 11220  1C07  0F7B               	incfsz	2+(??___ftge+3)+0,w
 11221  1C08  2C0A               	goto	u4573
 11222  1C09  2C0B               	goto	u4574
 11223  1C0A                     u4573:
 11224  1C0A  07F8               	addwf	(??___ftge+0)+2,f
 11225                           	
 11226  1C0B                     u4574:
 11227  1C0B  0876               	movf	0+(??___ftge+0)+0,w
 11228  1C0C  00F0               	movwf	(___ftge@ff1)
 11229  1C0D  0877               	movf	1+(??___ftge+0)+0,w
 11230  1C0E  00F1               	movwf	(___ftge@ff1+1)
 11231  1C0F  0878               	movf	2+(??___ftge+0)+0,w
 11232  1C10  00F2               	movwf	(___ftge@ff1+2)
 11233  1C11  2C12               	goto	l6894
 11234                           	
 11235  1C12                     l3051:	
 11236                           	line	8
 11237                           	
 11238  1C12                     l6894:	
 11239  1C12  1FF5               	btfss	(___ftge@ff2+2),(23)&7
 11240  1C13  2C15               	goto	u4581
 11241  1C14  2C16               	goto	u4580
 11242  1C15                     u4581:
 11243  1C15  2C3C               	goto	l6898
 11244  1C16                     u4580:
 11245                           	line	9
 11246                           	
 11247  1C16                     l6896:	
 11248  1C16  3000               	movlw	0
 11249  1C17  00F6               	movwf	((??___ftge+0)+0)
 11250  1C18  3000               	movlw	0
 11251  1C19  00F7               	movwf	((??___ftge+0)+0+1)
 11252  1C1A  3080               	movlw	080h
 11253  1C1B  00F8               	movwf	((??___ftge+0)+0+2)
 11254  1C1C  0973               	comf	(___ftge@ff2),w
 11255  1C1D  00F9               	movwf	(??___ftge+3)+0
 11256  1C1E  0974               	comf	(___ftge@ff2+1),w
 11257  1C1F  00FA               	movwf	((??___ftge+3)+0+1)
 11258  1C20  0975               	comf	(___ftge@ff2+2),w
 11259  1C21  00FB               	movwf	((??___ftge+3)+0+2)
 11260  1C22  0AF9               	incf	(??___ftge+3)+0,f
 11261  1C23  1903               	skipnz
 11262  1C24  0AFA               	incf	((??___ftge+3)+0+1),f
 11263  1C25  1903               	skipnz
 11264  1C26  0AFB               	incf	((??___ftge+3)+0+2),f
 11265  1C27  0879               	movf	0+(??___ftge+3)+0,w
 11266  1C28  07F6               	addwf	(??___ftge+0)+0,f
 11267  1C29  087A               	movf	1+(??___ftge+3)+0,w
 11268  1C2A  1803               	skipnc
 11269  1C2B  0F7A               	incfsz	1+(??___ftge+3)+0,w
 11270  1C2C  2C2E               	goto	u4591
 11271  1C2D  2C2F               	goto	u4592
 11272  1C2E                     u4591:
 11273  1C2E  07F7               	addwf	(??___ftge+0)+1,f
 11274                           	
 11275  1C2F                     u4592:
 11276  1C2F  087B               	movf	2+(??___ftge+3)+0,w
 11277  1C30  1803               	skipnc
 11278  1C31  0F7B               	incfsz	2+(??___ftge+3)+0,w
 11279  1C32  2C34               	goto	u4593
 11280  1C33  2C35               	goto	u4594
 11281  1C34                     u4593:
 11282  1C34  07F8               	addwf	(??___ftge+0)+2,f
 11283                           	
 11284  1C35                     u4594:
 11285  1C35  0876               	movf	0+(??___ftge+0)+0,w
 11286  1C36  00F3               	movwf	(___ftge@ff2)
 11287  1C37  0877               	movf	1+(??___ftge+0)+0,w
 11288  1C38  00F4               	movwf	(___ftge@ff2+1)
 11289  1C39  0878               	movf	2+(??___ftge+0)+0,w
 11290  1C3A  00F5               	movwf	(___ftge@ff2+2)
 11291  1C3B  2C3C               	goto	l6898
 11292                           	
 11293  1C3C                     l3052:	
 11294                           	line	10
 11295                           	
 11296  1C3C                     l6898:	
 11297  1C3C  3080               	movlw	080h
 11298  1C3D  06F2               	xorwf	(___ftge@ff1+2),f
 11299                           	line	11
 11300                           	
 11301  1C3E                     l6900:	
 11302  1C3E  3080               	movlw	080h
 11303  1C3F  06F5               	xorwf	(___ftge@ff2+2),f
 11304                           	line	12
 11305                           	
 11306  1C40                     l6902:	
 11307  1C40  0875               	movf	(___ftge@ff2+2),w
 11308  1C41  0272               	subwf	(___ftge@ff1+2),w
 11309  1C42  1D03               	skipz
 11310  1C43  2C4A               	goto	u4605
 11311  1C44  0874               	movf	(___ftge@ff2+1),w
 11312  1C45  0271               	subwf	(___ftge@ff1+1),w
 11313  1C46  1D03               	skipz
 11314  1C47  2C4A               	goto	u4605
 11315  1C48  0873               	movf	(___ftge@ff2),w
 11316  1C49  0270               	subwf	(___ftge@ff1),w
 11317  1C4A                     u4605:
 11318  1C4A  1803               	skipnc
 11319  1C4B  2C4D               	goto	u4601
 11320  1C4C  2C4E               	goto	u4600
 11321  1C4D                     u4601:
 11322  1C4D  2C50               	goto	l6906
 11323  1C4E                     u4600:
 11324                           	
 11325  1C4E                     l6904:	
 11326  1C4E  1003               	clrc
 11327                           	
 11328  1C4F  2C53               	goto	l3053
 11329                           	
 11330  1C50                     l6490:	
 11331                           	
 11332  1C50                     l6906:	
 11333  1C50  1403               	setc
 11334                           	
 11335  1C51  2C53               	goto	l3053
 11336                           	
 11337  1C52                     l6492:	
 11338  1C52  2C53               	goto	l3053
 11339                           	
 11340  1C53                     l6908:	
 11341                           	line	13
 11342                           	
 11343  1C53                     l3053:	
 11344  1C53  0008               	return
 11345                           	opt stack 0
 11346                           GLOBAL	__end_of___ftge
 11347  1C54                     	__end_of___ftge:
 11348 ;; =============== function ___ftge ends ============
 11349                           
 11350                           	signat	___ftge,8312
 11351                           	global	___ftneg
 11352                           psect	text712,local,class=CODE,delta=2
 11353                           global __ptext712
 11354  1929                     __ptext712:
 11355                           
 11356 ;; *************** function ___ftneg *****************
 11357 ;; Defined at:
 11358 ;;		line 16 in file "C:\Program Files (x86)\HI-TECH Software\PICC\9.82\sources\ftneg.c"
 11359 ;; Parameters:    Size  Location     Type
 11360 ;;  f1              3    0[COMMON] float 
 11361 ;; Auto vars:     Size  Location     Type
 11362 ;;		None
 11363 ;; Return value:  Size  Location     Type
 11364 ;;                  3    0[COMMON] float 
 11365 ;; Registers used:
 11366 ;;		wreg
 11367 ;; Tracked objects:
 11368 ;;		On entry : 0/0
 11369 ;;		On exit  : 0/0
 11370 ;;		Unchanged: 0/0
 11371 ;; Data sizes:     COMMON   BANK0   BANK1   BANK3   BANK2
 11372 ;;      Params:         3       0       0       0       0
 11373 ;;      Locals:         0       0       0       0       0
 11374 ;;      Temps:          0       0       0       0       0
 11375 ;;      Totals:         3       0       0       0       0
 11376 ;;Total ram usage:        3 bytes
 11377 ;; Hardware stack levels used:    1
 11378 ;; This function calls:
 11379 ;;		Nothing
 11380 ;; This function is called by:
 11381 ;;		_sprintf
 11382 ;; This function uses a non-reentrant model
 11383 ;;
 11384                           psect	text712
 11385                           	file	"C:\Program Files (x86)\HI-TECH Software\PICC\9.82\sources\ftneg.c"
 11386                           	line	16
 11387                           	global	__size_of___ftneg
 11388  000C                     	__size_of___ftneg	equ	__end_of___ftneg-___ftneg
 11389                           	
 11390  1929                     ___ftneg:	
 11391                           	opt	stack 6
 11392                           ; Regs used in ___ftneg: [wreg]
 11393                           	line	17
 11394                           	
 11395  1929                     l6882:	
 11396  1929  0872               	movf	(___ftneg@f1+2),w
 11397  192A  0471               	iorwf	(___ftneg@f1+1),w
 11398  192B  0470               	iorwf	(___ftneg@f1),w
 11399  192C  1903               	skipnz
 11400  192D  292F               	goto	u4551
 11401  192E  2930               	goto	u4550
 11402  192F                     u4551:
 11403  192F  2933               	goto	l6886
 11404  1930                     u4550:
 11405                           	line	18
 11406                           	
 11407  1930                     l6884:	
 11408  1930  3080               	movlw	080h
 11409  1931  06F2               	xorwf	(___ftneg@f1+2),f
 11410  1932  2933               	goto	l6886
 11411                           	
 11412  1933                     l3047:	
 11413                           	line	19
 11414                           	
 11415  1933                     l6886:	
 11416  1933  2934               	goto	l3048
 11417                           	
 11418  1934                     l6888:	
 11419                           	line	20
 11420                           	
 11421  1934                     l3048:	
 11422  1934  0008               	return
 11423                           	opt stack 0
 11424                           GLOBAL	__end_of___ftneg
 11425  1935                     	__end_of___ftneg:
 11426 ;; =============== function ___ftneg ends ============
 11427                           
 11428                           	signat	___ftneg,4219
 11429                           	global	___llmod
 11430                           psect	text713,local,class=CODE,delta=2
 11431                           global __ptext713
 11432  1B24                     __ptext713:
 11433                           
 11434 ;; *************** function ___llmod *****************
 11435 ;; Defined at:
 11436 ;;		line 5 in file "C:\Program Files (x86)\HI-TECH Software\PICC\9.82\sources\llmod.c"
 11437 ;; Parameters:    Size  Location     Type
 11438 ;;  divisor         4    0[BANK0 ] unsigned long 
 11439 ;;  dividend        4    4[BANK0 ] unsigned long 
 11440 ;; Auto vars:     Size  Location     Type
 11441 ;;  counter         1    9[BANK0 ] unsigned char 
 11442 ;; Return value:  Size  Location     Type
 11443 ;;                  4    0[BANK0 ] unsigned long 
 11444 ;; Registers used:
 11445 ;;		wreg, status,2, status,0
 11446 ;; Tracked objects:
 11447 ;;		On entry : 0/0
 11448 ;;		On exit  : 0/0
 11449 ;;		Unchanged: 0/0
 11450 ;; Data sizes:     COMMON   BANK0   BANK1   BANK3   BANK2
 11451 ;;      Params:         0       8       0       0       0
 11452 ;;      Locals:         0       1       0       0       0
 11453 ;;      Temps:          0       1       0       0       0
 11454 ;;      Totals:         0      10       0       0       0
 11455 ;;Total ram usage:       10 bytes
 11456 ;; Hardware stack levels used:    1
 11457 ;; This function calls:
 11458 ;;		Nothing
 11459 ;; This function is called by:
 11460 ;;		_sprintf
 11461 ;; This function uses a non-reentrant model
 11462 ;;
 11463                           psect	text713
 11464                           	file	"C:\Program Files (x86)\HI-TECH Software\PICC\9.82\sources\llmod.c"
 11465                           	line	5
 11466                           	global	__size_of___llmod
 11467  005E                     	__size_of___llmod	equ	__end_of___llmod-___llmod
 11468                           	
 11469  1B24                     ___llmod:	
 11470                           	opt	stack 6
 11471                           ; Regs used in ___llmod: [wreg+status,2+status,0]
 11472                           	line	8
 11473                           	
 11474  1B24                     l6862:	
 11475  1B24  1283               	bcf	status, 5	;RP0=0, select bank0
 11476  1B25  1303               	bcf	status, 6	;RP1=0, select bank0
 11477  1B26  0823               	movf	(___llmod@divisor+3),w
 11478  1B27  0422               	iorwf	(___llmod@divisor+2),w
 11479  1B28  0421               	iorwf	(___llmod@divisor+1),w
 11480  1B29  0420               	iorwf	(___llmod@divisor),w
 11481  1B2A  1903               	skipnz
 11482  1B2B  2B2D               	goto	u4491
 11483  1B2C  2B2E               	goto	u4490
 11484  1B2D                     u4491:
 11485  1B2D  2B78               	goto	l6878
 11486  1B2E                     u4490:
 11487                           	line	9
 11488                           	
 11489  1B2E                     l6864:	
 11490  1B2E  01A9               	clrf	(___llmod@counter)
 11491  1B2F  1403               	bsf	status,0
 11492  1B30  0DA9               	rlf	(___llmod@counter),f
 11493                           	line	10
 11494  1B31  2B40               	goto	l6868
 11495                           	
 11496  1B32                     l3039:	
 11497                           	line	11
 11498                           	
 11499  1B32                     l6866:	
 11500  1B32  3001               	movlw	01h
 11501  1B33  00A8               	movwf	(??___llmod+0)+0
 11502  1B34                     u4505:
 11503  1B34  1003               	clrc
 11504  1B35  0DA0               	rlf	(___llmod@divisor),f
 11505  1B36  0DA1               	rlf	(___llmod@divisor+1),f
 11506  1B37  0DA2               	rlf	(___llmod@divisor+2),f
 11507  1B38  0DA3               	rlf	(___llmod@divisor+3),f
 11508  1B39  0BA8               	decfsz	(??___llmod+0)+0
 11509  1B3A  2B34               	goto	u4505
 11510                           	line	12
 11511  1B3B  3001               	movlw	(01h)
 11512  1B3C  00A8               	movwf	(??___llmod+0)+0
 11513  1B3D  0828               	movf	(??___llmod+0)+0,w
 11514  1B3E  07A9               	addwf	(___llmod@counter),f
 11515  1B3F  2B40               	goto	l6868
 11516                           	line	13
 11517                           	
 11518  1B40                     l3038:	
 11519                           	line	10
 11520                           	
 11521  1B40                     l6868:	
 11522  1B40  1FA3               	btfss	(___llmod@divisor+3),(31)&7
 11523  1B41  2B43               	goto	u4511
 11524  1B42  2B44               	goto	u4510
 11525  1B43                     u4511:
 11526  1B43  2B32               	goto	l6866
 11527  1B44                     u4510:
 11528  1B44  2B46               	goto	l6870
 11529                           	
 11530  1B45                     l3040:	
 11531  1B45  2B46               	goto	l6870
 11532                           	line	14
 11533                           	
 11534  1B46                     l3041:	
 11535                           	line	15
 11536                           	
 11537  1B46                     l6870:	
 11538  1B46  0823               	movf	(___llmod@divisor+3),w
 11539  1B47  0227               	subwf	(___llmod@dividend+3),w
 11540  1B48  1D03               	skipz
 11541  1B49  2B54               	goto	u4525
 11542  1B4A  0822               	movf	(___llmod@divisor+2),w
 11543  1B4B  0226               	subwf	(___llmod@dividend+2),w
 11544  1B4C  1D03               	skipz
 11545  1B4D  2B54               	goto	u4525
 11546  1B4E  0821               	movf	(___llmod@divisor+1),w
 11547  1B4F  0225               	subwf	(___llmod@dividend+1),w
 11548  1B50  1D03               	skipz
 11549  1B51  2B54               	goto	u4525
 11550  1B52  0820               	movf	(___llmod@divisor),w
 11551  1B53  0224               	subwf	(___llmod@dividend),w
 11552  1B54                     u4525:
 11553  1B54  1C03               	skipc
 11554  1B55  2B57               	goto	u4521
 11555  1B56  2B58               	goto	u4520
 11556  1B57                     u4521:
 11557  1B57  2B67               	goto	l6874
 11558  1B58                     u4520:
 11559                           	line	16
 11560                           	
 11561  1B58                     l6872:	
 11562  1B58  0820               	movf	(___llmod@divisor),w
 11563  1B59  02A4               	subwf	(___llmod@dividend),f
 11564  1B5A  0821               	movf	(___llmod@divisor+1),w
 11565  1B5B  1C03               	skipc
 11566  1B5C  0F21               	incfsz	(___llmod@divisor+1),w
 11567  1B5D  02A5               	subwf	(___llmod@dividend+1),f
 11568  1B5E  0822               	movf	(___llmod@divisor+2),w
 11569  1B5F  1C03               	skipc
 11570  1B60  0F22               	incfsz	(___llmod@divisor+2),w
 11571  1B61  02A6               	subwf	(___llmod@dividend+2),f
 11572  1B62  0823               	movf	(___llmod@divisor+3),w
 11573  1B63  1C03               	skipc
 11574  1B64  0F23               	incfsz	(___llmod@divisor+3),w
 11575  1B65  02A7               	subwf	(___llmod@dividend+3),f
 11576  1B66  2B67               	goto	l6874
 11577                           	
 11578  1B67                     l3042:	
 11579                           	line	17
 11580                           	
 11581  1B67                     l6874:	
 11582  1B67  3001               	movlw	01h
 11583  1B68                     u4535:
 11584  1B68  1003               	clrc
 11585  1B69  0CA3               	rrf	(___llmod@divisor+3),f
 11586  1B6A  0CA2               	rrf	(___llmod@divisor+2),f
 11587  1B6B  0CA1               	rrf	(___llmod@divisor+1),f
 11588  1B6C  0CA0               	rrf	(___llmod@divisor),f
 11589  1B6D  3EFF               	addlw	-1
 11590  1B6E  1D03               	skipz
 11591  1B6F  2B68               	goto	u4535
 11592                           
 11593                           	line	18
 11594                           	
 11595  1B70                     l6876:	
 11596  1B70  3001               	movlw	low(01h)
 11597  1B71  02A9               	subwf	(___llmod@counter),f
 11598  1B72  1D03               	btfss	status,2
 11599  1B73  2B75               	goto	u4541
 11600  1B74  2B76               	goto	u4540
 11601  1B75                     u4541:
 11602  1B75  2B46               	goto	l6870
 11603  1B76                     u4540:
 11604  1B76  2B78               	goto	l6878
 11605                           	
 11606  1B77                     l3043:	
 11607  1B77  2B78               	goto	l6878
 11608                           	line	19
 11609                           	
 11610  1B78                     l3037:	
 11611                           	line	20
 11612                           	
 11613  1B78                     l6878:	
 11614  1B78  0827               	movf	(___llmod@dividend+3),w
 11615  1B79  00A3               	movwf	(?___llmod+3)
 11616  1B7A  0826               	movf	(___llmod@dividend+2),w
 11617  1B7B  00A2               	movwf	(?___llmod+2)
 11618  1B7C  0825               	movf	(___llmod@dividend+1),w
 11619  1B7D  00A1               	movwf	(?___llmod+1)
 11620  1B7E  0824               	movf	(___llmod@dividend),w
 11621  1B7F  00A0               	movwf	(?___llmod)
 11622                           
 11623  1B80  2B81               	goto	l3044
 11624                           	
 11625  1B81                     l6880:	
 11626                           	line	21
 11627                           	
 11628  1B81                     l3044:	
 11629  1B81  0008               	return
 11630                           	opt stack 0
 11631                           GLOBAL	__end_of___llmod
 11632  1B82                     	__end_of___llmod:
 11633 ;; =============== function ___llmod ends ============
 11634                           
 11635                           	signat	___llmod,8316
 11636                           	global	___awdiv
 11637                           psect	text714,local,class=CODE,delta=2
 11638                           global __ptext714
 11639  1D31                     __ptext714:
 11640                           
 11641 ;; *************** function ___awdiv *****************
 11642 ;; Defined at:
 11643 ;;		line 5 in file "C:\Program Files (x86)\HI-TECH Software\PICC\9.82\sources\awdiv.c"
 11644 ;; Parameters:    Size  Location     Type
 11645 ;;  divisor         2    7[COMMON] int 
 11646 ;;  dividend        2    9[COMMON] int 
 11647 ;; Auto vars:     Size  Location     Type
 11648 ;;  quotient        2    2[BANK0 ] int 
 11649 ;;  sign            1    1[BANK0 ] unsigned char 
 11650 ;;  counter         1    0[BANK0 ] unsigned char 
 11651 ;; Return value:  Size  Location     Type
 11652 ;;                  2    7[COMMON] int 
 11653 ;; Registers used:
 11654 ;;		wreg, status,2, status,0
 11655 ;; Tracked objects:
 11656 ;;		On entry : 0/0
 11657 ;;		On exit  : 0/0
 11658 ;;		Unchanged: 0/0
 11659 ;; Data sizes:     COMMON   BANK0   BANK1   BANK3   BANK2
 11660 ;;      Params:         4       0       0       0       0
 11661 ;;      Locals:         0       4       0       0       0
 11662 ;;      Temps:          1       0       0       0       0
 11663 ;;      Totals:         5       4       0       0       0
 11664 ;;Total ram usage:        9 bytes
 11665 ;; Hardware stack levels used:    1
 11666 ;; This function calls:
 11667 ;;		Nothing
 11668 ;; This function is called by:
 11669 ;;		_fround
 11670 ;;		_scale
 11671 ;;		_sprintf
 11672 ;;		_disp_num
 11673 ;; This function uses a non-reentrant model
 11674 ;;
 11675                           psect	text714
 11676                           	file	"C:\Program Files (x86)\HI-TECH Software\PICC\9.82\sources\awdiv.c"
 11677                           	line	5
 11678                           	global	__size_of___awdiv
 11679  0076                     	__size_of___awdiv	equ	__end_of___awdiv-___awdiv
 11680                           	
 11681  1D31                     ___awdiv:	
 11682                           	opt	stack 5
 11683                           ; Regs used in ___awdiv: [wreg+status,2+status,0]
 11684                           	line	9
 11685                           	
 11686  1D31                     l6822:	
 11687  1D31  1283               	bcf	status, 5	;RP0=0, select bank0
 11688  1D32  1303               	bcf	status, 6	;RP1=0, select bank0
 11689  1D33  01A1               	clrf	(___awdiv@sign)
 11690                           	line	10
 11691  1D34  1FF8               	btfss	(___awdiv@divisor+1),7
 11692  1D35  2D37               	goto	u4391
 11693  1D36  2D38               	goto	u4390
 11694  1D37                     u4391:
 11695  1D37  2D41               	goto	l6826
 11696  1D38                     u4390:
 11697                           	line	11
 11698                           	
 11699  1D38                     l6824:	
 11700  1D38  09F7               	comf	(___awdiv@divisor),f
 11701  1D39  09F8               	comf	(___awdiv@divisor+1),f
 11702  1D3A  0AF7               	incf	(___awdiv@divisor),f
 11703  1D3B  1903               	skipnz
 11704  1D3C  0AF8               	incf	(___awdiv@divisor+1),f
 11705                           	line	12
 11706  1D3D  01A1               	clrf	(___awdiv@sign)
 11707  1D3E  1403               	bsf	status,0
 11708  1D3F  0DA1               	rlf	(___awdiv@sign),f
 11709  1D40  2D41               	goto	l6826
 11710                           	line	13
 11711                           	
 11712  1D41                     l3024:	
 11713                           	line	14
 11714                           	
 11715  1D41                     l6826:	
 11716  1D41  1FFA               	btfss	(___awdiv@dividend+1),7
 11717  1D42  2D44               	goto	u4401
 11718  1D43  2D45               	goto	u4400
 11719  1D44                     u4401:
 11720  1D44  2D4F               	goto	l6832
 11721  1D45                     u4400:
 11722                           	line	15
 11723                           	
 11724  1D45                     l6828:	
 11725  1D45  09F9               	comf	(___awdiv@dividend),f
 11726  1D46  09FA               	comf	(___awdiv@dividend+1),f
 11727  1D47  0AF9               	incf	(___awdiv@dividend),f
 11728  1D48  1903               	skipnz
 11729  1D49  0AFA               	incf	(___awdiv@dividend+1),f
 11730                           	line	16
 11731                           	
 11732  1D4A                     l6830:	
 11733  1D4A  3001               	movlw	(01h)
 11734  1D4B  00FB               	movwf	(??___awdiv+0)+0
 11735  1D4C  087B               	movf	(??___awdiv+0)+0,w
 11736  1D4D  06A1               	xorwf	(___awdiv@sign),f
 11737  1D4E  2D4F               	goto	l6832
 11738                           	line	17
 11739                           	
 11740  1D4F                     l3025:	
 11741                           	line	18
 11742                           	
 11743  1D4F                     l6832:	
 11744  1D4F  01A2               	clrf	(___awdiv@quotient)
 11745  1D50  01A3               	clrf	(___awdiv@quotient+1)
 11746                           	line	19
 11747                           	
 11748  1D51                     l6834:	
 11749  1D51  0878               	movf	(___awdiv@divisor+1),w
 11750  1D52  0477               	iorwf	(___awdiv@divisor),w
 11751  1D53  1903               	skipnz
 11752  1D54  2D56               	goto	u4411
 11753  1D55  2D57               	goto	u4410
 11754  1D56                     u4411:
 11755  1D56  2D95               	goto	l6854
 11756  1D57                     u4410:
 11757                           	line	20
 11758                           	
 11759  1D57                     l6836:	
 11760  1D57  01A0               	clrf	(___awdiv@counter)
 11761  1D58  1403               	bsf	status,0
 11762  1D59  0DA0               	rlf	(___awdiv@counter),f
 11763                           	line	21
 11764  1D5A  2D67               	goto	l6842
 11765                           	
 11766  1D5B                     l3028:	
 11767                           	line	22
 11768                           	
 11769  1D5B                     l6838:	
 11770  1D5B  3001               	movlw	01h
 11771                           	
 11772  1D5C                     u4425:
 11773  1D5C  1003               	clrc
 11774  1D5D  0DF7               	rlf	(___awdiv@divisor),f
 11775  1D5E  0DF8               	rlf	(___awdiv@divisor+1),f
 11776  1D5F  3EFF               	addlw	-1
 11777  1D60  1D03               	skipz
 11778  1D61  2D5C               	goto	u4425
 11779                           	line	23
 11780                           	
 11781  1D62                     l6840:	
 11782  1D62  3001               	movlw	(01h)
 11783  1D63  00FB               	movwf	(??___awdiv+0)+0
 11784  1D64  087B               	movf	(??___awdiv+0)+0,w
 11785  1D65  07A0               	addwf	(___awdiv@counter),f
 11786  1D66  2D67               	goto	l6842
 11787                           	line	24
 11788                           	
 11789  1D67                     l3027:	
 11790                           	line	21
 11791                           	
 11792  1D67                     l6842:	
 11793  1D67  1FF8               	btfss	(___awdiv@divisor+1),(15)&7
 11794  1D68  2D6A               	goto	u4431
 11795  1D69  2D6B               	goto	u4430
 11796  1D6A                     u4431:
 11797  1D6A  2D5B               	goto	l6838
 11798  1D6B                     u4430:
 11799  1D6B  2D6D               	goto	l6844
 11800                           	
 11801  1D6C                     l3029:	
 11802  1D6C  2D6D               	goto	l6844
 11803                           	line	25
 11804                           	
 11805  1D6D                     l3030:	
 11806                           	line	26
 11807                           	
 11808  1D6D                     l6844:	
 11809  1D6D  3001               	movlw	01h
 11810                           	
 11811  1D6E                     u4445:
 11812  1D6E  1003               	clrc
 11813  1D6F  0DA2               	rlf	(___awdiv@quotient),f
 11814  1D70  0DA3               	rlf	(___awdiv@quotient+1),f
 11815  1D71  3EFF               	addlw	-1
 11816  1D72  1D03               	skipz
 11817  1D73  2D6E               	goto	u4445
 11818                           	line	27
 11819  1D74  0878               	movf	(___awdiv@divisor+1),w
 11820  1D75  027A               	subwf	(___awdiv@dividend+1),w
 11821  1D76  1D03               	skipz
 11822  1D77  2D7A               	goto	u4455
 11823  1D78  0877               	movf	(___awdiv@divisor),w
 11824  1D79  0279               	subwf	(___awdiv@dividend),w
 11825  1D7A                     u4455:
 11826  1D7A  1C03               	skipc
 11827  1D7B  2D7D               	goto	u4451
 11828  1D7C  2D7E               	goto	u4450
 11829  1D7D                     u4451:
 11830  1D7D  2D86               	goto	l6850
 11831  1D7E                     u4450:
 11832                           	line	28
 11833                           	
 11834  1D7E                     l6846:	
 11835  1D7E  0877               	movf	(___awdiv@divisor),w
 11836  1D7F  02F9               	subwf	(___awdiv@dividend),f
 11837  1D80  0878               	movf	(___awdiv@divisor+1),w
 11838  1D81  1C03               	skipc
 11839  1D82  03FA               	decf	(___awdiv@dividend+1),f
 11840  1D83  02FA               	subwf	(___awdiv@dividend+1),f
 11841                           	line	29
 11842                           	
 11843  1D84                     l6848:	
 11844  1D84  1422               	bsf	(___awdiv@quotient)+(0/8),(0)&7
 11845  1D85  2D86               	goto	l6850
 11846                           	line	30
 11847                           	
 11848  1D86                     l3031:	
 11849                           	line	31
 11850                           	
 11851  1D86                     l6850:	
 11852  1D86  3001               	movlw	01h
 11853                           	
 11854  1D87                     u4465:
 11855  1D87  1003               	clrc
 11856  1D88  0CF8               	rrf	(___awdiv@divisor+1),f
 11857  1D89  0CF7               	rrf	(___awdiv@divisor),f
 11858  1D8A  3EFF               	addlw	-1
 11859  1D8B  1D03               	skipz
 11860  1D8C  2D87               	goto	u4465
 11861                           	line	32
 11862                           	
 11863  1D8D                     l6852:	
 11864  1D8D  3001               	movlw	low(01h)
 11865  1D8E  02A0               	subwf	(___awdiv@counter),f
 11866  1D8F  1D03               	btfss	status,2
 11867  1D90  2D92               	goto	u4471
 11868  1D91  2D93               	goto	u4470
 11869  1D92                     u4471:
 11870  1D92  2D6D               	goto	l6844
 11871  1D93                     u4470:
 11872  1D93  2D95               	goto	l6854
 11873                           	
 11874  1D94                     l3032:	
 11875  1D94  2D95               	goto	l6854
 11876                           	line	33
 11877                           	
 11878  1D95                     l3026:	
 11879                           	line	34
 11880                           	
 11881  1D95                     l6854:	
 11882  1D95  0821               	movf	(___awdiv@sign),w
 11883  1D96  1D03               	skipz
 11884  1D97  2D99               	goto	u4480
 11885  1D98  2D9F               	goto	l6858
 11886  1D99                     u4480:
 11887                           	line	35
 11888                           	
 11889  1D99                     l6856:	
 11890  1D99  09A2               	comf	(___awdiv@quotient),f
 11891  1D9A  09A3               	comf	(___awdiv@quotient+1),f
 11892  1D9B  0AA2               	incf	(___awdiv@quotient),f
 11893  1D9C  1903               	skipnz
 11894  1D9D  0AA3               	incf	(___awdiv@quotient+1),f
 11895  1D9E  2D9F               	goto	l6858
 11896                           	
 11897  1D9F                     l3033:	
 11898                           	line	36
 11899                           	
 11900  1D9F                     l6858:	
 11901  1D9F  0823               	movf	(___awdiv@quotient+1),w
 11902  1DA0  01F8               	clrf	(?___awdiv+1)
 11903  1DA1  07F8               	addwf	(?___awdiv+1)
 11904  1DA2  0822               	movf	(___awdiv@quotient),w
 11905  1DA3  01F7               	clrf	(?___awdiv)
 11906  1DA4  07F7               	addwf	(?___awdiv)
 11907                           
 11908  1DA5  2DA6               	goto	l3034
 11909                           	
 11910  1DA6                     l6860:	
 11911                           	line	37
 11912                           	
 11913  1DA6                     l3034:	
 11914  1DA6  0008               	return
 11915                           	opt stack 0
 11916                           GLOBAL	__end_of___awdiv
 11917  1DA7                     	__end_of___awdiv:
 11918 ;; =============== function ___awdiv ends ============
 11919                           
 11920                           	signat	___awdiv,8314
 11921                           	global	___fttol
 11922                           psect	text715,local,class=CODE,delta=2
 11923                           global __ptext715
 11924  1EB2                     __ptext715:
 11925                           
 11926 ;; *************** function ___fttol *****************
 11927 ;; Defined at:
 11928 ;;		line 45 in file "C:\Program Files (x86)\HI-TECH Software\PICC\9.82\sources\fttol.c"
 11929 ;; Parameters:    Size  Location     Type
 11930 ;;  f1              3    7[BANK0 ] float 
 11931 ;; Auto vars:     Size  Location     Type
 11932 ;;  lval            4   16[BANK0 ] unsigned long 
 11933 ;;  exp1            1   20[BANK0 ] unsigned char 
 11934 ;;  sign1           1   15[BANK0 ] unsigned char 
 11935 ;; Return value:  Size  Location     Type
 11936 ;;                  4    7[BANK0 ] long 
 11937 ;; Registers used:
 11938 ;;		wreg, status,2, status,0
 11939 ;; Tracked objects:
 11940 ;;		On entry : 0/0
 11941 ;;		On exit  : 0/0
 11942 ;;		Unchanged: 0/0
 11943 ;; Data sizes:     COMMON   BANK0   BANK1   BANK3   BANK2
 11944 ;;      Params:         0       4       0       0       0
 11945 ;;      Locals:         0       6       0       0       0
 11946 ;;      Temps:          0       4       0       0       0
 11947 ;;      Totals:         0      14       0       0       0
 11948 ;;Total ram usage:       14 bytes
 11949 ;; Hardware stack levels used:    1
 11950 ;; This function calls:
 11951 ;;		Nothing
 11952 ;; This function is called by:
 11953 ;;		_sprintf
 11954 ;; This function uses a non-reentrant model
 11955 ;;
 11956                           psect	text715
 11957                           	file	"C:\Program Files (x86)\HI-TECH Software\PICC\9.82\sources\fttol.c"
 11958                           	line	45
 11959                           	global	__size_of___fttol
 11960  00A6                     	__size_of___fttol	equ	__end_of___fttol-___fttol
 11961                           	
 11962  1EB2                     ___fttol:	
 11963                           	opt	stack 6
 11964                           ; Regs used in ___fttol: [wreg+status,2+status,0]
 11965                           	line	49
 11966                           	
 11967  1EB2                     l6758:	
 11968  1EB2  1283               	bcf	status, 5	;RP0=0, select bank0
 11969  1EB3  1303               	bcf	status, 6	;RP1=0, select bank0
 11970  1EB4  0827               	movf	(___fttol@f1),w
 11971  1EB5  00AB               	movwf	((??___fttol+0)+0)
 11972  1EB6  0828               	movf	(___fttol@f1+1),w
 11973  1EB7  00AC               	movwf	((??___fttol+0)+0+1)
 11974  1EB8  0829               	movf	(___fttol@f1+2),w
 11975  1EB9  00AD               	movwf	((??___fttol+0)+0+2)
 11976  1EBA  1003               	clrc
 11977  1EBB  0D2C               	rlf	(??___fttol+0)+1,w
 11978  1EBC  0D2D               	rlf	(??___fttol+0)+2,w
 11979  1EBD  00AE               	movwf	(??___fttol+3)+0
 11980  1EBE  082E               	movf	(??___fttol+3)+0,w
 11981  1EBF  00B4               	movwf	(___fttol@exp1)
 11982  1EC0  08B4               	movf	((___fttol@exp1)),f
 11983  1EC1  1D03               	skipz
 11984  1EC2  2EC4               	goto	u4271
 11985  1EC3  2EC5               	goto	u4270
 11986  1EC4                     u4271:
 11987  1EC4  2ECF               	goto	l6764
 11988  1EC5                     u4270:
 11989                           	line	50
 11990                           	
 11991  1EC5                     l6760:	
 11992  1EC5  3000               	movlw	0
 11993  1EC6  00AA               	movwf	(?___fttol+3)
 11994  1EC7  3000               	movlw	0
 11995  1EC8  00A9               	movwf	(?___fttol+2)
 11996  1EC9  3000               	movlw	0
 11997  1ECA  00A8               	movwf	(?___fttol+1)
 11998  1ECB  3000               	movlw	0
 11999  1ECC  00A7               	movwf	(?___fttol)
 12000                           
 12001  1ECD  2F57               	goto	l2994
 12002                           	
 12003  1ECE                     l6762:	
 12004  1ECE  2F57               	goto	l2994
 12005                           	
 12006  1ECF                     l2993:	
 12007                           	line	51
 12008                           	
 12009  1ECF                     l6764:	
 12010  1ECF  0827               	movf	(___fttol@f1),w
 12011  1ED0  00AB               	movwf	((??___fttol+0)+0)
 12012  1ED1  0828               	movf	(___fttol@f1+1),w
 12013  1ED2  00AC               	movwf	((??___fttol+0)+0+1)
 12014  1ED3  0829               	movf	(___fttol@f1+2),w
 12015  1ED4  00AD               	movwf	((??___fttol+0)+0+2)
 12016  1ED5  3017               	movlw	017h
 12017  1ED6                     u4285:
 12018  1ED6  1003               	clrc
 12019  1ED7  0CAD               	rrf	(??___fttol+0)+2,f
 12020  1ED8  0CAC               	rrf	(??___fttol+0)+1,f
 12021  1ED9  0CAB               	rrf	(??___fttol+0)+0,f
 12022  1EDA                     u4280:
 12023  1EDA  3EFF               	addlw	-1
 12024  1EDB  1D03               	skipz
 12025  1EDC  2ED6               	goto	u4285
 12026  1EDD  082B               	movf	0+(??___fttol+0)+0,w
 12027  1EDE  00AE               	movwf	(??___fttol+3)+0
 12028  1EDF  082E               	movf	(??___fttol+3)+0,w
 12029  1EE0  00AF               	movwf	(___fttol@sign1)
 12030                           	line	52
 12031                           	
 12032  1EE1                     l6766:	
 12033  1EE1  17A8               	bsf	(___fttol@f1)+(15/8),(15)&7
 12034                           	line	53
 12035                           	
 12036  1EE2                     l6768:	
 12037  1EE2  30FF               	movlw	0FFh
 12038  1EE3  05A7               	andwf	(___fttol@f1),f
 12039  1EE4  30FF               	movlw	0FFh
 12040  1EE5  05A8               	andwf	(___fttol@f1+1),f
 12041  1EE6  3000               	movlw	0
 12042  1EE7  05A9               	andwf	(___fttol@f1+2),f
 12043                           	line	54
 12044                           	
 12045  1EE8                     l6770:	
 12046  1EE8  0827               	movf	(___fttol@f1),w
 12047  1EE9  00B0               	movwf	(___fttol@lval)
 12048  1EEA  0828               	movf	(___fttol@f1+1),w
 12049  1EEB  00B1               	movwf	((___fttol@lval))+1
 12050  1EEC  0829               	movf	(___fttol@f1+2),w
 12051  1EED  00B2               	movwf	((___fttol@lval))+2
 12052  1EEE  01B3               	clrf	((___fttol@lval))+3
 12053                           	line	55
 12054                           	
 12055  1EEF                     l6772:	
 12056  1EEF  308E               	movlw	low(08Eh)
 12057  1EF0  02B4               	subwf	(___fttol@exp1),f
 12058                           	line	56
 12059                           	
 12060  1EF1                     l6774:	
 12061  1EF1  1FB4               	btfss	(___fttol@exp1),7
 12062  1EF2  2EF4               	goto	u4291
 12063  1EF3  2EF5               	goto	u4290
 12064  1EF4                     u4291:
 12065  1EF4  2F1A               	goto	l6784
 12066  1EF5                     u4290:
 12067                           	line	57
 12068                           	
 12069  1EF5                     l6776:	
 12070  1EF5  0834               	movf	(___fttol@exp1),w
 12071  1EF6  3A80               	xorlw	80h
 12072  1EF7  3E8F               	addlw	-((-15)^80h)
 12073  1EF8  1803               	skipnc
 12074  1EF9  2EFB               	goto	u4301
 12075  1EFA  2EFC               	goto	u4300
 12076  1EFB                     u4301:
 12077  1EFB  2F07               	goto	l6782
 12078  1EFC                     u4300:
 12079                           	line	58
 12080                           	
 12081  1EFC                     l6778:	
 12082  1EFC  3000               	movlw	0
 12083  1EFD  00AA               	movwf	(?___fttol+3)
 12084  1EFE  3000               	movlw	0
 12085  1EFF  00A9               	movwf	(?___fttol+2)
 12086  1F00  3000               	movlw	0
 12087  1F01  00A8               	movwf	(?___fttol+1)
 12088  1F02  3000               	movlw	0
 12089  1F03  00A7               	movwf	(?___fttol)
 12090                           
 12091  1F04  2F57               	goto	l2994
 12092                           	
 12093  1F05                     l6780:	
 12094  1F05  2F57               	goto	l2994
 12095                           	
 12096  1F06                     l2996:	
 12097  1F06  2F07               	goto	l6782
 12098                           	line	59
 12099                           	
 12100  1F07                     l2997:	
 12101                           	line	60
 12102                           	
 12103  1F07                     l6782:	
 12104  1F07  3001               	movlw	01h
 12105  1F08                     u4315:
 12106  1F08  1003               	clrc
 12107  1F09  0CB3               	rrf	(___fttol@lval+3),f
 12108  1F0A  0CB2               	rrf	(___fttol@lval+2),f
 12109  1F0B  0CB1               	rrf	(___fttol@lval+1),f
 12110  1F0C  0CB0               	rrf	(___fttol@lval),f
 12111  1F0D  3EFF               	addlw	-1
 12112  1F0E  1D03               	skipz
 12113  1F0F  2F08               	goto	u4315
 12114                           
 12115                           	line	61
 12116  1F10  3001               	movlw	(01h)
 12117  1F11  00AB               	movwf	(??___fttol+0)+0
 12118  1F12  082B               	movf	(??___fttol+0)+0,w
 12119  1F13  07B4               	addwf	(___fttol@exp1),f
 12120  1F14  1D03               	btfss	status,2
 12121  1F15  2F17               	goto	u4321
 12122  1F16  2F18               	goto	u4320
 12123  1F17                     u4321:
 12124  1F17  2F07               	goto	l6782
 12125  1F18                     u4320:
 12126  1F18  2F3E               	goto	l6794
 12127                           	
 12128  1F19                     l2998:	
 12129                           	line	62
 12130  1F19  2F3E               	goto	l6794
 12131                           	
 12132  1F1A                     l2995:	
 12133                           	line	63
 12134                           	
 12135  1F1A                     l6784:	
 12136  1F1A  3018               	movlw	(018h)
 12137  1F1B  0234               	subwf	(___fttol@exp1),w
 12138  1F1C  1C03               	skipc
 12139  1F1D  2F1F               	goto	u4331
 12140  1F1E  2F20               	goto	u4330
 12141  1F1F                     u4331:
 12142  1F1F  2F37               	goto	l6792
 12143  1F20                     u4330:
 12144                           	line	64
 12145                           	
 12146  1F20                     l6786:	
 12147  1F20  3000               	movlw	0
 12148  1F21  00AA               	movwf	(?___fttol+3)
 12149  1F22  3000               	movlw	0
 12150  1F23  00A9               	movwf	(?___fttol+2)
 12151  1F24  3000               	movlw	0
 12152  1F25  00A8               	movwf	(?___fttol+1)
 12153  1F26  3000               	movlw	0
 12154  1F27  00A7               	movwf	(?___fttol)
 12155                           
 12156  1F28  2F57               	goto	l2994
 12157                           	
 12158  1F29                     l6788:	
 12159  1F29  2F57               	goto	l2994
 12160                           	
 12161  1F2A                     l3000:	
 12162                           	line	65
 12163  1F2A  2F37               	goto	l6792
 12164                           	
 12165  1F2B                     l3002:	
 12166                           	line	66
 12167                           	
 12168  1F2B                     l6790:	
 12169  1F2B  3001               	movlw	01h
 12170  1F2C  00AB               	movwf	(??___fttol+0)+0
 12171  1F2D                     u4345:
 12172  1F2D  1003               	clrc
 12173  1F2E  0DB0               	rlf	(___fttol@lval),f
 12174  1F2F  0DB1               	rlf	(___fttol@lval+1),f
 12175  1F30  0DB2               	rlf	(___fttol@lval+2),f
 12176  1F31  0DB3               	rlf	(___fttol@lval+3),f
 12177  1F32  0BAB               	decfsz	(??___fttol+0)+0
 12178  1F33  2F2D               	goto	u4345
 12179                           	line	67
 12180  1F34  3001               	movlw	low(01h)
 12181  1F35  02B4               	subwf	(___fttol@exp1),f
 12182  1F36  2F37               	goto	l6792
 12183                           	line	68
 12184                           	
 12185  1F37                     l3001:	
 12186                           	line	65
 12187                           	
 12188  1F37                     l6792:	
 12189  1F37  08B4               	movf	(___fttol@exp1),f
 12190  1F38  1D03               	skipz
 12191  1F39  2F3B               	goto	u4351
 12192  1F3A  2F3C               	goto	u4350
 12193  1F3B                     u4351:
 12194  1F3B  2F2B               	goto	l6790
 12195  1F3C                     u4350:
 12196  1F3C  2F3E               	goto	l6794
 12197                           	
 12198  1F3D                     l3003:	
 12199  1F3D  2F3E               	goto	l6794
 12200                           	line	69
 12201                           	
 12202  1F3E                     l2999:	
 12203                           	line	70
 12204                           	
 12205  1F3E                     l6794:	
 12206  1F3E  082F               	movf	(___fttol@sign1),w
 12207  1F3F  1D03               	skipz
 12208  1F40  2F42               	goto	u4360
 12209  1F41  2F4E               	goto	l6798
 12210  1F42                     u4360:
 12211                           	line	71
 12212                           	
 12213  1F42                     l6796:	
 12214  1F42  09B0               	comf	(___fttol@lval),f
 12215  1F43  09B1               	comf	(___fttol@lval+1),f
 12216  1F44  09B2               	comf	(___fttol@lval+2),f
 12217  1F45  09B3               	comf	(___fttol@lval+3),f
 12218  1F46  0AB0               	incf	(___fttol@lval),f
 12219  1F47  1903               	skipnz
 12220  1F48  0AB1               	incf	(___fttol@lval+1),f
 12221  1F49  1903               	skipnz
 12222  1F4A  0AB2               	incf	(___fttol@lval+2),f
 12223  1F4B  1903               	skipnz
 12224  1F4C  0AB3               	incf	(___fttol@lval+3),f
 12225  1F4D  2F4E               	goto	l6798
 12226                           	
 12227  1F4E                     l3004:	
 12228                           	line	72
 12229                           	
 12230  1F4E                     l6798:	
 12231  1F4E  0833               	movf	(___fttol@lval+3),w
 12232  1F4F  00AA               	movwf	(?___fttol+3)
 12233  1F50  0832               	movf	(___fttol@lval+2),w
 12234  1F51  00A9               	movwf	(?___fttol+2)
 12235  1F52  0831               	movf	(___fttol@lval+1),w
 12236  1F53  00A8               	movwf	(?___fttol+1)
 12237  1F54  0830               	movf	(___fttol@lval),w
 12238  1F55  00A7               	movwf	(?___fttol)
 12239                           
 12240  1F56  2F57               	goto	l2994
 12241                           	
 12242  1F57                     l6800:	
 12243                           	line	73
 12244                           	
 12245  1F57                     l2994:	
 12246  1F57  0008               	return
 12247                           	opt stack 0
 12248                           GLOBAL	__end_of___fttol
 12249  1F58                     	__end_of___fttol:
 12250 ;; =============== function ___fttol ends ============
 12251                           
 12252                           	signat	___fttol,4220
 12253                           	global	___lmul
 12254                           psect	text716,local,class=CODE,delta=2
 12255                           global __ptext716
 12256  1A8D                     __ptext716:
 12257                           
 12258 ;; *************** function ___lmul *****************
 12259 ;; Defined at:
 12260 ;;		line 3 in file "C:\Program Files (x86)\HI-TECH Software\PICC\9.82\sources\lmul.c"
 12261 ;; Parameters:    Size  Location     Type
 12262 ;;  multiplier      4    0[COMMON] unsigned long 
 12263 ;;  multiplicand    4    4[COMMON] unsigned long 
 12264 ;; Auto vars:     Size  Location     Type
 12265 ;;  product         4    9[COMMON] unsigned long 
 12266 ;; Return value:  Size  Location     Type
 12267 ;;                  4    0[COMMON] unsigned long 
 12268 ;; Registers used:
 12269 ;;		wreg, status,2, status,0
 12270 ;; Tracked objects:
 12271 ;;		On entry : 0/0
 12272 ;;		On exit  : 0/0
 12273 ;;		Unchanged: 0/0
 12274 ;; Data sizes:     COMMON   BANK0   BANK1   BANK3   BANK2
 12275 ;;      Params:         8       0       0       0       0
 12276 ;;      Locals:         4       0       0       0       0
 12277 ;;      Temps:          1       0       0       0       0
 12278 ;;      Totals:        13       0       0       0       0
 12279 ;;Total ram usage:       13 bytes
 12280 ;; Hardware stack levels used:    1
 12281 ;; This function calls:
 12282 ;;		Nothing
 12283 ;; This function is called by:
 12284 ;;		_main
 12285 ;; This function uses a non-reentrant model
 12286 ;;
 12287                           psect	text716
 12288                           	file	"C:\Program Files (x86)\HI-TECH Software\PICC\9.82\sources\lmul.c"
 12289                           	line	3
 12290                           	global	__size_of___lmul
 12291  004A                     	__size_of___lmul	equ	__end_of___lmul-___lmul
 12292                           	
 12293  1A8D                     ___lmul:	
 12294                           	opt	stack 7
 12295                           ; Regs used in ___lmul: [wreg+status,2+status,0]
 12296                           	line	4
 12297                           	
 12298  1A8D                     l6706:	
 12299  1A8D  3000               	movlw	0
 12300  1A8E  00FC               	movwf	(___lmul@product+3)
 12301  1A8F  3000               	movlw	0
 12302  1A90  00FB               	movwf	(___lmul@product+2)
 12303  1A91  3000               	movlw	0
 12304  1A92  00FA               	movwf	(___lmul@product+1)
 12305  1A93  3000               	movlw	0
 12306  1A94  00F9               	movwf	(___lmul@product)
 12307                           
 12308  1A95  2A96               	goto	l6708
 12309                           	line	6
 12310                           	
 12311  1A96                     l2959:	
 12312                           	line	7
 12313                           	
 12314  1A96                     l6708:	
 12315  1A96  1C70               	btfss	(___lmul@multiplier),(0)&7
 12316  1A97  2A99               	goto	u4141
 12317  1A98  2A9A               	goto	u4140
 12318  1A99                     u4141:
 12319  1A99  2AB2               	goto	l6712
 12320  1A9A                     u4140:
 12321                           	line	8
 12322                           	
 12323  1A9A                     l6710:	
 12324  1A9A  0874               	movf	(___lmul@multiplicand),w
 12325  1A9B  07F9               	addwf	(___lmul@product),f
 12326  1A9C  0875               	movf	(___lmul@multiplicand+1),w
 12327  1A9D  1103               	clrz
 12328  1A9E  1803               	skipnc
 12329  1A9F  3E01               	addlw	1
 12330  1AA0  1903               	skipnz
 12331  1AA1  2AA3               	goto	u4151
 12332  1AA2  07FA               	addwf	(___lmul@product+1),f
 12333  1AA3                     u4151:
 12334  1AA3  0876               	movf	(___lmul@multiplicand+2),w
 12335  1AA4  1103               	clrz
 12336  1AA5  1803               	skipnc
 12337  1AA6  3E01               	addlw	1
 12338  1AA7  1903               	skipnz
 12339  1AA8  2AAA               	goto	u4152
 12340  1AA9  07FB               	addwf	(___lmul@product+2),f
 12341  1AAA                     u4152:
 12342  1AAA  0877               	movf	(___lmul@multiplicand+3),w
 12343  1AAB  1103               	clrz
 12344  1AAC  1803               	skipnc
 12345  1AAD  3E01               	addlw	1
 12346  1AAE  1903               	skipnz
 12347  1AAF  2AB1               	goto	u4153
 12348  1AB0  07FC               	addwf	(___lmul@product+3),f
 12349  1AB1                     u4153:
 12350                           
 12351  1AB1  2AB2               	goto	l6712
 12352                           	
 12353  1AB2                     l2960:	
 12354                           	line	9
 12355                           	
 12356  1AB2                     l6712:	
 12357  1AB2  3001               	movlw	01h
 12358  1AB3  00F8               	movwf	(??___lmul+0)+0
 12359  1AB4                     u4165:
 12360  1AB4  1003               	clrc
 12361  1AB5  0DF4               	rlf	(___lmul@multiplicand),f
 12362  1AB6  0DF5               	rlf	(___lmul@multiplicand+1),f
 12363  1AB7  0DF6               	rlf	(___lmul@multiplicand+2),f
 12364  1AB8  0DF7               	rlf	(___lmul@multiplicand+3),f
 12365  1AB9  0BF8               	decfsz	(??___lmul+0)+0
 12366  1ABA  2AB4               	goto	u4165
 12367                           	line	10
 12368                           	
 12369  1ABB                     l6714:	
 12370  1ABB  3001               	movlw	01h
 12371  1ABC                     u4175:
 12372  1ABC  1003               	clrc
 12373  1ABD  0CF3               	rrf	(___lmul@multiplier+3),f
 12374  1ABE  0CF2               	rrf	(___lmul@multiplier+2),f
 12375  1ABF  0CF1               	rrf	(___lmul@multiplier+1),f
 12376  1AC0  0CF0               	rrf	(___lmul@multiplier),f
 12377  1AC1  3EFF               	addlw	-1
 12378  1AC2  1D03               	skipz
 12379  1AC3  2ABC               	goto	u4175
 12380                           
 12381                           	line	11
 12382  1AC4  0873               	movf	(___lmul@multiplier+3),w
 12383  1AC5  0472               	iorwf	(___lmul@multiplier+2),w
 12384  1AC6  0471               	iorwf	(___lmul@multiplier+1),w
 12385  1AC7  0470               	iorwf	(___lmul@multiplier),w
 12386  1AC8  1D03               	skipz
 12387  1AC9  2ACB               	goto	u4181
 12388  1ACA  2ACC               	goto	u4180
 12389  1ACB                     u4181:
 12390  1ACB  2A96               	goto	l6708
 12391  1ACC                     u4180:
 12392  1ACC  2ACD               	goto	l6716
 12393                           	
 12394  1ACD                     l2961:	
 12395                           	line	12
 12396                           	
 12397  1ACD                     l6716:	
 12398  1ACD  087C               	movf	(___lmul@product+3),w
 12399  1ACE  00F3               	movwf	(?___lmul+3)
 12400  1ACF  087B               	movf	(___lmul@product+2),w
 12401  1AD0  00F2               	movwf	(?___lmul+2)
 12402  1AD1  087A               	movf	(___lmul@product+1),w
 12403  1AD2  00F1               	movwf	(?___lmul+1)
 12404  1AD3  0879               	movf	(___lmul@product),w
 12405  1AD4  00F0               	movwf	(?___lmul)
 12406                           
 12407  1AD5  2AD6               	goto	l2962
 12408                           	
 12409  1AD6                     l6718:	
 12410                           	line	13
 12411                           	
 12412  1AD6                     l2962:	
 12413  1AD6  0008               	return
 12414                           	opt stack 0
 12415                           GLOBAL	__end_of___lmul
 12416  1AD7                     	__end_of___lmul:
 12417 ;; =============== function ___lmul ends ============
 12418                           
 12419                           	signat	___lmul,8316
 12420                           	global	___ftpack
 12421                           psect	text717,local,class=CODE,delta=2
 12422                           global __ptext717
 12423  1DA7                     __ptext717:
 12424                           
 12425 ;; *************** function ___ftpack *****************
 12426 ;; Defined at:
 12427 ;;		line 63 in file "C:\Program Files (x86)\HI-TECH Software\PICC\9.82\sources\float.c"
 12428 ;; Parameters:    Size  Location     Type
 12429 ;;  arg             3    0[COMMON] unsigned um
 12430 ;;  exp             1    3[COMMON] unsigned char 
 12431 ;;  sign            1    4[COMMON] unsigned char 
 12432 ;; Auto vars:     Size  Location     Type
 12433 ;;		None
 12434 ;; Return value:  Size  Location     Type
 12435 ;;                  3    0[COMMON] float 
 12436 ;; Registers used:
 12437 ;;		wreg, status,2, status,0
 12438 ;; Tracked objects:
 12439 ;;		On entry : 0/0
 12440 ;;		On exit  : 0/0
 12441 ;;		Unchanged: 0/0
 12442 ;; Data sizes:     COMMON   BANK0   BANK1   BANK3   BANK2
 12443 ;;      Params:         5       0       0       0       0
 12444 ;;      Locals:         0       0       0       0       0
 12445 ;;      Temps:          3       0       0       0       0
 12446 ;;      Totals:         8       0       0       0       0
 12447 ;;Total ram usage:        8 bytes
 12448 ;; Hardware stack levels used:    1
 12449 ;; This function calls:
 12450 ;;		Nothing
 12451 ;; This function is called by:
 12452 ;;		___ftadd
 12453 ;;		___ftmul
 12454 ;;		___altoft
 12455 ;;		___lltoft
 12456 ;;		___ftdiv
 12457 ;;		___lbtoft
 12458 ;;		___abtoft
 12459 ;;		___awtoft
 12460 ;;		___lwtoft
 12461 ;;		___attoft
 12462 ;;		___lttoft
 12463 ;; This function uses a non-reentrant model
 12464 ;;
 12465                           psect	text717
 12466                           	file	"C:\Program Files (x86)\HI-TECH Software\PICC\9.82\sources\float.c"
 12467                           	line	63
 12468                           	global	__size_of___ftpack
 12469  007B                     	__size_of___ftpack	equ	__end_of___ftpack-___ftpack
 12470                           	
 12471  1DA7                     ___ftpack:	
 12472                           	opt	stack 4
 12473                           ; Regs used in ___ftpack: [wreg+status,2+status,0]
 12474                           	line	64
 12475                           	
 12476  1DA7                     l6676:	
 12477  1DA7  0873               	movf	(___ftpack@exp),w
 12478  1DA8  1D03               	skipz
 12479  1DA9  2DAB               	goto	u4030
 12480  1DAA  2DB3               	goto	l6680
 12481  1DAB                     u4030:
 12482                           	
 12483  1DAB                     l6678:	
 12484  1DAB  0872               	movf	(___ftpack@arg+2),w
 12485  1DAC  0471               	iorwf	(___ftpack@arg+1),w
 12486  1DAD  0470               	iorwf	(___ftpack@arg),w
 12487  1DAE  1D03               	skipz
 12488  1DAF  2DB1               	goto	u4041
 12489  1DB0  2DB2               	goto	u4040
 12490  1DB1                     u4041:
 12491  1DB1  2DC9               	goto	l6686
 12492  1DB2                     u4040:
 12493  1DB2  2DB3               	goto	l6680
 12494                           	
 12495  1DB3                     l3252:	
 12496                           	line	65
 12497                           	
 12498  1DB3                     l6680:	
 12499  1DB3  3000               	movlw	0x0
 12500  1DB4  00F0               	movwf	(?___ftpack)
 12501  1DB5  3000               	movlw	0x0
 12502  1DB6  00F1               	movwf	(?___ftpack+1)
 12503  1DB7  3000               	movlw	0x0
 12504  1DB8  00F2               	movwf	(?___ftpack+2)
 12505  1DB9  2E21               	goto	l3253
 12506                           	
 12507  1DBA                     l6682:	
 12508  1DBA  2E21               	goto	l3253
 12509                           	
 12510  1DBB                     l3250:	
 12511                           	line	66
 12512  1DBB  2DC9               	goto	l6686
 12513                           	
 12514  1DBC                     l3255:	
 12515                           	line	67
 12516                           	
 12517  1DBC                     l6684:	
 12518  1DBC  3001               	movlw	(01h)
 12519  1DBD  00F5               	movwf	(??___ftpack+0)+0
 12520  1DBE  0875               	movf	(??___ftpack+0)+0,w
 12521  1DBF  07F3               	addwf	(___ftpack@exp),f
 12522                           	line	68
 12523  1DC0  3001               	movlw	01h
 12524  1DC1                     u4055:
 12525  1DC1  1003               	clrc
 12526  1DC2  0CF2               	rrf	(___ftpack@arg+2),f
 12527  1DC3  0CF1               	rrf	(___ftpack@arg+1),f
 12528  1DC4  0CF0               	rrf	(___ftpack@arg),f
 12529  1DC5  3EFF               	addlw	-1
 12530  1DC6  1D03               	skipz
 12531  1DC7  2DC1               	goto	u4055
 12532                           
 12533  1DC8  2DC9               	goto	l6686
 12534                           	line	69
 12535                           	
 12536  1DC9                     l3254:	
 12537                           	line	66
 12538                           	
 12539  1DC9                     l6686:	
 12540  1DC9  30FE               	movlw	low highword(0FE0000h)
 12541  1DCA  0572               	andwf	(___ftpack@arg+2),w
 12542  1DCB  1D03               	btfss	status,2
 12543  1DCC  2DCE               	goto	u4061
 12544  1DCD  2DCF               	goto	u4060
 12545  1DCE                     u4061:
 12546  1DCE  2DBC               	goto	l6684
 12547  1DCF                     u4060:
 12548  1DCF  2DE7               	goto	l3257
 12549                           	
 12550  1DD0                     l3256:	
 12551                           	line	70
 12552  1DD0  2DE7               	goto	l3257
 12553                           	
 12554  1DD1                     l3258:	
 12555                           	line	71
 12556                           	
 12557  1DD1                     l6688:	
 12558  1DD1  3001               	movlw	(01h)
 12559  1DD2  00F5               	movwf	(??___ftpack+0)+0
 12560  1DD3  0875               	movf	(??___ftpack+0)+0,w
 12561  1DD4  07F3               	addwf	(___ftpack@exp),f
 12562                           	line	72
 12563                           	
 12564  1DD5                     l6690:	
 12565  1DD5  3001               	movlw	01h
 12566  1DD6  07F0               	addwf	(___ftpack@arg),f
 12567  1DD7  3000               	movlw	0
 12568  1DD8  1803               	skipnc
 12569  1DD9  3001               movlw 1
 12570  1DDA  07F1               	addwf	(___ftpack@arg+1),f
 12571  1DDB  3000               	movlw	0
 12572  1DDC  1803               	skipnc
 12573  1DDD  3001               movlw 1
 12574  1DDE  07F2               	addwf	(___ftpack@arg+2),f
 12575                           	line	73
 12576                           	
 12577  1DDF                     l6692:	
 12578  1DDF  3001               	movlw	01h
 12579  1DE0                     u4075:
 12580  1DE0  1003               	clrc
 12581  1DE1  0CF2               	rrf	(___ftpack@arg+2),f
 12582  1DE2  0CF1               	rrf	(___ftpack@arg+1),f
 12583  1DE3  0CF0               	rrf	(___ftpack@arg),f
 12584  1DE4  3EFF               	addlw	-1
 12585  1DE5  1D03               	skipz
 12586  1DE6  2DE0               	goto	u4075
 12587                           
 12588                           	line	74
 12589                           	
 12590  1DE7                     l3257:	
 12591                           	line	70
 12592  1DE7  30FF               	movlw	low highword(0FF0000h)
 12593  1DE8  0572               	andwf	(___ftpack@arg+2),w
 12594  1DE9  1D03               	btfss	status,2
 12595  1DEA  2DEC               	goto	u4081
 12596  1DEB  2DED               	goto	u4080
 12597  1DEC                     u4081:
 12598  1DEC  2DD1               	goto	l6688
 12599  1DED                     u4080:
 12600  1DED  2DFA               	goto	l6696
 12601                           	
 12602  1DEE                     l3259:	
 12603                           	line	75
 12604  1DEE  2DFA               	goto	l6696
 12605                           	
 12606  1DEF                     l3261:	
 12607                           	line	76
 12608                           	
 12609  1DEF                     l6694:	
 12610  1DEF  3001               	movlw	low(01h)
 12611  1DF0  02F3               	subwf	(___ftpack@exp),f
 12612                           	line	77
 12613  1DF1  3001               	movlw	01h
 12614  1DF2                     u4095:
 12615  1DF2  1003               	clrc
 12616  1DF3  0DF0               	rlf	(___ftpack@arg),f
 12617  1DF4  0DF1               	rlf	(___ftpack@arg+1),f
 12618  1DF5  0DF2               	rlf	(___ftpack@arg+2),f
 12619  1DF6  3EFF               	addlw	-1
 12620  1DF7  1D03               	skipz
 12621  1DF8  2DF2               	goto	u4095
 12622  1DF9  2DFA               	goto	l6696
 12623                           	line	78
 12624                           	
 12625  1DFA                     l3260:	
 12626                           	line	75
 12627                           	
 12628  1DFA                     l6696:	
 12629  1DFA  1FF1               	btfss	(___ftpack@arg+1),(15)&7
 12630  1DFB  2DFD               	goto	u4101
 12631  1DFC  2DFE               	goto	u4100
 12632  1DFD                     u4101:
 12633  1DFD  2DEF               	goto	l6694
 12634  1DFE                     u4100:
 12635                           	
 12636  1DFE                     l3262:	
 12637                           	line	79
 12638  1DFE  1873               	btfsc	(___ftpack@exp),(0)&7
 12639  1DFF  2E01               	goto	u4111
 12640  1E00  2E02               	goto	u4110
 12641  1E01                     u4111:
 12642  1E01  2E08               	goto	l3263
 12643  1E02                     u4110:
 12644                           	line	80
 12645                           	
 12646  1E02                     l6698:	
 12647  1E02  30FF               	movlw	0FFh
 12648  1E03  05F0               	andwf	(___ftpack@arg),f
 12649  1E04  307F               	movlw	07Fh
 12650  1E05  05F1               	andwf	(___ftpack@arg+1),f
 12651  1E06  30FF               	movlw	0FFh
 12652  1E07  05F2               	andwf	(___ftpack@arg+2),f
 12653                           	
 12654  1E08                     l3263:	
 12655                           	line	81
 12656  1E08  1003               	clrc
 12657  1E09  0CF3               	rrf	(___ftpack@exp),f
 12658                           
 12659                           	line	82
 12660                           	
 12661  1E0A                     l6700:	
 12662  1E0A  0873               	movf	(___ftpack@exp),w
 12663  1E0B  00F5               	movwf	((??___ftpack+0)+0)
 12664  1E0C  01F6               	clrf	((??___ftpack+0)+0+1)
 12665  1E0D  01F7               	clrf	((??___ftpack+0)+0+2)
 12666  1E0E  3010               	movlw	010h
 12667  1E0F                     u4125:
 12668  1E0F  1003               	clrc
 12669  1E10  0DF5               	rlf	(??___ftpack+0)+0,f
 12670  1E11  0DF6               	rlf	(??___ftpack+0)+1,f
 12671  1E12  0DF7               	rlf	(??___ftpack+0)+2,f
 12672  1E13                     u4120:
 12673  1E13  3EFF               	addlw	-1
 12674  1E14  1D03               	skipz
 12675  1E15  2E0F               	goto	u4125
 12676  1E16  0875               	movf	0+(??___ftpack+0)+0,w
 12677  1E17  04F0               	iorwf	(___ftpack@arg),f
 12678  1E18  0876               	movf	1+(??___ftpack+0)+0,w
 12679  1E19  04F1               	iorwf	(___ftpack@arg+1),f
 12680  1E1A  0877               	movf	2+(??___ftpack+0)+0,w
 12681  1E1B  04F2               	iorwf	(___ftpack@arg+2),f
 12682                           	line	83
 12683                           	
 12684  1E1C                     l6702:	
 12685  1E1C  0874               	movf	(___ftpack@sign),w
 12686  1E1D  1D03               	skipz
 12687  1E1E  2E20               	goto	u4130
 12688  1E1F  2E21               	goto	l3264
 12689  1E20                     u4130:
 12690                           	line	84
 12691                           	
 12692  1E20                     l6704:	
 12693  1E20  17F2               	bsf	(___ftpack@arg)+(23/8),(23)&7
 12694                           	
 12695  1E21                     l3264:	
 12696                           	line	85
 12697                           	line	86
 12698                           	
 12699  1E21                     l3253:	
 12700  1E21  0008               	return
 12701                           	opt stack 0
 12702                           GLOBAL	__end_of___ftpack
 12703  1E22                     	__end_of___ftpack:
 12704 ;; =============== function ___ftpack ends ============
 12705                           
 12706                           	signat	___ftpack,12411
 12707                           	global	___wmul
 12708                           psect	text718,local,class=CODE,delta=2
 12709                           global __ptext718
 12710  19D1                     __ptext718:
 12711                           
 12712 ;; *************** function ___wmul *****************
 12713 ;; Defined at:
 12714 ;;		line 3 in file "C:\Program Files (x86)\HI-TECH Software\PICC\9.82\sources\wmul.c"
 12715 ;; Parameters:    Size  Location     Type
 12716 ;;  multiplier      2    0[COMMON] unsigned int 
 12717 ;;  multiplicand    2    2[COMMON] unsigned int 
 12718 ;; Auto vars:     Size  Location     Type
 12719 ;;  product         2    4[COMMON] unsigned int 
 12720 ;; Return value:  Size  Location     Type
 12721 ;;                  2    0[COMMON] unsigned int 
 12722 ;; Registers used:
 12723 ;;		wreg, status,2, status,0
 12724 ;; Tracked objects:
 12725 ;;		On entry : 0/0
 12726 ;;		On exit  : 0/0
 12727 ;;		Unchanged: 0/0
 12728 ;; Data sizes:     COMMON   BANK0   BANK1   BANK3   BANK2
 12729 ;;      Params:         4       0       0       0       0
 12730 ;;      Locals:         2       0       0       0       0
 12731 ;;      Temps:          0       0       0       0       0
 12732 ;;      Totals:         6       0       0       0       0
 12733 ;;Total ram usage:        6 bytes
 12734 ;; Hardware stack levels used:    1
 12735 ;; This function calls:
 12736 ;;		Nothing
 12737 ;; This function is called by:
 12738 ;;		_fround
 12739 ;;		_scale
 12740 ;;		_sprintf
 12741 ;; This function uses a non-reentrant model
 12742 ;;
 12743                           psect	text718
 12744                           	file	"C:\Program Files (x86)\HI-TECH Software\PICC\9.82\sources\wmul.c"
 12745                           	line	3
 12746                           	global	__size_of___wmul
 12747  002A                     	__size_of___wmul	equ	__end_of___wmul-___wmul
 12748                           	
 12749  19D1                     ___wmul:	
 12750                           	opt	stack 6
 12751                           ; Regs used in ___wmul: [wreg+status,2+status,0]
 12752                           	line	4
 12753                           	
 12754  19D1                     l6664:	
 12755  19D1  01F4               	clrf	(___wmul@product)
 12756  19D2  01F5               	clrf	(___wmul@product+1)
 12757  19D3  29D4               	goto	l6666
 12758                           	line	6
 12759                           	
 12760  19D4                     l2884:	
 12761                           	line	7
 12762                           	
 12763  19D4                     l6666:	
 12764  19D4  1C70               	btfss	(___wmul@multiplier),(0)&7
 12765  19D5  29D7               	goto	u3991
 12766  19D6  29D8               	goto	u3990
 12767  19D7                     u3991:
 12768  19D7  29DE               	goto	l2885
 12769  19D8                     u3990:
 12770                           	line	8
 12771                           	
 12772  19D8                     l6668:	
 12773  19D8  0872               	movf	(___wmul@multiplicand),w
 12774  19D9  07F4               	addwf	(___wmul@product),f
 12775  19DA  1803               	skipnc
 12776  19DB  0AF5               	incf	(___wmul@product+1),f
 12777  19DC  0873               	movf	(___wmul@multiplicand+1),w
 12778  19DD  07F5               	addwf	(___wmul@product+1),f
 12779                           	
 12780  19DE                     l2885:	
 12781                           	line	9
 12782  19DE  3001               	movlw	01h
 12783                           	
 12784  19DF                     u4005:
 12785  19DF  1003               	clrc
 12786  19E0  0DF2               	rlf	(___wmul@multiplicand),f
 12787  19E1  0DF3               	rlf	(___wmul@multiplicand+1),f
 12788  19E2  3EFF               	addlw	-1
 12789  19E3  1D03               	skipz
 12790  19E4  29DF               	goto	u4005
 12791                           	line	10
 12792                           	
 12793  19E5                     l6670:	
 12794  19E5  3001               	movlw	01h
 12795                           	
 12796  19E6                     u4015:
 12797  19E6  1003               	clrc
 12798  19E7  0CF1               	rrf	(___wmul@multiplier+1),f
 12799  19E8  0CF0               	rrf	(___wmul@multiplier),f
 12800  19E9  3EFF               	addlw	-1
 12801  19EA  1D03               	skipz
 12802  19EB  29E6               	goto	u4015
 12803                           	line	11
 12804  19EC  0871               	movf	((___wmul@multiplier+1)),w
 12805  19ED  0470               	iorwf	((___wmul@multiplier)),w
 12806  19EE  1D03               	skipz
 12807  19EF  29F1               	goto	u4021
 12808  19F0  29F2               	goto	u4020
 12809  19F1                     u4021:
 12810  19F1  29D4               	goto	l6666
 12811  19F2                     u4020:
 12812  19F2  29F3               	goto	l6672
 12813                           	
 12814  19F3                     l2886:	
 12815                           	line	12
 12816                           	
 12817  19F3                     l6672:	
 12818  19F3  0875               	movf	(___wmul@product+1),w
 12819  19F4  01F1               	clrf	(?___wmul+1)
 12820  19F5  07F1               	addwf	(?___wmul+1)
 12821  19F6  0874               	movf	(___wmul@product),w
 12822  19F7  01F0               	clrf	(?___wmul)
 12823  19F8  07F0               	addwf	(?___wmul)
 12824                           
 12825  19F9  29FA               	goto	l2887
 12826                           	
 12827  19FA                     l6674:	
 12828                           	line	13
 12829                           	
 12830  19FA                     l2887:	
 12831  19FA  0008               	return
 12832                           	opt stack 0
 12833                           GLOBAL	__end_of___wmul
 12834  19FB                     	__end_of___wmul:
 12835 ;; =============== function ___wmul ends ============
 12836                           
 12837                           	signat	___wmul,8314
 12838                           	global	___bmul
 12839                           psect	text719,local,class=CODE,delta=2
 12840                           global __ptext719
 12841  0004                     __ptext719:
 12842                           
 12843 ;; *************** function ___bmul *****************
 12844 ;; Defined at:
 12845 ;;		line 3 in file "C:\Program Files (x86)\HI-TECH Software\PICC\9.82\sources\bmul.c"
 12846 ;; Parameters:    Size  Location     Type
 12847 ;;  multiplier      1    wreg     unsigned char 
 12848 ;;  multiplicand    1    4[BANK0 ] unsigned char 
 12849 ;; Auto vars:     Size  Location     Type
 12850 ;;  multiplier      1    6[BANK0 ] unsigned char 
 12851 ;;  product         1    5[BANK0 ] unsigned char 
 12852 ;; Return value:  Size  Location     Type
 12853 ;;                  1    wreg      unsigned char 
 12854 ;; Registers used:
 12855 ;;		wreg, status,2, status,0
 12856 ;; Tracked objects:
 12857 ;;		On entry : 0/0
 12858 ;;		On exit  : 0/0
 12859 ;;		Unchanged: 0/0
 12860 ;; Data sizes:     COMMON   BANK0   BANK1   BANK3   BANK2
 12861 ;;      Params:         0       1       0       0       0
 12862 ;;      Locals:         0       2       0       0       0
 12863 ;;      Temps:          1       0       0       0       0
 12864 ;;      Totals:         1       3       0       0       0
 12865 ;;Total ram usage:        4 bytes
 12866 ;; Hardware stack levels used:    1
 12867 ;; This function calls:
 12868 ;;		Nothing
 12869 ;; This function is called by:
 12870 ;;		_disp_num
 12871 ;;		_fround
 12872 ;;		_scale
 12873 ;; This function uses a non-reentrant model
 12874 ;;
 12875                           psect	text719
 12876                           	file	"C:\Program Files (x86)\HI-TECH Software\PICC\9.82\sources\bmul.c"
 12877                           	line	3
 12878                           	global	__size_of___bmul
 12879  001A                     	__size_of___bmul	equ	__end_of___bmul-___bmul
 12880                           	
 12881  0004                     ___bmul:	
 12882                           	opt	stack 5
 12883                           ; Regs used in ___bmul: [wreg+status,2+status,0]
 12884                           ;___bmul@multiplier stored from wreg
 12885  0004  1283               	bcf	status, 5	;RP0=0, select bank0
 12886  0005  1303               	bcf	status, 6	;RP1=0, select bank0
 12887  0006  00A6               	movwf	(___bmul@multiplier)
 12888                           	line	4
 12889                           	
 12890  0007                     l6650:	
 12891  0007  01A5               	clrf	(___bmul@product)
 12892                           	line	6
 12893                           	
 12894  0008                     l2878:	
 12895                           	line	7
 12896  0008  1C26               	btfss	(___bmul@multiplier),(0)&7
 12897  0009  280B               	goto	u3971
 12898  000A  280C               	goto	u3970
 12899  000B                     u3971:
 12900  000B  2811               	goto	l6654
 12901  000C                     u3970:
 12902                           	line	8
 12903                           	
 12904  000C                     l6652:	
 12905  000C  0824               	movf	(___bmul@multiplicand),w
 12906  000D  00FC               	movwf	(??___bmul+0)+0
 12907  000E  087C               	movf	(??___bmul+0)+0,w
 12908  000F  07A5               	addwf	(___bmul@product),f
 12909  0010  2811               	goto	l6654
 12910                           	
 12911  0011                     l2879:	
 12912                           	line	9
 12913                           	
 12914  0011                     l6654:	
 12915  0011  1003               	clrc
 12916  0012  0DA4               	rlf	(___bmul@multiplicand),f
 12917                           
 12918                           	line	10
 12919                           	
 12920  0013                     l6656:	
 12921  0013  1003               	clrc
 12922  0014  0CA6               	rrf	(___bmul@multiplier),f
 12923                           
 12924                           	line	11
 12925                           	
 12926  0015                     l6658:	
 12927  0015  08A6               	movf	(___bmul@multiplier),f
 12928  0016  1D03               	skipz
 12929  0017  2819               	goto	u3981
 12930  0018  281A               	goto	u3980
 12931  0019                     u3981:
 12932  0019  2808               	goto	l2878
 12933  001A                     u3980:
 12934  001A  281B               	goto	l6660
 12935                           	
 12936  001B                     l2880:	
 12937                           	line	12
 12938                           	
 12939  001B                     l6660:	
 12940  001B  0825               	movf	(___bmul@product),w
 12941  001C  281D               	goto	l2881
 12942                           	
 12943  001D                     l6662:	
 12944                           	line	13
 12945                           	
 12946  001D                     l2881:	
 12947  001D  0008               	return
 12948                           	opt stack 0
 12949                           GLOBAL	__end_of___bmul
 12950  001E                     	__end_of___bmul:
 12951 ;; =============== function ___bmul ends ============
 12952                           
 12953                           	signat	___bmul,8313
 12954                           	global	__div_to_l_
 12955                           psect	text720,local,class=CODE,delta=2
 12956                           global __ptext720
 12957  132C                     __ptext720:
 12958                           
 12959 ;; *************** function __div_to_l_ *****************
 12960 ;; Defined at:
 12961 ;;		line 61 in file "C:\Program Files (x86)\HI-TECH Software\PICC\9.82\sources\fldivl.c"
 12962 ;; Parameters:    Size  Location     Type
 12963 ;;  f1              3    0[COMMON] unsigned char 
 12964 ;;  f2              3    3[COMMON] unsigned char 
 12965 ;; Auto vars:     Size  Location     Type
 12966 ;;  quot            4    0[BANK0 ] unsigned long 
 12967 ;;  exp1            1    5[BANK0 ] unsigned char 
 12968 ;;  cntr            1    4[BANK0 ] unsigned char 
 12969 ;; Return value:  Size  Location     Type
 12970 ;;                  4    0[COMMON] unsigned long 
 12971 ;; Registers used:
 12972 ;;		wreg, fsr0l, fsr0h, status,2, status,0
 12973 ;; Tracked objects:
 12974 ;;		On entry : 0/0
 12975 ;;		On exit  : 0/0
 12976 ;;		Unchanged: 0/0
 12977 ;; Data sizes:     COMMON   BANK0   BANK1   BANK3   BANK2
 12978 ;;      Params:         6       0       0       0       0
 12979 ;;      Locals:         0       6       0       0       0
 12980 ;;      Temps:          8       0       0       0       0
 12981 ;;      Totals:        14       6       0       0       0
 12982 ;;Total ram usage:       20 bytes
 12983 ;; Hardware stack levels used:    1
 12984 ;; This function calls:
 12985 ;;		Nothing
 12986 ;; This function is called by:
 12987 ;;		_sprintf
 12988 ;; This function uses a non-reentrant model
 12989 ;;
 12990                           psect	text720
 12991                           	file	"C:\Program Files (x86)\HI-TECH Software\PICC\9.82\sources\fldivl.c"
 12992                           	line	61
 12993                           	global	__size_of__div_to_l_
 12994  0154                     	__size_of__div_to_l_	equ	__end_of__div_to_l_-__div_to_l_
 12995                           	
 12996  132C                     __div_to_l_:	
 12997                           	opt	stack 6
 12998                           ; Regs used in __div_to_l_: [wreg-fsr0h+status,2+status,0]
 12999                           	line	66
 13000                           	
 13001  132C                     l6596:	
 13002  132C  3070               	movlw	low(__div_to_l_@f1)
 13003  132D  0084               	movwf	fsr0
 13004  132E  0800               	movf	indf,w
 13005  132F  00F6               	movwf	(??__div_to_l_+0)+0+0
 13006  1330  0A84               	incf	fsr0,f
 13007  1331  0800               	movf	indf,w
 13008  1332  00F7               	movwf	(??__div_to_l_+0)+0+1
 13009  1333  0A84               	incf	fsr0,f
 13010  1334  0800               	movf	indf,w
 13011  1335  00F8               	movwf	(??__div_to_l_+0)+0+2
 13012  1336  0A84               	incf	fsr0,f
 13013  1337  0800               	movf	indf,w
 13014  1338  00F9               	movwf	(??__div_to_l_+0)+0+3
 13015  1339  1003               	clrc
 13016  133A  0D78               	rlf	(??__div_to_l_+0)+2,w
 13017  133B  0D79               	rlf	(??__div_to_l_+0)+3,w
 13018  133C  00FA               	movwf	(??__div_to_l_+4)+0
 13019  133D  087A               	movf	(??__div_to_l_+4)+0,w
 13020  133E  1283               	bcf	status, 5	;RP0=0, select bank0
 13021  133F  1303               	bcf	status, 6	;RP1=0, select bank0
 13022  1340  00A5               	movwf	(__div_to_l_@exp1)
 13023  1341  08A5               	movf	((__div_to_l_@exp1)),f
 13024  1342  1D03               	skipz
 13025  1343  2B45               	goto	u3841
 13026  1344  2B46               	goto	u3840
 13027  1345                     u3841:
 13028  1345  2B50               	goto	l6602
 13029  1346                     u3840:
 13030                           	line	67
 13031                           	
 13032  1346                     l6598:	
 13033  1346  3000               	movlw	0
 13034  1347  00F3               	movwf	(?__div_to_l_+3)
 13035  1348  3000               	movlw	0
 13036  1349  00F2               	movwf	(?__div_to_l_+2)
 13037  134A  3000               	movlw	0
 13038  134B  00F1               	movwf	(?__div_to_l_+1)
 13039  134C  3000               	movlw	0
 13040  134D  00F0               	movwf	(?__div_to_l_)
 13041                           
 13042  134E  2C7F               	goto	l3171
 13043                           	
 13044  134F                     l6600:	
 13045  134F  2C7F               	goto	l3171
 13046                           	
 13047  1350                     l3170:	
 13048                           	line	68
 13049                           	
 13050  1350                     l6602:	
 13051  1350  3073               	movlw	low(__div_to_l_@f2)
 13052  1351  0084               	movwf	fsr0
 13053  1352  0800               	movf	indf,w
 13054  1353  00F6               	movwf	(??__div_to_l_+0)+0+0
 13055  1354  0A84               	incf	fsr0,f
 13056  1355  0800               	movf	indf,w
 13057  1356  00F7               	movwf	(??__div_to_l_+0)+0+1
 13058  1357  0A84               	incf	fsr0,f
 13059  1358  0800               	movf	indf,w
 13060  1359  00F8               	movwf	(??__div_to_l_+0)+0+2
 13061  135A  0A84               	incf	fsr0,f
 13062  135B  0800               	movf	indf,w
 13063  135C  00F9               	movwf	(??__div_to_l_+0)+0+3
 13064  135D  1003               	clrc
 13065  135E  0D78               	rlf	(??__div_to_l_+0)+2,w
 13066  135F  0D79               	rlf	(??__div_to_l_+0)+3,w
 13067  1360  00FA               	movwf	(??__div_to_l_+4)+0
 13068  1361  087A               	movf	(??__div_to_l_+4)+0,w
 13069  1362  00A4               	movwf	(__div_to_l_@cntr)
 13070  1363  08A4               	movf	((__div_to_l_@cntr)),f
 13071  1364  1D03               	skipz
 13072  1365  2B67               	goto	u3851
 13073  1366  2B68               	goto	u3850
 13074  1367                     u3851:
 13075  1367  2B72               	goto	l6608
 13076  1368                     u3850:
 13077                           	line	69
 13078                           	
 13079  1368                     l6604:	
 13080  1368  3000               	movlw	0
 13081  1369  00F3               	movwf	(?__div_to_l_+3)
 13082  136A  3000               	movlw	0
 13083  136B  00F2               	movwf	(?__div_to_l_+2)
 13084  136C  3000               	movlw	0
 13085  136D  00F1               	movwf	(?__div_to_l_+1)
 13086  136E  3000               	movlw	0
 13087  136F  00F0               	movwf	(?__div_to_l_)
 13088                           
 13089  1370  2C7F               	goto	l3171
 13090                           	
 13091  1371                     l6606:	
 13092  1371  2C7F               	goto	l3171
 13093                           	
 13094  1372                     l3172:	
 13095                           	line	70
 13096                           	
 13097  1372                     l6608:	
 13098  1372  3070               	movlw	low(__div_to_l_@f1)
 13099  1373  0084               	movwf	fsr0
 13100  1374  3000               	movlw	0
 13101  1375  0480               	iorwf	indf,f
 13102  1376  0A84               	incf	fsr0,f
 13103  1377  3000               	movlw	0
 13104  1378  0480               	iorwf	indf,f
 13105  1379  0A84               	incf	fsr0,f
 13106  137A  3080               	movlw	080h
 13107  137B  0480               	iorwf	indf,f
 13108  137C  0A84               	incf	fsr0,f
 13109  137D  3000               	movlw	0
 13110  137E  0480               	iorwf	indf,f
 13111                           	line	71
 13112  137F  3070               	movlw	low(__div_to_l_@f1)
 13113  1380  0084               	movwf	fsr0
 13114  1381  30FF               	movlw	0FFh
 13115  1382  0580               	andwf	indf,f
 13116  1383  0A84               	incf	fsr0,f
 13117  1384  30FF               	movlw	0FFh
 13118  1385  0580               	andwf	indf,f
 13119  1386  0A84               	incf	fsr0,f
 13120  1387  30FF               	movlw	0FFh
 13121  1388  0580               	andwf	indf,f
 13122  1389  0A84               	incf	fsr0,f
 13123  138A  3000               	movlw	0
 13124  138B  0580               	andwf	indf,f
 13125                           	line	72
 13126  138C  3073               	movlw	low(__div_to_l_@f2)
 13127  138D  0084               	movwf	fsr0
 13128  138E  3000               	movlw	0
 13129  138F  0480               	iorwf	indf,f
 13130  1390  0A84               	incf	fsr0,f
 13131  1391  3000               	movlw	0
 13132  1392  0480               	iorwf	indf,f
 13133  1393  0A84               	incf	fsr0,f
 13134  1394  3080               	movlw	080h
 13135  1395  0480               	iorwf	indf,f
 13136  1396  0A84               	incf	fsr0,f
 13137  1397  3000               	movlw	0
 13138  1398  0480               	iorwf	indf,f
 13139                           	line	73
 13140  1399  3073               	movlw	low(__div_to_l_@f2)
 13141  139A  0084               	movwf	fsr0
 13142  139B  30FF               	movlw	0FFh
 13143  139C  0580               	andwf	indf,f
 13144  139D  0A84               	incf	fsr0,f
 13145  139E  30FF               	movlw	0FFh
 13146  139F  0580               	andwf	indf,f
 13147  13A0  0A84               	incf	fsr0,f
 13148  13A1  30FF               	movlw	0FFh
 13149  13A2  0580               	andwf	indf,f
 13150  13A3  0A84               	incf	fsr0,f
 13151  13A4  3000               	movlw	0
 13152  13A5  0580               	andwf	indf,f
 13153                           	line	74
 13154                           	
 13155  13A6                     l6610:	
 13156  13A6  3000               	movlw	0
 13157  13A7  00A3               	movwf	(__div_to_l_@quot+3)
 13158  13A8  3000               	movlw	0
 13159  13A9  00A2               	movwf	(__div_to_l_@quot+2)
 13160  13AA  3000               	movlw	0
 13161  13AB  00A1               	movwf	(__div_to_l_@quot+1)
 13162  13AC  3000               	movlw	0
 13163  13AD  00A0               	movwf	(__div_to_l_@quot)
 13164                           
 13165                           	line	75
 13166                           	
 13167  13AE                     l6612:	
 13168  13AE  307F               	movlw	low(07Fh)
 13169  13AF  02A5               	subwf	(__div_to_l_@exp1),f
 13170                           	line	76
 13171                           	
 13172  13B0                     l6614:	
 13173  13B0  30A0               	movlw	(0A0h)
 13174  13B1  0724               	addwf	(__div_to_l_@cntr),w
 13175  13B2  00F6               	movwf	(??__div_to_l_+0)+0
 13176  13B3  0876               	movf	0+(??__div_to_l_+0)+0,w
 13177  13B4  02A5               	subwf	(__div_to_l_@exp1),f
 13178                           	line	77
 13179                           	
 13180  13B5                     l6616:	
 13181  13B5  3020               	movlw	(020h)
 13182  13B6  00F6               	movwf	(??__div_to_l_+0)+0
 13183  13B7  0876               	movf	(??__div_to_l_+0)+0,w
 13184  13B8  00A4               	movwf	(__div_to_l_@cntr)
 13185  13B9  2BBA               	goto	l6618
 13186                           	line	78
 13187                           	
 13188  13BA                     l3173:	
 13189                           	line	79
 13190                           	
 13191  13BA                     l6618:	
 13192  13BA  3001               	movlw	01h
 13193  13BB  00F6               	movwf	(??__div_to_l_+0)+0
 13194  13BC                     u3865:
 13195  13BC  1003               	clrc
 13196  13BD  0DA0               	rlf	(__div_to_l_@quot),f
 13197  13BE  0DA1               	rlf	(__div_to_l_@quot+1),f
 13198  13BF  0DA2               	rlf	(__div_to_l_@quot+2),f
 13199  13C0  0DA3               	rlf	(__div_to_l_@quot+3),f
 13200  13C1  0BF6               	decfsz	(??__div_to_l_+0)+0
 13201  13C2  2BBC               	goto	u3865
 13202                           	line	80
 13203                           	
 13204  13C3                     l6620:	
 13205  13C3  3073               	movlw	low(__div_to_l_@f2)
 13206  13C4  0084               	movwf	fsr0
 13207  13C5  0800               	movf	indf,w
 13208  13C6  00F6               	movwf	(??__div_to_l_+0)+0+0
 13209  13C7  0A84               	incf	fsr0,f
 13210  13C8  0800               	movf	indf,w
 13211  13C9  00F7               	movwf	(??__div_to_l_+0)+0+1
 13212  13CA  0A84               	incf	fsr0,f
 13213  13CB  0800               	movf	indf,w
 13214  13CC  00F8               	movwf	(??__div_to_l_+0)+0+2
 13215  13CD  0A84               	incf	fsr0,f
 13216  13CE  0800               	movf	indf,w
 13217  13CF  00F9               	movwf	(??__div_to_l_+0)+0+3
 13218  13D0  3070               	movlw	low(__div_to_l_@f1)
 13219  13D1  0084               	movwf	fsr0
 13220  13D2  0800               	movf	indf,w
 13221  13D3  00FA               	movwf	(??__div_to_l_+4)+0+0
 13222  13D4  0A84               	incf	fsr0,f
 13223  13D5  0800               	movf	indf,w
 13224  13D6  00FB               	movwf	(??__div_to_l_+4)+0+1
 13225  13D7  0A84               	incf	fsr0,f
 13226  13D8  0800               	movf	indf,w
 13227  13D9  00FC               	movwf	(??__div_to_l_+4)+0+2
 13228  13DA  0A84               	incf	fsr0,f
 13229  13DB  0800               	movf	indf,w
 13230  13DC  00FD               	movwf	(??__div_to_l_+4)+0+3
 13231  13DD  0879               	movf	3+(??__div_to_l_+0)+0,w
 13232  13DE  027D               	subwf	3+(??__div_to_l_+4)+0,w
 13233  13DF  1D03               	skipz
 13234  13E0  2BEB               	goto	u3875
 13235  13E1  0878               	movf	2+(??__div_to_l_+0)+0,w
 13236  13E2  027C               	subwf	2+(??__div_to_l_+4)+0,w
 13237  13E3  1D03               	skipz
 13238  13E4  2BEB               	goto	u3875
 13239  13E5  0877               	movf	1+(??__div_to_l_+0)+0,w
 13240  13E6  027B               	subwf	1+(??__div_to_l_+4)+0,w
 13241  13E7  1D03               	skipz
 13242  13E8  2BEB               	goto	u3875
 13243  13E9  0876               	movf	0+(??__div_to_l_+0)+0,w
 13244  13EA  027A               	subwf	0+(??__div_to_l_+4)+0,w
 13245  13EB                     u3875:
 13246  13EB  1C03               	skipc
 13247  13EC  2BEE               	goto	u3871
 13248  13ED  2BEF               	goto	u3870
 13249  13EE                     u3871:
 13250  13EE  2C12               	goto	l3174
 13251  13EF                     u3870:
 13252                           	line	81
 13253                           	
 13254  13EF                     l6622:	
 13255  13EF  3073               	movlw	low(__div_to_l_@f2)
 13256  13F0  0084               	movwf	fsr0
 13257  13F1  0800               	movf	indf,w
 13258  13F2  00F6               	movwf	(??__div_to_l_+0)+0+0
 13259  13F3  0A84               	incf	fsr0,f
 13260  13F4  0800               	movf	indf,w
 13261  13F5  00F7               	movwf	(??__div_to_l_+0)+0+1
 13262  13F6  0A84               	incf	fsr0,f
 13263  13F7  0800               	movf	indf,w
 13264  13F8  00F8               	movwf	(??__div_to_l_+0)+0+2
 13265  13F9  0A84               	incf	fsr0,f
 13266  13FA  0800               	movf	indf,w
 13267  13FB  00F9               	movwf	(??__div_to_l_+0)+0+3
 13268  13FC  3070               	movlw	low(__div_to_l_@f1)
 13269  13FD  0084               	movwf	fsr0
 13270  13FE  0876               	movf	0+(??__div_to_l_+0)+0,w
 13271  13FF  0280               	subwf	indf,f
 13272  1400  0A84               	incf	fsr0
 13273  1401  0877               	movf	1+(??__div_to_l_+0)+0,w
 13274  1402  1C03               	skipc
 13275  1403  0F77               	incfsz	1+(??__div_to_l_+0)+0,w
 13276  1404  0280               	subwf	indf,f
 13277  1405  0A84               	incf	fsr0
 13278  1406  0878               	movf	2+(??__div_to_l_+0)+0,w
 13279  1407  1C03               	skipc
 13280  1408  0F78               	incfsz	2+(??__div_to_l_+0)+0,w
 13281  1409  0280               	subwf	indf,f
 13282  140A  0A84               	incf	fsr0
 13283  140B  0879               	movf	3+(??__div_to_l_+0)+0,w
 13284  140C  1C03               	skipc
 13285  140D  0A79               	incf	3+(??__div_to_l_+0)+0,w
 13286  140E  0280               	subwf	indf,f
 13287  140F  3003               	movlw	3
 13288  1410  0284               	subwf	fsr0
 13289                           	line	82
 13290                           	
 13291  1411                     l6624:	
 13292  1411  1420               	bsf	(__div_to_l_@quot)+(0/8),(0)&7
 13293                           	line	83
 13294                           	
 13295  1412                     l3174:	
 13296                           	line	84
 13297  1412  3070               	movlw	low(__div_to_l_@f1)
 13298  1413  0084               	movwf	fsr0
 13299  1414  3001               	movlw	01h
 13300  1415                     u3885:
 13301  1415  1003               	clrc
 13302  1416  0D80               	rlf	indf,f
 13303  1417  0A84               	incf	fsr0,f
 13304  1418  0D80               	rlf	indf,f
 13305  1419  0A84               	incf	fsr0,f
 13306  141A  0D80               	rlf	indf,f
 13307  141B  0A84               	incf	fsr0,f
 13308  141C  0D80               	rlf	indf,f
 13309  141D  0384               	decf	fsr0,f
 13310  141E  0384               	decf	fsr0,f
 13311  141F  0384               	decf	fsr0,f
 13312  1420  3EFF               	addlw	-1
 13313  1421  1D03               	skipz
 13314  1422  2C15               	goto	u3885
 13315                           	line	85
 13316                           	
 13317  1423                     l6626:	
 13318  1423  3001               	movlw	low(01h)
 13319  1424  02A4               	subwf	(__div_to_l_@cntr),f
 13320  1425  1D03               	btfss	status,2
 13321  1426  2C28               	goto	u3891
 13322  1427  2C29               	goto	u3890
 13323  1428                     u3891:
 13324  1428  2BBA               	goto	l6618
 13325  1429                     u3890:
 13326                           	
 13327  1429                     l3175:	
 13328                           	line	86
 13329  1429  1FA5               	btfss	(__div_to_l_@exp1),7
 13330  142A  2C2C               	goto	u3901
 13331  142B  2C2D               	goto	u3900
 13332  142C                     u3901:
 13333  142C  2C52               	goto	l6636
 13334  142D                     u3900:
 13335                           	line	87
 13336                           	
 13337  142D                     l6628:	
 13338  142D  0825               	movf	(__div_to_l_@exp1),w
 13339  142E  3A80               	xorlw	80h
 13340  142F  3E9F               	addlw	-((-31)^80h)
 13341  1430  1803               	skipnc
 13342  1431  2C33               	goto	u3911
 13343  1432  2C34               	goto	u3910
 13344  1433                     u3911:
 13345  1433  2C3F               	goto	l6634
 13346  1434                     u3910:
 13347                           	line	88
 13348                           	
 13349  1434                     l6630:	
 13350  1434  3000               	movlw	0
 13351  1435  00F3               	movwf	(?__div_to_l_+3)
 13352  1436  3000               	movlw	0
 13353  1437  00F2               	movwf	(?__div_to_l_+2)
 13354  1438  3000               	movlw	0
 13355  1439  00F1               	movwf	(?__div_to_l_+1)
 13356  143A  3000               	movlw	0
 13357  143B  00F0               	movwf	(?__div_to_l_)
 13358                           
 13359  143C  2C7F               	goto	l3171
 13360                           	
 13361  143D                     l6632:	
 13362  143D  2C7F               	goto	l3171
 13363                           	
 13364  143E                     l3177:	
 13365  143E  2C3F               	goto	l6634
 13366                           	line	89
 13367                           	
 13368  143F                     l3178:	
 13369                           	line	90
 13370                           	
 13371  143F                     l6634:	
 13372  143F  3001               	movlw	01h
 13373  1440                     u3925:
 13374  1440  1003               	clrc
 13375  1441  0CA3               	rrf	(__div_to_l_@quot+3),f
 13376  1442  0CA2               	rrf	(__div_to_l_@quot+2),f
 13377  1443  0CA1               	rrf	(__div_to_l_@quot+1),f
 13378  1444  0CA0               	rrf	(__div_to_l_@quot),f
 13379  1445  3EFF               	addlw	-1
 13380  1446  1D03               	skipz
 13381  1447  2C40               	goto	u3925
 13382                           
 13383                           	line	91
 13384  1448  3001               	movlw	(01h)
 13385  1449  00F6               	movwf	(??__div_to_l_+0)+0
 13386  144A  0876               	movf	(??__div_to_l_+0)+0,w
 13387  144B  07A5               	addwf	(__div_to_l_@exp1),f
 13388  144C  1D03               	btfss	status,2
 13389  144D  2C4F               	goto	u3931
 13390  144E  2C50               	goto	u3930
 13391  144F                     u3931:
 13392  144F  2C3F               	goto	l6634
 13393  1450                     u3930:
 13394  1450  2C76               	goto	l6646
 13395                           	
 13396  1451                     l3179:	
 13397                           	line	92
 13398  1451  2C76               	goto	l6646
 13399                           	
 13400  1452                     l3176:	
 13401                           	line	93
 13402                           	
 13403  1452                     l6636:	
 13404  1452  3020               	movlw	(020h)
 13405  1453  0225               	subwf	(__div_to_l_@exp1),w
 13406  1454  1C03               	skipc
 13407  1455  2C57               	goto	u3941
 13408  1456  2C58               	goto	u3940
 13409  1457                     u3941:
 13410  1457  2C6F               	goto	l6644
 13411  1458                     u3940:
 13412                           	line	94
 13413                           	
 13414  1458                     l6638:	
 13415  1458  3000               	movlw	0
 13416  1459  00F3               	movwf	(?__div_to_l_+3)
 13417  145A  3000               	movlw	0
 13418  145B  00F2               	movwf	(?__div_to_l_+2)
 13419  145C  3000               	movlw	0
 13420  145D  00F1               	movwf	(?__div_to_l_+1)
 13421  145E  3000               	movlw	0
 13422  145F  00F0               	movwf	(?__div_to_l_)
 13423                           
 13424  1460  2C7F               	goto	l3171
 13425                           	
 13426  1461                     l6640:	
 13427  1461  2C7F               	goto	l3171
 13428                           	
 13429  1462                     l3181:	
 13430                           	line	95
 13431  1462  2C6F               	goto	l6644
 13432                           	
 13433  1463                     l3183:	
 13434                           	line	96
 13435                           	
 13436  1463                     l6642:	
 13437  1463  3001               	movlw	01h
 13438  1464  00F6               	movwf	(??__div_to_l_+0)+0
 13439  1465                     u3955:
 13440  1465  1003               	clrc
 13441  1466  0DA0               	rlf	(__div_to_l_@quot),f
 13442  1467  0DA1               	rlf	(__div_to_l_@quot+1),f
 13443  1468  0DA2               	rlf	(__div_to_l_@quot+2),f
 13444  1469  0DA3               	rlf	(__div_to_l_@quot+3),f
 13445  146A  0BF6               	decfsz	(??__div_to_l_+0)+0
 13446  146B  2C65               	goto	u3955
 13447                           	line	97
 13448  146C  3001               	movlw	low(01h)
 13449  146D  02A5               	subwf	(__div_to_l_@exp1),f
 13450  146E  2C6F               	goto	l6644
 13451                           	line	98
 13452                           	
 13453  146F                     l3182:	
 13454                           	line	95
 13455                           	
 13456  146F                     l6644:	
 13457  146F  08A5               	movf	(__div_to_l_@exp1),f
 13458  1470  1D03               	skipz
 13459  1471  2C73               	goto	u3961
 13460  1472  2C74               	goto	u3960
 13461  1473                     u3961:
 13462  1473  2C63               	goto	l6642
 13463  1474                     u3960:
 13464  1474  2C76               	goto	l6646
 13465                           	
 13466  1475                     l3184:	
 13467  1475  2C76               	goto	l6646
 13468                           	line	99
 13469                           	
 13470  1476                     l3180:	
 13471                           	line	100
 13472                           	
 13473  1476                     l6646:	
 13474  1476  0823               	movf	(__div_to_l_@quot+3),w
 13475  1477  00F3               	movwf	(?__div_to_l_+3)
 13476  1478  0822               	movf	(__div_to_l_@quot+2),w
 13477  1479  00F2               	movwf	(?__div_to_l_+2)
 13478  147A  0821               	movf	(__div_to_l_@quot+1),w
 13479  147B  00F1               	movwf	(?__div_to_l_+1)
 13480  147C  0820               	movf	(__div_to_l_@quot),w
 13481  147D  00F0               	movwf	(?__div_to_l_)
 13482                           
 13483  147E  2C7F               	goto	l3171
 13484                           	
 13485  147F                     l6648:	
 13486                           	line	101
 13487                           	
 13488  147F                     l3171:	
 13489  147F  0008               	return
 13490                           	opt stack 0
 13491                           GLOBAL	__end_of__div_to_l_
 13492  1480                     	__end_of__div_to_l_:
 13493 ;; =============== function __div_to_l_ ends ============
 13494                           
 13495                           	signat	__div_to_l_,8316
 13496                           	global	__tdiv_to_l_
 13497                           psect	text721,local,class=CODE,delta=2
 13498                           global __ptext721
 13499  0831                     __ptext721:
 13500                           
 13501 ;; *************** function __tdiv_to_l_ *****************
 13502 ;; Defined at:
 13503 ;;		line 61 in file "C:\Program Files (x86)\HI-TECH Software\PICC\9.82\sources\ftdivl.c"
 13504 ;; Parameters:    Size  Location     Type
 13505 ;;  f1              3    0[COMMON] float 
 13506 ;;  f2              3    3[COMMON] float 
 13507 ;; Auto vars:     Size  Location     Type
 13508 ;;  quot            4    0[BANK0 ] unsigned long 
 13509 ;;  exp1            1    5[BANK0 ] unsigned char 
 13510 ;;  cntr            1    4[BANK0 ] unsigned char 
 13511 ;; Return value:  Size  Location     Type
 13512 ;;                  4    0[COMMON] unsigned long 
 13513 ;; Registers used:
 13514 ;;		wreg, status,2, status,0
 13515 ;; Tracked objects:
 13516 ;;		On entry : 0/0
 13517 ;;		On exit  : 0/0
 13518 ;;		Unchanged: 0/0
 13519 ;; Data sizes:     COMMON   BANK0   BANK1   BANK3   BANK2
 13520 ;;      Params:         6       0       0       0       0
 13521 ;;      Locals:         0       6       0       0       0
 13522 ;;      Temps:          4       0       0       0       0
 13523 ;;      Totals:        10       6       0       0       0
 13524 ;;Total ram usage:       16 bytes
 13525 ;; Hardware stack levels used:    1
 13526 ;; This function calls:
 13527 ;;		Nothing
 13528 ;; This function is called by:
 13529 ;;		_sprintf
 13530 ;; This function uses a non-reentrant model
 13531 ;;
 13532                           psect	text721
 13533                           	file	"C:\Program Files (x86)\HI-TECH Software\PICC\9.82\sources\ftdivl.c"
 13534                           	line	61
 13535                           	global	__size_of__tdiv_to_l_
 13536  00E2                     	__size_of__tdiv_to_l_	equ	__end_of__tdiv_to_l_-__tdiv_to_l_
 13537                           	
 13538  0831                     __tdiv_to_l_:	
 13539                           	opt	stack 6
 13540                           ; Regs used in __tdiv_to_l_: [wreg+status,2+status,0]
 13541                           	line	66
 13542                           	
 13543  0831                     l6542:	
 13544  0831  0870               	movf	(__tdiv_to_l_@f1),w
 13545  0832  00F6               	movwf	((??__tdiv_to_l_+0)+0)
 13546  0833  0871               	movf	(__tdiv_to_l_@f1+1),w
 13547  0834  00F7               	movwf	((??__tdiv_to_l_+0)+0+1)
 13548  0835  0872               	movf	(__tdiv_to_l_@f1+2),w
 13549  0836  00F8               	movwf	((??__tdiv_to_l_+0)+0+2)
 13550  0837  1003               	clrc
 13551  0838  0D77               	rlf	(??__tdiv_to_l_+0)+1,w
 13552  0839  0D78               	rlf	(??__tdiv_to_l_+0)+2,w
 13553  083A  00F9               	movwf	(??__tdiv_to_l_+3)+0
 13554  083B  0879               	movf	(??__tdiv_to_l_+3)+0,w
 13555  083C  1283               	bcf	status, 5	;RP0=0, select bank0
 13556  083D  1303               	bcf	status, 6	;RP1=0, select bank0
 13557  083E  00A5               	movwf	(__tdiv_to_l_@exp1)
 13558  083F  08A5               	movf	((__tdiv_to_l_@exp1)),f
 13559  0840  1D03               	skipz
 13560  0841  2843               	goto	u3711
 13561  0842  2844               	goto	u3710
 13562  0843                     u3711:
 13563  0843  284E               	goto	l6548
 13564  0844                     u3710:
 13565                           	line	67
 13566                           	
 13567  0844                     l6544:	
 13568  0844  3000               	movlw	0
 13569  0845  00F3               	movwf	(?__tdiv_to_l_+3)
 13570  0846  3000               	movlw	0
 13571  0847  00F2               	movwf	(?__tdiv_to_l_+2)
 13572  0848  3000               	movlw	0
 13573  0849  00F1               	movwf	(?__tdiv_to_l_+1)
 13574  084A  3000               	movlw	0
 13575  084B  00F0               	movwf	(?__tdiv_to_l_)
 13576                           
 13577  084C  2912               	goto	l3128
 13578                           	
 13579  084D                     l6546:	
 13580  084D  2912               	goto	l3128
 13581                           	
 13582  084E                     l3127:	
 13583                           	line	68
 13584                           	
 13585  084E                     l6548:	
 13586  084E  0873               	movf	(__tdiv_to_l_@f2),w
 13587  084F  00F6               	movwf	((??__tdiv_to_l_+0)+0)
 13588  0850  0874               	movf	(__tdiv_to_l_@f2+1),w
 13589  0851  00F7               	movwf	((??__tdiv_to_l_+0)+0+1)
 13590  0852  0875               	movf	(__tdiv_to_l_@f2+2),w
 13591  0853  00F8               	movwf	((??__tdiv_to_l_+0)+0+2)
 13592  0854  1003               	clrc
 13593  0855  0D77               	rlf	(??__tdiv_to_l_+0)+1,w
 13594  0856  0D78               	rlf	(??__tdiv_to_l_+0)+2,w
 13595  0857  00F9               	movwf	(??__tdiv_to_l_+3)+0
 13596  0858  0879               	movf	(??__tdiv_to_l_+3)+0,w
 13597  0859  00A4               	movwf	(__tdiv_to_l_@cntr)
 13598  085A  08A4               	movf	((__tdiv_to_l_@cntr)),f
 13599  085B  1D03               	skipz
 13600  085C  285E               	goto	u3721
 13601  085D  285F               	goto	u3720
 13602  085E                     u3721:
 13603  085E  2869               	goto	l3129
 13604  085F                     u3720:
 13605                           	line	69
 13606                           	
 13607  085F                     l6550:	
 13608  085F  3000               	movlw	0
 13609  0860  00F3               	movwf	(?__tdiv_to_l_+3)
 13610  0861  3000               	movlw	0
 13611  0862  00F2               	movwf	(?__tdiv_to_l_+2)
 13612  0863  3000               	movlw	0
 13613  0864  00F1               	movwf	(?__tdiv_to_l_+1)
 13614  0865  3000               	movlw	0
 13615  0866  00F0               	movwf	(?__tdiv_to_l_)
 13616                           
 13617  0867  2912               	goto	l3128
 13618                           	
 13619  0868                     l6552:	
 13620  0868  2912               	goto	l3128
 13621                           	
 13622  0869                     l3129:	
 13623                           	line	70
 13624  0869  17F1               	bsf	(__tdiv_to_l_@f1)+(15/8),(15)&7
 13625                           	line	71
 13626                           	
 13627  086A                     l6554:	
 13628  086A  30FF               	movlw	0FFh
 13629  086B  05F0               	andwf	(__tdiv_to_l_@f1),f
 13630  086C  30FF               	movlw	0FFh
 13631  086D  05F1               	andwf	(__tdiv_to_l_@f1+1),f
 13632  086E  3000               	movlw	0
 13633  086F  05F2               	andwf	(__tdiv_to_l_@f1+2),f
 13634                           	line	72
 13635                           	
 13636  0870                     l6556:	
 13637  0870  17F4               	bsf	(__tdiv_to_l_@f2)+(15/8),(15)&7
 13638                           	line	73
 13639  0871  30FF               	movlw	0FFh
 13640  0872  05F3               	andwf	(__tdiv_to_l_@f2),f
 13641  0873  30FF               	movlw	0FFh
 13642  0874  05F4               	andwf	(__tdiv_to_l_@f2+1),f
 13643  0875  3000               	movlw	0
 13644  0876  05F5               	andwf	(__tdiv_to_l_@f2+2),f
 13645                           	line	74
 13646  0877  3000               	movlw	0
 13647  0878  00A3               	movwf	(__tdiv_to_l_@quot+3)
 13648  0879  3000               	movlw	0
 13649  087A  00A2               	movwf	(__tdiv_to_l_@quot+2)
 13650  087B  3000               	movlw	0
 13651  087C  00A1               	movwf	(__tdiv_to_l_@quot+1)
 13652  087D  3000               	movlw	0
 13653  087E  00A0               	movwf	(__tdiv_to_l_@quot)
 13654                           
 13655                           	line	75
 13656                           	
 13657  087F                     l6558:	
 13658  087F  307F               	movlw	low(07Fh)
 13659  0880  02A5               	subwf	(__tdiv_to_l_@exp1),f
 13660                           	line	76
 13661                           	
 13662  0881                     l6560:	
 13663  0881  3098               	movlw	(098h)
 13664  0882  0724               	addwf	(__tdiv_to_l_@cntr),w
 13665  0883  00F6               	movwf	(??__tdiv_to_l_+0)+0
 13666  0884  0876               	movf	0+(??__tdiv_to_l_+0)+0,w
 13667  0885  02A5               	subwf	(__tdiv_to_l_@exp1),f
 13668                           	line	77
 13669  0886  3018               	movlw	(018h)
 13670  0887  00F6               	movwf	(??__tdiv_to_l_+0)+0
 13671  0888  0876               	movf	(??__tdiv_to_l_+0)+0,w
 13672  0889  00A4               	movwf	(__tdiv_to_l_@cntr)
 13673  088A  288B               	goto	l6562
 13674                           	line	78
 13675                           	
 13676  088B                     l3130:	
 13677                           	line	79
 13678                           	
 13679  088B                     l6562:	
 13680  088B  3001               	movlw	01h
 13681  088C  00F6               	movwf	(??__tdiv_to_l_+0)+0
 13682  088D                     u3735:
 13683  088D  1003               	clrc
 13684  088E  0DA0               	rlf	(__tdiv_to_l_@quot),f
 13685  088F  0DA1               	rlf	(__tdiv_to_l_@quot+1),f
 13686  0890  0DA2               	rlf	(__tdiv_to_l_@quot+2),f
 13687  0891  0DA3               	rlf	(__tdiv_to_l_@quot+3),f
 13688  0892  0BF6               	decfsz	(??__tdiv_to_l_+0)+0
 13689  0893  288D               	goto	u3735
 13690                           	line	80
 13691                           	
 13692  0894                     l6564:	
 13693  0894  0875               	movf	(__tdiv_to_l_@f2+2),w
 13694  0895  0272               	subwf	(__tdiv_to_l_@f1+2),w
 13695  0896  1D03               	skipz
 13696  0897  289E               	goto	u3745
 13697  0898  0874               	movf	(__tdiv_to_l_@f2+1),w
 13698  0899  0271               	subwf	(__tdiv_to_l_@f1+1),w
 13699  089A  1D03               	skipz
 13700  089B  289E               	goto	u3745
 13701  089C  0873               	movf	(__tdiv_to_l_@f2),w
 13702  089D  0270               	subwf	(__tdiv_to_l_@f1),w
 13703  089E                     u3745:
 13704  089E  1C03               	skipc
 13705  089F  28A1               	goto	u3741
 13706  08A0  28A2               	goto	u3740
 13707  08A1                     u3741:
 13708  08A1  28AE               	goto	l6570
 13709  08A2                     u3740:
 13710                           	line	81
 13711                           	
 13712  08A2                     l6566:	
 13713  08A2  0873               	movf	(__tdiv_to_l_@f2),w
 13714  08A3  02F0               	subwf	(__tdiv_to_l_@f1),f
 13715  08A4  0874               	movf	(__tdiv_to_l_@f2+1),w
 13716  08A5  1C03               	skipc
 13717  08A6  0F74               	incfsz	(__tdiv_to_l_@f2+1),w
 13718  08A7  02F1               	subwf	(__tdiv_to_l_@f1+1),f
 13719  08A8  0875               	movf	(__tdiv_to_l_@f2+2),w
 13720  08A9  1C03               	skipc
 13721  08AA  0A75               	incf	(__tdiv_to_l_@f2+2),w
 13722  08AB  02F2               	subwf	(__tdiv_to_l_@f1+2),f
 13723                           	line	82
 13724                           	
 13725  08AC                     l6568:	
 13726  08AC  1420               	bsf	(__tdiv_to_l_@quot)+(0/8),(0)&7
 13727  08AD  28AE               	goto	l6570
 13728                           	line	83
 13729                           	
 13730  08AE                     l3131:	
 13731                           	line	84
 13732                           	
 13733  08AE                     l6570:	
 13734  08AE  3001               	movlw	01h
 13735  08AF                     u3755:
 13736  08AF  1003               	clrc
 13737  08B0  0DF0               	rlf	(__tdiv_to_l_@f1),f
 13738  08B1  0DF1               	rlf	(__tdiv_to_l_@f1+1),f
 13739  08B2  0DF2               	rlf	(__tdiv_to_l_@f1+2),f
 13740  08B3  3EFF               	addlw	-1
 13741  08B4  1D03               	skipz
 13742  08B5  28AF               	goto	u3755
 13743                           	line	85
 13744                           	
 13745  08B6                     l6572:	
 13746  08B6  3001               	movlw	low(01h)
 13747  08B7  02A4               	subwf	(__tdiv_to_l_@cntr),f
 13748  08B8  1D03               	btfss	status,2
 13749  08B9  28BB               	goto	u3761
 13750  08BA  28BC               	goto	u3760
 13751  08BB                     u3761:
 13752  08BB  288B               	goto	l6562
 13753  08BC                     u3760:
 13754                           	
 13755  08BC                     l3132:	
 13756                           	line	86
 13757  08BC  1FA5               	btfss	(__tdiv_to_l_@exp1),7
 13758  08BD  28BF               	goto	u3771
 13759  08BE  28C0               	goto	u3770
 13760  08BF                     u3771:
 13761  08BF  28E5               	goto	l6582
 13762  08C0                     u3770:
 13763                           	line	87
 13764                           	
 13765  08C0                     l6574:	
 13766  08C0  0825               	movf	(__tdiv_to_l_@exp1),w
 13767  08C1  3A80               	xorlw	80h
 13768  08C2  3E97               	addlw	-((-23)^80h)
 13769  08C3  1803               	skipnc
 13770  08C4  28C6               	goto	u3781
 13771  08C5  28C7               	goto	u3780
 13772  08C6                     u3781:
 13773  08C6  28D2               	goto	l6580
 13774  08C7                     u3780:
 13775                           	line	88
 13776                           	
 13777  08C7                     l6576:	
 13778  08C7  3000               	movlw	0
 13779  08C8  00F3               	movwf	(?__tdiv_to_l_+3)
 13780  08C9  3000               	movlw	0
 13781  08CA  00F2               	movwf	(?__tdiv_to_l_+2)
 13782  08CB  3000               	movlw	0
 13783  08CC  00F1               	movwf	(?__tdiv_to_l_+1)
 13784  08CD  3000               	movlw	0
 13785  08CE  00F0               	movwf	(?__tdiv_to_l_)
 13786                           
 13787  08CF  2912               	goto	l3128
 13788                           	
 13789  08D0                     l6578:	
 13790  08D0  2912               	goto	l3128
 13791                           	
 13792  08D1                     l3134:	
 13793  08D1  28D2               	goto	l6580
 13794                           	line	89
 13795                           	
 13796  08D2                     l3135:	
 13797                           	line	90
 13798                           	
 13799  08D2                     l6580:	
 13800  08D2  3001               	movlw	01h
 13801  08D3                     u3795:
 13802  08D3  1003               	clrc
 13803  08D4  0CA3               	rrf	(__tdiv_to_l_@quot+3),f
 13804  08D5  0CA2               	rrf	(__tdiv_to_l_@quot+2),f
 13805  08D6  0CA1               	rrf	(__tdiv_to_l_@quot+1),f
 13806  08D7  0CA0               	rrf	(__tdiv_to_l_@quot),f
 13807  08D8  3EFF               	addlw	-1
 13808  08D9  1D03               	skipz
 13809  08DA  28D3               	goto	u3795
 13810                           
 13811                           	line	91
 13812  08DB  3001               	movlw	(01h)
 13813  08DC  00F6               	movwf	(??__tdiv_to_l_+0)+0
 13814  08DD  0876               	movf	(??__tdiv_to_l_+0)+0,w
 13815  08DE  07A5               	addwf	(__tdiv_to_l_@exp1),f
 13816  08DF  1D03               	btfss	status,2
 13817  08E0  28E2               	goto	u3801
 13818  08E1  28E3               	goto	u3800
 13819  08E2                     u3801:
 13820  08E2  28D2               	goto	l6580
 13821  08E3                     u3800:
 13822  08E3  2909               	goto	l6592
 13823                           	
 13824  08E4                     l3136:	
 13825                           	line	92
 13826  08E4  2909               	goto	l6592
 13827                           	
 13828  08E5                     l3133:	
 13829                           	line	93
 13830                           	
 13831  08E5                     l6582:	
 13832  08E5  3018               	movlw	(018h)
 13833  08E6  0225               	subwf	(__tdiv_to_l_@exp1),w
 13834  08E7  1C03               	skipc
 13835  08E8  28EA               	goto	u3811
 13836  08E9  28EB               	goto	u3810
 13837  08EA                     u3811:
 13838  08EA  2902               	goto	l6590
 13839  08EB                     u3810:
 13840                           	line	94
 13841                           	
 13842  08EB                     l6584:	
 13843  08EB  3000               	movlw	0
 13844  08EC  00F3               	movwf	(?__tdiv_to_l_+3)
 13845  08ED  3000               	movlw	0
 13846  08EE  00F2               	movwf	(?__tdiv_to_l_+2)
 13847  08EF  3000               	movlw	0
 13848  08F0  00F1               	movwf	(?__tdiv_to_l_+1)
 13849  08F1  3000               	movlw	0
 13850  08F2  00F0               	movwf	(?__tdiv_to_l_)
 13851                           
 13852  08F3  2912               	goto	l3128
 13853                           	
 13854  08F4                     l6586:	
 13855  08F4  2912               	goto	l3128
 13856                           	
 13857  08F5                     l3138:	
 13858                           	line	95
 13859  08F5  2902               	goto	l6590
 13860                           	
 13861  08F6                     l3140:	
 13862                           	line	96
 13863                           	
 13864  08F6                     l6588:	
 13865  08F6  3001               	movlw	01h
 13866  08F7  00F6               	movwf	(??__tdiv_to_l_+0)+0
 13867  08F8                     u3825:
 13868  08F8  1003               	clrc
 13869  08F9  0DA0               	rlf	(__tdiv_to_l_@quot),f
 13870  08FA  0DA1               	rlf	(__tdiv_to_l_@quot+1),f
 13871  08FB  0DA2               	rlf	(__tdiv_to_l_@quot+2),f
 13872  08FC  0DA3               	rlf	(__tdiv_to_l_@quot+3),f
 13873  08FD  0BF6               	decfsz	(??__tdiv_to_l_+0)+0
 13874  08FE  28F8               	goto	u3825
 13875                           	line	97
 13876  08FF  3001               	movlw	low(01h)
 13877  0900  02A5               	subwf	(__tdiv_to_l_@exp1),f
 13878  0901  2902               	goto	l6590
 13879                           	line	98
 13880                           	
 13881  0902                     l3139:	
 13882                           	line	95
 13883                           	
 13884  0902                     l6590:	
 13885  0902  08A5               	movf	(__tdiv_to_l_@exp1),f
 13886  0903  1D03               	skipz
 13887  0904  2906               	goto	u3831
 13888  0905  2907               	goto	u3830
 13889  0906                     u3831:
 13890  0906  28F6               	goto	l6588
 13891  0907                     u3830:
 13892  0907  2909               	goto	l6592
 13893                           	
 13894  0908                     l3141:	
 13895  0908  2909               	goto	l6592
 13896                           	line	99
 13897                           	
 13898  0909                     l3137:	
 13899                           	line	100
 13900                           	
 13901  0909                     l6592:	
 13902  0909  0823               	movf	(__tdiv_to_l_@quot+3),w
 13903  090A  00F3               	movwf	(?__tdiv_to_l_+3)
 13904  090B  0822               	movf	(__tdiv_to_l_@quot+2),w
 13905  090C  00F2               	movwf	(?__tdiv_to_l_+2)
 13906  090D  0821               	movf	(__tdiv_to_l_@quot+1),w
 13907  090E  00F1               	movwf	(?__tdiv_to_l_+1)
 13908  090F  0820               	movf	(__tdiv_to_l_@quot),w
 13909  0910  00F0               	movwf	(?__tdiv_to_l_)
 13910                           
 13911  0911  2912               	goto	l3128
 13912                           	
 13913  0912                     l6594:	
 13914                           	line	101
 13915                           	
 13916  0912                     l3128:	
 13917  0912  0008               	return
 13918                           	opt stack 0
 13919                           GLOBAL	__end_of__tdiv_to_l_
 13920  0913                     	__end_of__tdiv_to_l_:
 13921 ;; =============== function __tdiv_to_l_ ends ============
 13922                           
 13923                           	signat	__tdiv_to_l_,8316
 13924                           	global	_isdigit
 13925                           psect	text722,local,class=CODE,delta=2
 13926                           global __ptext722
 13927  1935                     __ptext722:
 13928                           
 13929 ;; *************** function _isdigit *****************
 13930 ;; Defined at:
 13931 ;;		line 13 in file "C:\Program Files (x86)\HI-TECH Software\PICC\9.82\sources\isdigit.c"
 13932 ;; Parameters:    Size  Location     Type
 13933 ;;  c               1    wreg     unsigned char 
 13934 ;; Auto vars:     Size  Location     Type
 13935 ;;  c               1    1[COMMON] unsigned char 
 13936 ;; Return value:  Size  Location     Type
 13937 ;;		None               void
 13938 ;; Registers used:
 13939 ;;		wreg, status,2, status,0
 13940 ;; Tracked objects:
 13941 ;;		On entry : 0/0
 13942 ;;		On exit  : 0/0
 13943 ;;		Unchanged: 0/0
 13944 ;; Data sizes:     COMMON   BANK0   BANK1   BANK3   BANK2
 13945 ;;      Params:         0       0       0       0       0
 13946 ;;      Locals:         2       0       0       0       0
 13947 ;;      Temps:          0       0       0       0       0
 13948 ;;      Totals:         2       0       0       0       0
 13949 ;;Total ram usage:        2 bytes
 13950 ;; Hardware stack levels used:    1
 13951 ;; This function calls:
 13952 ;;		Nothing
 13953 ;; This function is called by:
 13954 ;;		_sprintf
 13955 ;; This function uses a non-reentrant model
 13956 ;;
 13957                           psect	text722
 13958                           	file	"C:\Program Files (x86)\HI-TECH Software\PICC\9.82\sources\isdigit.c"
 13959                           	line	13
 13960                           	global	__size_of_isdigit
 13961  0015                     	__size_of_isdigit	equ	__end_of_isdigit-_isdigit
 13962                           	
 13963  1935                     _isdigit:	
 13964                           	opt	stack 6
 13965                           ; Regs used in _isdigit: [wreg+status,2+status,0]
 13966                           ;isdigit@c stored from wreg
 13967  1935  00F1               	movwf	(isdigit@c)
 13968                           	line	14
 13969                           	
 13970  1936                     l6530:	
 13971  1936  01F0               	clrf	(_isdigit$3155)
 13972                           	
 13973  1937                     l6532:	
 13974  1937  303A               	movlw	(03Ah)
 13975  1938  0271               	subwf	(isdigit@c),w
 13976  1939  1803               	skipnc
 13977  193A  293C               	goto	u3691
 13978  193B  293D               	goto	u3690
 13979  193C                     u3691:
 13980  193C  2947               	goto	l6538
 13981  193D                     u3690:
 13982                           	
 13983  193D                     l6534:	
 13984  193D  3030               	movlw	(030h)
 13985  193E  0271               	subwf	(isdigit@c),w
 13986  193F  1C03               	skipc
 13987  1940  2942               	goto	u3701
 13988  1941  2943               	goto	u3700
 13989  1942                     u3701:
 13990  1942  2947               	goto	l6538
 13991  1943                     u3700:
 13992                           	
 13993  1943                     l6536:	
 13994  1943  01F0               	clrf	(_isdigit$3155)
 13995  1944  1403               	bsf	status,0
 13996  1945  0DF0               	rlf	(_isdigit$3155),f
 13997  1946  2947               	goto	l6538
 13998                           	
 13999  1947                     l2859:	
 14000                           	
 14001  1947                     l6538:	
 14002  1947  0C70               	rrf	(_isdigit$3155),w
 14003                           	
 14004  1948  2949               	goto	l2860
 14005                           	
 14006  1949                     l6540:	
 14007                           	line	15
 14008                           	
 14009  1949                     l2860:	
 14010  1949  0008               	return
 14011                           	opt stack 0
 14012                           GLOBAL	__end_of_isdigit
 14013  194A                     	__end_of_isdigit:
 14014 ;; =============== function _isdigit ends ============
 14015                           
 14016                           	signat	_isdigit,4216
 14017                           	global	_InitKeypad
 14018                           psect	text723,local,class=CODE,delta=2
 14019                           global __ptext723
 14020  191D                     __ptext723:
 14021                           
 14022 ;; *************** function _InitKeypad *****************
 14023 ;; Defined at:
 14024 ;;		line 6 in file "../Keypad.c"
 14025 ;; Parameters:    Size  Location     Type
 14026 ;;		None
 14027 ;; Auto vars:     Size  Location     Type
 14028 ;;		None
 14029 ;; Return value:  Size  Location     Type
 14030 ;;		None               void
 14031 ;; Registers used:
 14032 ;;		wreg, status,2, status,0
 14033 ;; Tracked objects:
 14034 ;;		On entry : 0/0
 14035 ;;		On exit  : 0/0
 14036 ;;		Unchanged: 0/0
 14037 ;; Data sizes:     COMMON   BANK0   BANK1   BANK3   BANK2
 14038 ;;      Params:         0       0       0       0       0
 14039 ;;      Locals:         0       0       0       0       0
 14040 ;;      Temps:          1       0       0       0       0
 14041 ;;      Totals:         1       0       0       0       0
 14042 ;;Total ram usage:        1 bytes
 14043 ;; Hardware stack levels used:    1
 14044 ;; This function calls:
 14045 ;;		Nothing
 14046 ;; This function is called by:
 14047 ;;		_main
 14048 ;; This function uses a non-reentrant model
 14049 ;;
 14050                           psect	text723
 14051                           	file	"../Keypad.c"
 14052                           	line	6
 14053                           	global	__size_of_InitKeypad
 14054  000C                     	__size_of_InitKeypad	equ	__end_of_InitKeypad-_InitKeypad
 14055                           	
 14056  191D                     _InitKeypad:	
 14057                           	opt	stack 7
 14058                           ; Regs used in _InitKeypad: [wreg+status,2+status,0]
 14059                           	line	7
 14060                           	
 14061  191D                     l6494:	
 14062                           ;Keypad.c: 7: PORTB = 0x00;
 14063  191D  1283               	bcf	status, 5	;RP0=0, select bank0
 14064  191E  1303               	bcf	status, 6	;RP1=0, select bank0
 14065  191F  0186               	clrf	(6)	;volatile
 14066                           	line	8
 14067                           	
 14068  1920                     l6496:	
 14069                           ;Keypad.c: 8: TRISB = 0xF0;
 14070  1920  30F0               	movlw	(0F0h)
 14071  1921  1683               	bsf	status, 5	;RP0=1, select bank1
 14072  1922  1303               	bcf	status, 6	;RP1=0, select bank1
 14073  1923  0086               	movwf	(134)^080h	;volatile
 14074                           	line	11
 14075                           	
 14076  1924                     l6498:	
 14077                           ;Keypad.c: 11: OPTION_REG &= 0x7F;
 14078  1924  307F               	movlw	(07Fh)
 14079  1925  00F0               	movwf	(??_InitKeypad+0)+0
 14080  1926  0870               	movf	(??_InitKeypad+0)+0,w
 14081  1927  0581               	andwf	(129)^080h,f	;volatile
 14082                           	line	12
 14083                           	
 14084  1928                     l643:	
 14085  1928  0008               	return
 14086                           	opt stack 0
 14087                           GLOBAL	__end_of_InitKeypad
 14088  1929                     	__end_of_InitKeypad:
 14089 ;; =============== function _InitKeypad ends ============
 14090                           
 14091                           	signat	_InitKeypad,88
 14092                           psect	text724,local,class=CODE,delta=2
 14093                           global __ptext724
 14094  0000                     __ptext724:
 14095                           	global	btemp
 14096  007E                     	btemp set 07Eh
 14097                           
 14098                           	DABS	1,126,2	;btemp
 14099                           	global	wtemp0
 14100  007E                     	wtemp0 set btemp


HI-TECH Software PICC Macro Assembler V9.82 build 9453 
Symbol Table                                                                                   Tue Dec 11 03:11:59 2018

              ___altoft@exp 002C                           pc 0002              ___bmul@product 0025  
             ___altoft@sign 002D                          _RD 0C60                          _WR 0C61  
              ___awdiv@sign 0021                          fsr 0004         ___wmul@multiplicand 0072  
              ___ftadd@exp1 0051                ___ftadd@exp2 0050                ___ftadd@sign 004F  
                       l700 17BB                         l701 17BB                         l710 17FA  
                       l702 17C2                         l703 17E1                         l704 17D7  
                       l705 17D7                         l713 196E                         l706 17DE  
                       l650 17FF                         l714 1965                         l643 1928  
                       l707 17FD                         l651 1669                         l715 1975  
                       l708 17F3                         l660 1697                         l652 165F  
                       l716 1977                         l709 17F3                         l661 1697  
                       l653 165F                         l670 16DA                         l662 169E  
                       l654 1666                         l646 164D                         l671 16F9  
                       l663 16C1                         l655 1685                         l647 1643  
                       l680 172B                         l672 16EF                         l664 16B7  
                       l656 167B                         l648 1643                         l681 172B  
                       l673 16EF                         l665 16B7                         l657 167B  
                       l649 164A                         l690 176A                         l682 1732  
                       l674 16F6                         l666 16BE                         l658 1682  
                       l691 1789                         l683 1751                         l675 1715  
                       l667 16DD                         l659 16A1                         l692 177F  
                       l684 1747                         l676 170B                         l668 16D3  
                       l693 177F                         l685 1747                         l677 170B  
                       l669 16D3                         l694 1786                         l686 174E  
                       l678 1712                         l695 17A9                         l687 176D  
                       l679 1735                         l696 179F                         l688 1763  
                       l697 179F                         l689 1763                         l698 17A6  
                       l699 17C5                         _GIE 005F                         _RB0 0030  
                       _RB1 0031                         _RB2 0032                         _RB3 0033  
                       _RD0 0040                         _RB4 0034                         _RD1 0041  
                       _RB5 0035                         _RB6 0036                         _RB7 0037  
                       _RD4 0044                         _RD5 0045                         _RD6 0046  
                       _RD7 0047                         fsr0 0004                         indf 0000  
              ___awmod@sign 0076                        l2100 1CD3                        l2101 1CD8  
                      l2102 1CDD                        l2103 1CE2                        l3000 1F2A  
                      l2200 0598                        l2104 1CE7                        l2120 1A66  
                      l2040 0C04                        l3001 1F37                        l2201 0533  
                      l2105 1CEC                        l2121 1A6D                        l2041 0CC5  
                      l3002 1F2B                        l2210 0667                        l2202 05A6  
                      l2106 1CF1                        l2122 1A74                        l2050 0C89  
                      l2042 0C0B                        l3003 1F3D                        l2211 0735  
                      l2203 05C1                        l2107 1CF6                        l2123 1A8C  
                      l2051 0CB4                        l2043 0C6D                        l3004 1F4E  
                      l3100 1BD5                        l2220 07F9                        l2212 0750  
                      l2204 05A7                        l2108 1D00                        l2060 0CE8  
                      l2044 0CC4                        l2052 0CC3                        l3101 1BE0  
                      l2221 07FF                        l2213 0736                        l2205 05CF  
                      l2109 1D30                        l2117 1A7C                        l2061 0D0E  
                      l2053 0CCE                        l2045 0C93                        l3030 1D6D  
                      l3102 1BE7                        l2150 15F5                        l2214 0757  
                      l2206 05E7                        l2118 1A5F                        l2070 0DA2  
                      l2054 0D18                        l2062 0D17                        l2046 0C6E  
                      l3031 1D86                        l2215 076E                        l2207 05F1  
                      l2119 1A8C                        l2071 0DAB                        l2063 0D21  
                      l2055 0CCF                        l2047 0CA1                        l3032 1D94  
                      l3024 1D41                        l3040 1B45                        l3112 1AF1  
                      l2160 0BAF                        l2216 0796                        l2208 061C  
                      l2072 0F6E                        l2080 0ECF                        l2064 0DA4  
                      l2056 0CF0                        l2048 0C77                        l3033 1D9F  
                      l3025 1D4F                        l3041 1B46                        l3113 1B00  
                      l3121 1A3A                        l2153 0A77                        l2217 07BC  
                      l2209 0726                        l2081 0EE3                        l2073 0DAC  
                      l2065 0D24                        l2057 0CDA                        l2049 0C80  
                      l3130 088B                        l3034 1DA6                        l3026 1D95  
                      l3042 1B67                        l3114 1AF2                        l3122 1A2C  
                      l1362 1A26                        l2154 09E1                        l2218 07BB  
                      l2170 019F                        l2090 0FFC                        l2074 0F82  
                      l2082 0F1C                        l2066 0D86                        l2058 0CFB  
                      l3131 08AE                        l3027 1D67                        l3043 1B77  
                      l3051 1C12                        l3115 1B07                        l3123 1A41  
                      l2147 1566                        l2155 0BD1                        l1371 19C3  
                      l2163 07E3                        l2219 07E2                        l2171 01A5  
                      l2091 0FFD                        l2083 0F1D                        l2075 0DF5  
                      l2067 0DA3                        l2059 0CE1                        l3140 08F6  
                      l3132 08BC                        l3028 1D5B                        l3044 1B81  
                      l3052 1C3C                        l3060 1C7C                        l3116 1B23  
                      l3124 1A58                        l2148 162A                        l2156 0A55  
                      l1372 19B2                        l2180 0323                        l2172 01A0  
                      l2164 0118                        l2092 0FFD                        l2084 0F2F  
                      l2076 0E4C                        l2068 0D9D                        l3141 0908  
                      l3133 08E5                        l3029 1D6C                        l3037 1B78  
                      l3053 1C53                        l3061 1CA7                        l1365 0830  
                      l2149 15F6                        l2157 0A54                        l1373 19D0  
                      l2173 07FA                        l2181 0291                        l2165 0132  
                      l2085 0F6C                        l2077 0E83                        l2069 0D87  
                      l3134 08D1                        l3038 1B40                        l3062 1CB7  
                      l2158 0B3C                        l1374 19D0                        l2190 03DC  
                      l2182 0301                        l2174 01A1                        l2166 0199  
                      l2086 0FB5                        l2078 0E95                        l3135 08D2  
                      l3127 084E                        l3039 1B32                        l3047 1933  
                      l3063 1CC1                        l1359 1990                        l2159 0BB0  
                      l2183 0322                        l2175 01BB                        l2167 0186  
                      l2095 1D06                        l2087 0FE3                        l2079 0ECE  
                      l3136 08E4                        l3128 0912                        l3048 1934  
                      l3056 1CB8                        l3080 1F82                        l1368 1EB1  
                      l2192 0411                        l2184 0321                        l2176 01A3  
                      l2168 0150                        l2096 1CC6                        l2088 0FC3  
                      l3137 0909                        l3129 0869                        l3057 1C76  
                      l3081 1FE6                        l1377 195F                        l2177 0758  
                      l2185 036C                        l2169 0198                        l2097 1D29  
                      l2089 0FCD                        l3138 08F5                        l3170 1350  
                      l3250 1DBB                        l3058 1C68                        l3082 1FA4  
                      l2186 043C                        l2194 042D                        l2178 01D8  
                      l2098 1CC9                        l3139 0902                        l3171 147F  
                      l3059 1C7B                        l3083 1F96                        l2195 04AC  
                      l2179 021A                        l2099 1CCE                        l3180 1476  
                      l3172 1372                        l3260 1DFA                        l3252 1DB3  
                      l3084 1FA9                        l3092 1B90                        l2196 04B7  
                      l2188 03B3                        l3181 1462                        l3173 13BA  
                      l3261 1DEF                        l3253 1E21                        l3085 1FAA  
                      l3093 1B9A                        l2197 050E                        l2189 03D3  
                      l3182 146F                        l3174 1412                        l3262 1DFE  
                      l3254 1DC9                        l3086 1FD5                        l3094 1BD6  
                      l2198 04FF                        l3183 1463                        l3175 1429  
                      l3263 1E08                        l3255 1DBC                        l3087 1FE5  
                      l3079 1F6E                        l3095 1BB0                        l2199 0532  
                      l3184 1475                        l3176 1452                        l3264 1E21  
                      l3256 1DD0                        l3088 1FF6                        l3096 1BA4  
                      l3177 143E                        l3257 1DE7                        l3089 1FFF  
                      l3097 1BB5                        l3178 143F                        l3258 1DD1  
                      l3098 1BB6                        l3179 1451                        l3259 1DEE  
                      l3099 1BC7                        l7000 1BCE                        l7002 1BD6  
                      l2930 1215                        l2931 132B                        l2860 1949  
                      l7004 1BDA                        l7100 1788                        l2940 126E  
                      l2932 1232                        l2941 126F                        l7006 1BE0  
                      l7110 17C2                        l7102 1791                        l7030 1635  
                      l2950 12A6                        l2942 127D                        l2934 1231  
                      l2870 10EA                        l2951 12B4                        l2943 1270  
                      l2935 123B                        l2871 11E5                        l2880 001B  
                      l2960 1AB2                        l7008 1BE7                        l7120 17E5  
                      l7112 17C4                        l7104 17A6                        l7040 1668  
                      l7032 164A                        l7200 130B                        l2952 12A7  
                      l2944 1284                        l2936 1240                        l2928 121D  
                      l2872 1141                        l2881 001D                        l2961 1ACD  
                      l2953 12BB                        l2937 1285                        l2945 12BC  
                      l2873 11CB                        l2962 1AD6                        l7122 17FA  
                      l7114 17C9                        l7106 17A8                        l7050 169E  
                      l7042 166D                        l7034 164C                        l7130 1978  
                      l7202 130F                        l2954 12D1                        l2946 12BC  
                      l2938 1255                        l7210 0038                        l2859 1947  
                      l2955 12E6                        l2947 128C                        l2884 19D4  
                      l7124 17FC                        l7116 17DE                        l7108 17AD  
                      l7060 16C5                        l7052 16A0                        l7044 1682  
                      l7036 1651                        l7028 162B                        l7132 197B  
                      l7204 132B                        l2956 130F                        l7140 1204  
                      l7220 007F                        l7212 0039                        l7300 1A0D  
                      l2885 19DE                        l2949 12A5                        l2869 10F4  
                      l2878 0008                        l2886 19F3                        l7126 17FD  
                      l7118 17E0                        l7070 16F8                        l7062 16DA  
                      l7054 16A9                        l7046 1684                        l7038 1666  
                      l7134 1984                        l7150 1221                        l7142 120A  
                      l2990 00EF                        l7230 0092                        l7222 0080  
                      l7214 004A                        l2982 0039                        l7206 001E  
                      l7302 1A13                        l7310 0812                        l2879 0011  
                      l2887 19FA                        l2959 1A96                        l2983 010B  
                      l2967 19AF                        l6600 134F                        l7128 17FF  
                      l7080 1732                        l7072 16FD                        l7064 16DC  
                      l7056 16BE                        l7048 1689                        l7160 123F  
                      l7152 1227                        l7144 1215                        l7136 11E6  
                      l7240 00BE                        l7232 0096                        l7224 0081  
                      l2984 0052                        l7216 0051                        l7208 0031  
                      l7304 1A21                        l7312 0817                        l7320 1489  
                      l7400 1E5C                        l2993 1ECF                        l2985 0092  
                      l6530 1936                        l6610 13A6                        l6602 1350  
                      l2994 1F57                        l7090 1755                        l7082 1734  
                      l7074 1712                        l7066 16E1                        l7058 16C0  
                      l7170 1265                        l7162 1241                        l7154 1232  
                      l7146 121C                        l7138 1200                        l7250 00E8  
                      l7242 00C3                        l2986 00A7                        l7234 00A7  
                      l7226 0087                        l7218 0052                        l7314 081D  
                      l7306 0806                        l7330 156C                        l7322 154A  
                      l7410 1E84                        l7402 1E65                        l2995 1F1A  
                      l2987 00BE                        l6540 1949                        l6532 1937  
                      l6620 13C3                        l6612 13AE                        l6604 1368  
                      l6700 1E0A                        l2996 1F06                        l7092 176A  
                      l7084 1739                        l7076 1714                        l7068 16F6  
                      l7180 1296                        l7172 1270                        l7164 1247  
                      l7156 1236                        l7148 121D                        l7252 00EF  
                      l7244 00C7                        l2988 00C3                        l7236 00AF  
                      l7228 008D                        l7260 1ADE                        l7316 082B  
                      l7308 0809                        l7332 15DA                        l7324 1564  
                      l7340 0916                        l7420 1E9F                        l7412 1E8A  
                      l7404 1E6C                        l7500 01BB                        l2997 1F07  
                      l2989 00D8                        l6534 193D                        l6550 085F  
                      l6542 0831                        l6630 1434                        l6622 13EF  
                      l6614 13B0                        l6606 1371                        l6702 1E1C  
                      l6710 1A9A                        l2998 1F19                        l7094 176C  
                      l7086 174E                        l7078 171D                        l7190 12D1  
                      l7182 129C                        l7174 127D                        l7166 1255  
                      l7158 123A                        l7254 010B                        l7246 00D8  
                      l7238 00B7                        l7270 1B07                        l7262 1AE2  
                      l7334 15F4                        l7326 1565                        l7318 1483  
                      l7350 09E0                        l7342 091A                        l7422 1EA5  
                      l7414 1E8B                        l7406 1E72                        l7430 19BE  
                      l7510 01EB                        l7502 01CD                        l2999 1F3E  
                      l6536 1943                        l6560 0881                        l6552 0868  
                      l6544 0844                        l6640 1461                        l6632 143D  
                      l6624 1411                        l6616 13B5                        l6608 1372  
                      l6704 1E20                        l6712 1AB2                        l6800 1F57  
                      l7096 1771                        l7088 1750                        l7192 12D5  
                      l7184 12A7                        l7168 125F                        l7176 1285  
                      l7248 00E0                        l7272 1B23                        l7264 1AED  
                      l7256 1AD7                        l7280 1A41                        l7336 15F6  
                      l7328 1566                        l7360 0A76                        l7352 09E1  
                      l7344 091C                        l7424 1EAB                        l7416 1E90  
                      l7408 1E76                        l7432 19C3                        l7440 10CD  
                      l7600 0598                        l7520 0225                        l7512 0200  
                      l7504 01D3                        l6538 1947                        l6570 08AE  
                      l6562 088B                        l6554 086A                        l6546 084D  
                      l6642 1463                        l6634 143F                        l6626 1423  
                      l6618 13BA                        l6650 0007                        l6714 1ABB  
                      l6706 1A8D                        l6490 1C50                        l7098 1786  
                      l7194 12E6                        l7186 12B4                        l7178 128C  
                      l7266 1AF2                        l7258 1ADA                        l7282 1A58  
                      l7274 1A27                        l7290 1975                        l7338 162A  
                      l7370 0B3C                        l7354 09E8                        l7346 0923  
                      l7362 0A77                        l7418 1E99                        l7426 19B1  
                      l7434 194A                        l7450 1121                        l7442 10E4  
                      l7610 05CF                        l7602 05A7                        l7530 028A  
                      l7522 0252                        l7514 0215                        l7506 01D8  
                      l6580 08D2                        l6572 08B6                        l6564 0894  
                      l6556 0870                        l6548 084E                        l6644 146F  
                      l6628 142D                        l6636 1452                        l6660 001B  
                      l6652 000C                        l6716 1ACD                        l6708 1A96  
                      l6492 1C52                        l6900 1C3E                        l7196 12F7  
                      l7188 12C0                        l7268 1B00                        l7276 1A2C  
                      l7292 1977                        l7284 1960                        l7372 0B43  
                      l7364 0A7E                        l7356 0A53                        l7348 09DF  
                      l7380 1991                        l7428 19B2                        l7436 1956  
                      l7460 11AB                        l7452 1147                        l7444 10F3  
                      l7620 061C                        l7612 05DE                        l7604 05B4  
                      l7540 0301                        l7532 0291                        l7524 0258  
                      l7516 021A                        l7508 01E3                        l7700 1A66  
                      l6494 191D                        l6590 0902                        l6574 08C0  
                      l6582 08E5                        l6566 08A2                        l6558 087F  
                      l6638 1458                        l6646 1476                        l6662 001D  
                      l6654 0011                        l6670 19E5                        l6718 1AD6  
                      l6830 1D4A                        l6822 1D31                        l6902 1C40  
                      l6910 1C54                        l7198 12FB                        l7278 1A3A  
                      l7286 1965                        l7294 19FC                        l7374 0BAE  
                      l7366 0B3A                        l7358 0A55                        l7382 1995  
                      l7390 1E3F                        l7462 11C4                        l7454 1160  
                      l7446 10F4                        l7438 10B6                        l7630 0743  
                      l7622 0667                        l7614 05E7                        l7606 05BA  
                      l7550 037B                        l7542 0318                        l7534 02AA  
                      l7526 026F                        l7518 021E                        l7470 0118  
                      l7702 1A6D                        l6496 1920                        l6584 08EB  
                      l6592 0909                        l6576 08C7                        l6568 08AC  
                      l6648 147F                        l6656 0013                        l6672 19F3  
                      l6664 19D1                        l6680 1DB3                        l6760 1EC5  
                      l6840 1D62                        l6832 1D4F                        l6824 1D38  
                      l6904 1C4E                        l6920 1C85                        l6912 1C64  
                      l7288 196E                        l7296 19FF                        l7376 0BB0  
                      l7368 0B3B                        l7384 19AF                        l7392 1E45  
                      l7464 11CB                        l7456 1179                        l7448 10FC  
                      l7640 0768                        l7632 0749                        l7624 06C5  
                      l7616 0608                        l7608 05C1                        l7560 03D3  
                      l7552 0384                        l7536 02E3                        l7528 0286  
                      l7544 0323                        l7480 0142                        l7472 011E  
                      l7704 1A74                        l7800 0D95                        l7720 0BEE  
                      l7712 0BD2                        l6498 1924                        l6594 0912  
                      l6586 08F4                        l6578 08D0                        l6658 0015  
                      l6674 19FA                        l6666 19D4                        l6690 1DD5  
                      l6682 1DBA                        l6770 1EE8                        l6762 1ECE  
                      l6850 1D86                        l6842 1D67                        l6834 1D51  
                      l6826 1D41                        l6906 1C50                        l6922 1C97  
                      l6914 1C68                        l6930 1CB8                        l7298 1A08  
                      l7378 0BD1                        l7394 1E49                        l7386 1E22  
                      l7466 11E5                        l7458 1192                        l7650 07D0  
                      l7642 078B                        l7634 0750                        l7626 06CB  
                      l7618 0615                        l7570 0435                        l7562 03DC  
                      l7554 03A3                        l7546 0332                        l7538 02F8  
                      l7490 0186                        l7482 0145                        l7474 012B  
                      l7706 1A7B                        l7810 0DF5                        l7802 0D9C  
                      l7730 0C0B                        l7722 0BF4                        l7714 0BE8  
                      l6588 08F6                        l6596 132C                        l6668 19D8  
                      l6692 1DDF                        l6684 1DBC                        l6676 1DA7  
                      l6780 1F05                        l6772 1EEF                        l6764 1ECF  
                      l6860 1DA6                        l6852 1D8D                        l6844 1D6D  
                      l6836 1D57                        l6828 1D45                        l6908 1C53  
                      l6932 1CC1                        l6924 1CA5                        l6916 1C76  
                      l6940 1F6E                        l7396 1E4E                        l7388 1E32  
                      l7652 07DB                        l7644 0796                        l7628 0736  
                      l7580 04B6                        l7564 03F5                        l7572 043C  
                      l7556 03B3                        l7548 036C                        l7636 0758  
                      l7484 014B                        l7492 0199                        l7476 0132  
                      l7468 010F                        l7660 1CC3                        l7708 1A7C  
                      l7820 0ECF                        l7812 0E4C                        l7804 0D9D  
                      l7740 0C77                        l7732 0C15                        l7724 0BF9  
                      l7716 0BEA                        l6598 1346                        l6694 1DEF  
                      l6686 1DC9                        l6678 1DAB                        l6790 1F2B  
                      l6782 1F07                        l6774 1EF1                        l6766 1EE1  
                      l6758 1EB2                        l6846 1D7E                        l6838 1D5B  
                      l6854 1D95                        l6870 1B46                        l6862 1B24  
                      l6926 1CA7                        l6918 1C7C                        l6950 1F92  
                      l6942 1F72                        l6934 1F58                        l7398 1E56  
                      l7646 07B3                        l7638 0760                        l7590 050E  
                      l7582 04B7                        l7574 04A9                        l7566 0411  
                      l7558 03CA                        l7494 019D                        l7486 0150  
                      l7478 0134                        l7654 07E3                        l7670 1CD8  
                      l7662 1CC6                        l7830 0F2F                        l7822 0ED9  
                      l7814 0E83                        l7806 0DA4                        l7742 0C80  
                      l7750 0CA1                        l7734 0C23                        l7726 0BFE  
                      l7718 0BEC                        l6696 1DFA                        l6688 1DD1  
                      l6792 1F37                        l6776 1EF5                        l6784 1F1A  
                      l6768 1EE2                        l6856 1D99                        l6848 1D84  
                      l6880 1B81                        l6872 1B58                        l6864 1B2E  
                      l6928 1CB0                        l6960 1FC5                        l6952 1F96  
                      l6944 1F7D                        l6936 1F5F                        l7648 07BC  
                      l7592 0520                        l7584 04FE                        l7576 04AC  
                      l7568 042D                        l7496 01A4                        l7656 07FA  
                      l7488 017F                        l7680 1CF1                        l7672 1CDD  
                      l7664 1CC9                        l7840 0FA6                        l7832 0F6D  
                      l7824 0EE3                        l7816 0E8B                        l7808 0DAC  
                      l7752 0CA7                        l7744 0C89                        l7736 0C2A  
                      l7760 0CC5                        l7728 0C04                        l6698 1E02  
                      l6786 1F20                        l6794 1F3E                        l6778 1EFC  
                      l6858 1D9F                        l6874 1B67                        l6866 1B32  
                      l6882 1929                        l6890 1BE8                        l6970 1FEA  
                      l6962 1FD3                        l6954 1FA4                        l6946 1F82  
                      l6938 1F6A                        l7658 07FF                        l7594 052B  
                      l7586 04FF                        l7578 04AF                        l7498 01A5  
                      l7682 1CF6                        l7674 1CE2                        l7666 1CCE  
                      l7690 1D06                        l7850 0FC3                        l7842 0FB4  
                      l7826 0F1D                        l7818 0E95                        l7834 0F6E  
                      l7770 0CE5                        l7762 0CCF                        l7754 0CAD  
                      l7746 0C92                        l7738 0C6E                        l6796 1F42  
                      l6788 1F29                        l6876 1B70                        l6868 1B40  
                      l6884 1930                        l6892 1BEC                        l6972 1FF6  
                      l6964 1FD5                        l6956 1FAA                        l6948 1F8A  
                      l6980 1B90                        l7596 0533                        l7588 0507  
                      l7684 1CFB                        l7676 1CE7                        l7668 1CD3  
                      l7692 1D29                        l7860 0FEF                        l7852 0FCD  
                      l7844 0FB5                        l7828 0F25                        l7836 0F82  
                      l7772 0CE8                        l7780 0CFB                        l7764 0CDA  
                      l7756 0CB4                        l7748 0C93                        l6798 1F4E  
                      l6878 1B78                        l6886 1933                        l6894 1C12  
                      l6974 1FFF                        l6966 1FDE                        l6958 1FB3  
                      l6990 1BAB                        l6982 1B94                        l7598 0591  
                      l7694 1D30                        l7686 1D00                        l7678 1CEC  
                      l7862 0FF7                        l7854 0FD5                        l7846 0FC1  
                      l7838 0FA2                        l7790 0D24                        l7782 0D01  
                      l7774 0CEC                        l7766 0CDE                        l7758 0CBC  
                      l6888 1934                        l6896 1C16                        l6968 1FE6  
                      l6992 1BB0                        l6984 1B9A                        l6976 1B82  
                      l7688 1D05                        l7696 1A59                        l7848 0FC2  
                      l7856 0FE3                        l7792 0D2E                        l7784 0D0E  
                      l7776 0CEF                        l7768 0CE1                        l6898 1C3C  
                      l6994 1BB6                        l6986 1BA0                        l6978 1B87  
                      l7874 1A81                        l7698 1A5F                        l7858 0FE7  
                      l7794 0D3C                        l7778 0CF0                        l7786 0D18  
                      l6996 1BC0                        l6988 1BA4                        l7796 0D43  
                      l7788 0D21                        l6998 1BC7                        l7798 0D87  
                      STR_1 10A6                        STR_2 109A                        STR_3 107C  
                      STR_4 108B                        STR_5 109A                        u4020 19F2  
                      u4100 1DFE                        u4021 19F1                        u4005 19DF  
                      u4101 1DFD                        u4110 1E02                        u4030 1DAB  
                      u4015 19E6                        u4111 1E01                        u4120 1E13  
                      u4040 1DB2                        u5000 16E1                        u4041 1DB1  
                      u5001 16E0                        u4130 1E20                        u5010 16F5  
                      u5011 16F4                        u4060 1DCF                        u4140 1A9A  
                      u4300 1EFC                        u5100 1771                        u5020 16FD  
                      u4125 1E0F                        u4061 1DCE                        u4141 1A99  
                      u4301 1EFB                        u5101 1770                        u5021 16FC  
                      u5110 1785                        u5030 1711                        u4055 1DC1  
                      u4151 1AA3                        u5111 1784                        u5031 1710  
                      u4080 1DED                        u4152 1AAA                        u4320 1F18  
                      u4400 1D45                        u5120 1791                        u5040 171D  
                      u5200 1204                        u6000 050D                        u4081 1DEC  
                      u4153 1AB1                        u4321 1F17                        u4401 1D44  
                      u5121 1790                        u5041 171C                        u6001 050C  
                      u4330 1F20                        u4410 1D57                        u5130 17A5  
                      u5050 1731                        u5210 120A                        u6010 0520  
                      u4075 1DE0                        u4331 1F1F                        u4315 1F08  
                      u4411 1D56                        u5131 17A4                        u5051 1730  
                      u5211 1209                        u6011 051F                        u3700 1943  
                      u4180 1ACC                        u5140 17AD                        u5060 1739  
                      u5300 1265                        u5220 1214                        u6100 0756  
                      u3701 1942                        u4181 1ACB                        u4165 1AB4  
                      u5141 17AC                        u5061 1738                        u5301 1264  
                      u5221 1213                        u6101 0755                        u3710 0844  
                      u4350 1F3C                        u4270 1EC5                        u4430 1D6B  
                      u4510 1B44                        u5150 17C1                        u5070 174D  
                      u5310 126D                        u5230 1221                        u6110 0760  
                      u6030 05A5                        u3711 0843                        u4095 1DF2  
                      u4175 1ABC                        u4351 1F3B                        u4271 1EC4  
                      u4431 1D6A                        u4511 1B43                        u5151 17C0  
                      u5071 174C                        u5311 126C                        u6111 075F  
                      u6031 05A4                        u3800 08E3                        u3720 085F  
                      u4360 1F42                        u4280 1EDA                        u4520 1B58  
                      u4600 1C4E                        u5160 17C9                        u5080 1755  
                      u5400 12C0                        u5240 1227                        u6120 0768  
                      u6040 05CE                        u6200 0CAD                        u3801 08E2  
                      u3721 085E                        u4345 1F2D                        u4425 1D5C  
                      u4521 1B57                        u4505 1B34                        u4601 1C4D  
                      u5161 17C8                        u5081 1754                        u5401 12BF  
                      u5241 1226                        u6121 0767                        u6041 05CD  
                      u6025 0544                        u6201 0CAC                        u3810 08EB  
                      u4290 1EF5                        u4450 1D7E                        u4610 1C64  
                      u5170 17DD                        u5090 1769                        u5410 12D5  
                      u5330 1283                        u5250 1231                        u6130 078B  
                      u6050 05DE                        u6210 0CBC                        u3811 08EA  
                      u4291 1EF4                        u4451 1D7D                        u4611 1C63  
                      u5171 17DC                        u5091 1768                        u5411 12D4  
                      u5331 1282                        u5251 1230                        u6131 078A  
                      u6051 05DD                        u6211 0CBB                        u3740 08A2  
                      u3900 142D                        u4540 1B76                        u4700 1F92  
                      u5180 17E5                        u5340 128B                        u5260 123A  
                      u6140 07B3                        u6060 0608                        u6300 0ED9  
                      u6220 0CCD                        u3741 08A1                        u3901 142C  
                      u4285 1ED6                        u4445 1D6E                        u4541 1B75  
                      u4525 1B54                        u4605 1C4A                        u4701 1F91  
                      u5181 17E4                        u5421 12F0                        u5341 128A  
                      u5325 1271                        u5261 1239                        u6141 07B2  
                      u6045 05CA                        u6301 0ED8                        u6221 0CCC  
                      u3830 0907                        u3910 1434                        u4470 1D93  
                      u4390 1D38                        u4550 1930                        u4630 1C7A  
                      u5190 17F9                        u5430 12FB                        u5422 12F7  
                      u5270 123F                        u6150 07D0                        u6310 0F25  
                      u6230 0D01                        u3831 0906                        u3735 088D  
                      u3911 1433                        u4471 1D92                        u4455 1D7A  
                      u4391 1D37                        u4535 1B68                        u4551 192F  
                      u4631 1C79                        u5191 17F8                        u5431 12FA  
                      u5271 123E                        u6151 07CF                        u6135 0787  
                      u6055 05DA                        u6311 0F24                        u6231 0D00  
                      u3760 08BC                        u3840 1346                        u4480 1D99  
                      u4560 1BEC                        u4720 1FA8                        u4800 1BA0  
                      u5360 129C                        u5280 1254                        u5520 00BD  
                      u5440 0031                        u5600 1B06                        u6160 07F8  
                      u6320 0FB3                        u6240 0D20                        u3825 08F8  
                      u3761 08BB                        u3745 089E                        u3841 1345  
                      u4465 1D87                        u4561 1BEB                        u4625 1C6A  
                      u4721 1FA7                        u4801 1B9F                        u5361 129B  
                      u5281 1253                        u5521 00BC                        u5505 00A8  
                      u5441 0030                        u5601 1B05                        u6161 07F7  
                      u6145 07AF                        u6321 0FB2                        u6241 0D1F  
                      u3690 193D                        u3770 08C0                        u3930 1450  
                      u3850 1368                        u4490 1B2E                        u4650 1C97  
                      u5370 12A4                        u5530 00C7                        u5450 004A  
                      u6090 0734                        u6330 0FC0                        u6250 0D43  
                      u6170 0C2A                        u3691 193C                        u3771 08BF  
                      u3755 08AF                        u3931 144F                        u3851 1367  
                      u4491 1B2D                        u4571 1C04                        u4651 1C96  
                      u4715 1F98                        u5371 12A3                        u5355 128D  
                      u5531 00C6                        u5515 00B0                        u5451 0049  
                      u6091 0733                        u6075 0678                        u6331 0FBF  
                      u6251 0D42                        u6171 0C29                        u3780 08C7  
                      u3940 1458                        u4580 1C16                        u4572 1C05  
                      u4740 1FC5                        u4820 1BB4                        u4900 1651  
                      u5460 0062                        u5620 1A40                        u5700 09E8  
                      u6340 0FE2                        u6260 0D72                        u6180 0C59  
                      u3781 08C6                        u3941 1457                        u3925 1440  
                      u4581 1C15                        u4573 1C0A                        u4645 1C7E  
                      u4741 1FC4                        u4821 1BB3                        u4901 1650  
                      u5541 00D0                        u5621 1A3F                        u5701 09E7  
                      u6085 06D0                        u6341 0FE1                        u6325 0FAF  
                      u6261 0D73                        u6181 0C5A                        u3870 13EF  
                      u4574 1C0B                        u4670 1CB6                        u4830 1BC0  
                      u4910 1665                        u5390 12BA                        u5542 00D7  
                      u5470 0074                        u5630 1974                        u5710 0A7E  
                      u6270 0DAA                        u6262 0D78                        u6190 0CA7  
                      u6182 0C5F                        u3871 13EE                        u4591 1C2E  
                      u4671 1CB5                        u4655 1C93                        u4735 1FAC  
                      u4831 1BBF                        u4815 1BA5                        u4911 1664  
                      u5391 12B9                        u5295 1256                        u5615 1A2D  
                      u5631 1973                        u5711 0A7D                        u6407 1E94  
                      u6271 0DA9                        u6263 0D79                        u6191 0CA6  
                      u6183 0C60                        u3960 1474                        u4592 1C2F  
                      u4760 1FE4                        u4680 1F5F                        u4920 166D  
                      u5480 0096                        u5720 0B43                        u5800 011E  
                      u6280 0E13                        u3961 1473                        u3865 13BC  
                      u4593 1C34                        u4665 1CA8                        u4761 1FE3  
                      u4745 1FC1                        u4681 1F5E                        u4921 166C  
                      u6417 197F                        u5385 12A8                        u5481 0095  
                      u5465 005E                        u5721 0B42                        u5801 011D  
                      u6345 0FDE                        u6281 0E14                        u3890 1429  
                      u3970 000C                        u4594 1C35                        u4770 1FEA  
                      u4690 1F72                        u4850 1BD4                        u4930 1681  
                      u5570 00EE                        u5730 19CF                        u5810 0142  
                      u6290 0E8B                        u6282 0E19                        u3795 08D3  
                      u3955 1465                        u3891 1428                        u3875 13EB  
                      u3971 000B                        u4755 1FD6                        u4691 1F71  
                      u4851 1BD3                        u4835 1BBC                        u6507 1703  
                      u4931 1680                        u6427 198B                        u5571 00ED  
                      u5555 00D9                        u5491 009F                        u5475 0070  
                      u5731 19CE                        u5811 0141                        u6291 0E8A  
                      u6283 0E1A                        u3980 001A                        u4860 1BDA  
                      u4780 1B87                        u4940 1689                        u5492 00A6  
                      u5580 1AE2                        u5660 1489                        u5740 10CD  
                      u5900 0318                        u5820 0197                        u3885 1415  
                      u3981 0019                        u4845 1BC8                        u4781 1B86  
                      u6517 1723                        u4941 1688                        u6437 163B  
                      u5565 00E1                        u5581 1AE1                        u5645 1A16  
                      u5661 1488                        u6357 195A                        u5741 10CC  
                      u5901 0317                        u5821 0196                        u3990 19D8  
                      u4790 1B94                        u4950 169D                        u5670 156C  
                      u5750 10E4                        u5910 0332                        u5830 01CD  
                      u3991 19D7                        u4791 1B93                        u6527 173F  
                      u4951 169C                        u6447 1657                        u5655 0820  
                      u5671 156B                        u6367 1E38                        u5751 10E3  
                      u5911 0331                        u5831 01CC                        u4960 16A9  
                      u4880 1635                        u5680 091A                        u5920 037B  
                      u5840 01D3                        u6537 175B                        u4961 16A8  
                      u6457 1673                        u4881 1634                        u5681 0919  
                      u6377 1E52                        u5761 1114                        u5921 037A  
                      u5841 01D2                        u4970 16BD                        u4890 1649  
                      u5690 0923                        u5762 1115                        u5930 0384  
                      u5850 0200                        u6547 1777                        u4971 16BC  
                      u6467 168F                        u4891 1648                        u5595 1AF3  
                      u5691 0922                        u6387 1E67                        u5763 111A  
                      u5931 0383                        u5915 032E                        u5851 01FF  
                      u4980 16C5                        u5764 111B                        u5940 03A3  
                      u5860 0225                        u6557 1797                        u4981 16C4  
                      u6477 16AF                        u6397 1E7F                        u5941 03A2  
                      u5925 0377                        u5861 0224                        u4990 16D9  
                      u5790 11CA                        u5950 03B2                        u5870 023B  
                      u6567 17B3                        u4991 16D8                        u6487 16CB  
                      u5791 11C9                        u5775 1122                        u5951 03B1  
                      u5960 03CA                        u5880 028A                        u6577 17CF  
                      u6497 16E7                        u5785 1136                        u5961 03C9  
                      u5881 0289                        u5786 1137                        u5970 04B5  
                      u5890 02F8                        u6587 17EB                        u5787 113C  
                      u5971 04B4                        u5955 03AE                        u5891 02F7  
                      u5875 0236                        u5788 113D                        u5990 04FD  
                      u5991 04FC                        u5985 04BC                        u5995 04F9  
                      _WREN 0C62                        _main 0BD2                ___ftpack@arg 0070  
              ___ftpack@exp 0073                        btemp 007E                        _sqrt 10B6  
                      start 0000                _sprintf$2820 00A0           ___bmul@multiplier 0026  
              ___ftmul@cntr 0043                ___ftmul@sign 0044             __end_of_InitLCD 1EB2  
              ___fttol@exp1 0034                ___fttol@lval 0030      __size_of_READ_SWITCHES 01D5  
           __end_of___aldiv 2000                       ?_main 0070             __end_of___awdiv 1DA7  
                     _EEADR 010D             __end_of___ftadd 132C             __end_of___awmod 1BE8  
                     _CARRY 0018             __end_of___ftneg 1935             __end_of___lldiv 1CC2  
                     ?_sqrt 0058             __end_of___ftmul 010C             ___awdiv@divisor 0077  
           __end_of___llmod 1B82             __end_of___ftsub 19B0             __end_of___fttol 1F58  
           ___awdiv@counter 0020                       _PORTB 0006                       _PORTD 0008  
                     _TRISB 0086         ___lmul@multiplicand 0074                ___lltoft@exp 007D  
           __end_of_get_num 1D31                       _errno 006E                       _scale 0913  
           __end_of_isdigit 194A               ___ftpack@sign 0074                       main@i 00D6  
                     pclath 000A                       sqrt@i 0067                       sqrt@q 0068  
                     sqrt@x 006B                       sqrt@y 0058                       sqrt@z 0064  
                     status 0003     __size_of_WriteDataToLCD 002C                       wtemp0 007E  
           __end_of_sprintf 0800             _ToggleEpinOfLCD 1978                  _InitKeypad 191D  
              __end_of_main 1000                __end_of_sqrt 11E6                      ??_main 00B7  
             ___fttol@sign1 002F            ??_ClearLCDScreen 0075                      ??_sqrt 005B  
      __size_of__tdiv_to_l_ 00E2          __size_of_DispError 0034            __end_of___altoft 1B24  
          ___llmod@dividend 0024                      ?_scale 0045                      _EEDATA 010C  
                    _EECON1 018C                      _EECON2 018D            ___awdiv@dividend 0079  
          __end_of___ftpack 1E22               _READ_SWITCHES 162B            __end_of___lltoft 1A59  
                    _TRISD0 0440                      _TRISD1 0441                      _TRISD4 0444  
                    _TRISD5 0445                      _TRISD6 0446                      _TRISD7 0447  
                 ??_InitLCD 0075                      _GetKey 1960                      ___bmul 0004  
                    ___ftge 1BE8                      ___lmul 1A8D                   ??___aldiv 0078  
                    ___wmul 19D1                   ??___awdiv 007B                   ??___ftadd 004B  
                 ??___awmod 0074                   ??___ftneg 0073                   ??___lldiv 0078  
                 ??___ftmul 003B                   ??___llmod 0028                   ??___ftsub 007E  
                 ??___fttol 002B                      _fround 1480            ___awdiv@quotient 0022  
           ___awmod@divisor 0070           WriteStringToLCD@s 0076             ___awmod@counter 0075  
                 ??_get_num 0079       ___ftmul@f3_as_product 0040                   ??_isdigit 0070  
         ?_WriteStringToLCD 0070          ??_WriteStringToLCD 0075                      sqrt@og 0061  
                 ??_sprintf 0066              ?_READ_SWITCHES 0070     __end_of_ToggleEpinOfLCD 1991  
                ___altoft@c 0026                  ___ftadd@f1 0045                  ___ftadd@f2 0048  
                ___ftge@ff1 0070                  ___ftge@ff2 0073                  ___ftneg@f1 0070  
         __end_of_DispError 1A8D         ___bmul@multiplicand 0024                 ?_InitKeypad 0070  
                ___ftmul@f1 0035                  ___ftmul@f2 0038                  ___ftsub@f1 0055  
                ___ftsub@f2 0052                  ___fttol@f1 0027              __pcstackCOMMON 0070  
                ___lltoft@c 0078               __end_of_scale 0BD2                  __div_to_l_ 132C  
  WriteCommandToLCD@Command 0074             __div_to_l_@exp1 0025             __div_to_l_@cntr 0024  
              sprintf@integ 00A7                     ??_scale 0048             __div_to_l_@quot 0020  
                __pbssBANK0 006E              _WriteDataToLCD 0805                     ?_GetKey 0070  
             __div_to_l_@f1 0070               __div_to_l_@f2 0073                  __pmaintext 0BD2  
                   ?___bmul 0024                     ?___ftge 0070       WriteDataToLCD@LCDChar 0074  
                   ?___lmul 0070                     ?___wmul 0070                   ?___altoft 0026  
                   ?_fround 0052              ___lmul@product 0079                   ?___ftpack 0070  
                 ?___lltoft 0078             ??_READ_SWITCHES 0070         __size_of_InitKeypad 000C  
    __end_of_WriteDataToLCD 0831            ?_ToggleEpinOfLCD 0070                     _InitLCD 1E22  
           __size_of_GetKey 0018                  _scale$3635 004A                     ___aldiv 1F58  
           __size_of___bmul 001A             __size_of___ftge 006C                     ___awdiv 1D31  
           __size_of___lmul 004A                     ___ftadd 11E6                     ___awmod 1B82  
                   ___ftneg 1929                     ___lldiv 1C54             __size_of___wmul 002A  
                   ___ftmul 001E                     ___llmod 1B24                     ___ftsub 1991  
                   ___fttol 1EB2                  ??___altoft 002A                  ??___ftpack 0075  
           __size_of_fround 01AB                  ??___lltoft 007C                     _get_num 1CC2  
               ?__div_to_l_ 0070                     _dpowers 1006                     _isdigit 1935  
          ___awmod@dividend 0072            ___aldiv@dividend 0074                     _sprintf 010C  
                   main@key 00E3                     main@msg 00BF                     main@tmp 00D8  
      end_of_initialization 10B2             ?_WriteDataToLCD 0070                   GetKey@key 0074  
           ___lldiv@divisor 0070             ___lldiv@counter 007D            ___aldiv@quotient 0022  
            __tdiv_to_l_@f1 0070              __tdiv_to_l_@f2 0073               ??__tdiv_to_l_ 0076  
                get_num@num 007A   __size_of_WriteStringToLCD 0021                  main@result 00CF  
       __size_of__div_to_l_ 0154                ??_InitKeypad 0070              __end_of_GetKey 1978  
               ___ftmul@exp 003F                   _DispError 1A59              __end_of___bmul 001E  
            __end_of___ftge 1C54              __end_of___lmul 1AD7              __end_of___wmul 19FB  
            __end_of_fround 162B         start_initialization 10B0         __end_of__tdiv_to_l_ 0913  
        __end_of_InitKeypad 1929     __size_of_ClearLCDScreen 0016             ___llmod@divisor 0020  
           ___llmod@counter 0029                    ??_GetKey 0073                    ??___bmul 007C  
                  ??___ftge 0076                    ??___lmul 0078                    ??___wmul 0074  
                ?_DispError 0077                    ??_fround 0055           __size_of___altoft 004D  
                fround@prec 0061           __size_of___ftpack 007B           __size_of___lltoft 0032  
             __pcstackBANK0 0020               __pcstackBANK1 00A0                _isdigit$3155 0070  
             DispError@numb 0077                 sprintf@_val 00AA                 sprintf@flag 00A5  
               sprintf@fval 00B3                 sprintf@prec 00B1                    ?_InitLCD 0070  
                  ?___aldiv 0070                    ?___awdiv 0077                    ?___ftadd 0045  
                  ?___awmod 0070                   __ptext700 19FB                   __ptext701 1960  
                 __ptext710 1C54                   __ptext702 1A27                   __ptext711 1BE8  
                 __ptext703 1AD7                   __ptext720 132C                   __ptext712 1929  
                 __ptext704 001E                   __ptext721 0831                   __ptext713 1B24  
                 __ptext705 11E6                   __ptext722 1935                   __ptext714 1D31  
                 __ptext706 1978                   __ptext723 191D                   __ptext715 1EB2  
                 __ptext707 162B                   __ptext724 0000                   __ptext716 1A8D  
                 __ptext708 1B82                   __ptext717 1DA7                   __ptext709 1F58  
                 __ptext718 19D1                   __ptext719 0004                   __ptext690 1CC2  
                 __ptext691 010C                   __ptext692 10B6                   __ptext693 194A  
                 __ptext694 19B0                   __ptext695 1E22                   __ptext696 1991  
                 __ptext697 0913                   __ptext689 1A59                   __ptext698 1480  
                 __ptext699 0805                    ?___ftneg 0070                    ?___lldiv 0070  
                  ?___ftmul 0035                    ?___llmod 0020                    ?___ftsub 0052  
                 __npowers_ 102E                    ?___fttol 0027                   __pstrings 1000  
               __tdiv_to_l_ 0831                    ?_get_num 0077                ??__div_to_l_ 0076  
                  ?_isdigit 0070            ??_WriteDataToLCD 0072                    ?_sprintf 0062  
     __end_of_READ_SWITCHES 1800              __size_of_scale 02BF             ___aldiv@divisor 0070  
           ___aldiv@counter 0020              ___wmul@product 0074            _WriteStringToLCD 19B0  
        __end_of__div_to_l_ 1480    __size_of_ToggleEpinOfLCD 0019                 ??_DispError 0079  
               __stringbase 1005           ___wmul@multiplier 0070                   get_num@ch 0079  
                 main@shift 00D2           ___lmul@multiplier 0070              _ClearLCDScreen 194A  
         _WriteCommandToLCD 19FB          ?_WriteCommandToLCD 0070            __size_of_InitLCD 0090  
       ??_WriteCommandToLCD 0072            __size_of___aldiv 00A8            __size_of___awdiv 0076  
          __size_of___ftadd 0146            __size_of___awmod 0066            __size_of___ftneg 000C  
          __size_of___lldiv 006E                    ___altoft 1AD7            __size_of___ftmul 00EE  
          __size_of___llmod 005E            __size_of___ftsub 001F            __size_of___fttol 00A6  
                  ___ftpack 1DA7                 _fround$3633 005E                 _fround$3634 005B  
                  ___lltoft 1A27            __size_of_get_num 006F                  sprintf@exp 00AE  
          __size_of_isdigit 0015      __end_of_ClearLCDScreen 1960                    __powers_ 1055  
 __end_of_WriteCommandToLCD 1A27            __size_of_sprintf 06F4               __size_of_main 042E  
             __size_of_sqrt 0130                    main@func 00DA                    main@num1 00DB  
                  main@num2 00DF                    main@next 00D4           ??_ToggleEpinOfLCD 0070  
           ?_ClearLCDScreen 0070                    isdigit@c 0071                    scale@scl 004D  
                 sprintf@ap 00A4            __tdiv_to_l_@exp1 0025            __tdiv_to_l_@cntr 0024  
                 sprintf@sp 00B0            __tdiv_to_l_@quot 0020            ___lldiv@dividend 0074  
                 stringcode 1000                ?__tdiv_to_l_ 0070                  _OPTION_REG 0081  
                  sprintf@c 00B6                    sprintf@f 0062    __end_of_WriteStringToLCD 19D1  
          ___lldiv@quotient 0079                    stringdir 1000                    stringtab 1000  
              ___aldiv@sign 0021  __size_of_WriteCommandToLCD 002C  
