HI-TECH Software C Compiler 

Linker command line:

--edf=C:\Program Files (x86)\HI-TECH Software\PICC\9.82\dat\en_msgs.txt -cs \
  -h+dist/default/production\Calculator.X.production.sym -z -Q16F877 \
  -ol.obj -Mdist/default/production/Calculator.X.production.map -E1 \
  -ACONST=00h-0FFhx32 -ACODE=00h-07FFhx4 -ASTRCODE=00h-01FFFh \
  -AENTRY=00h-0FFhx32 -ASTRING=00h-0FFhx32 -ABANK0=020h-06Fh \
  -ABANK1=0A0h-0EFh -ABANK2=0110h-016Fh -ABANK3=0190h-01EFh \
  -ARAM=020h-06Fh,0A0h-0EFh,0110h-016Fh,0190h-01EFh \
  -AABS1=020h-07Fh,0A0h-0EFh,0110h-016Fh,0190h-01EFh -ACOMMON=070h-07Fh \
  -ASFR0=00h-01Fh -ASFR1=080h-09Fh -ASFR2=0100h-010Fh -ASFR3=0180h-018Fh \
  -preset_vec=00h,intentry,init,end_init -ppowerup=CODE -pfunctab=CODE \
  -ACONFIG=02007h-02007h -pconfig=CONFIG -DCONFIG=2 -AIDLOC=02000h-02003h \
  -pidloc=IDLOC -DIDLOC=2 -AEEDATA=00h-0FFh/02100h -peeprom_data=EEDATA \
  -DEEDATA=2 -DCODE=2 -DSTRCODE=2 -DSTRING=2 -DCONST=2 -DENTRY=2 -k \
  C:\Users\DELL-06\AppData\Local\Temp\s3so.obj \
  dist/default/production\Calculator.X.production.obj 

Object code version is 3.10

Machine type is 16F877



                Name                               Link     Load   Length Selector   Space Scale
C:\Users\DELL-06\AppData\Local\Temp\s3so.obj
                end_init                              0        0        3        0       0
dist/default/production\Calculator.X.production.obj
                config                             2007     2007        1     400E       0
                text723                            190A     190A        C     3214       0
                text722                            1922     1922       15     3244       0
                text721                             81E      81E       E2     103C       0
                text720                            132C     132C      154     2658       0
                text719                               4        4       1A        8       0
                text718                            19A5     19A5       2A     334A       0
                text717                            1DA7     1DA7       7B     3B4E       0
                text716                            1A8D     1A8D       4A     351A       0
                text715                            1EB2     1EB2       A6     3D64       0
                text714                            1D31     1D31       76     3A62       0
                text713                            1B24     1B24       5E     3648       0
                text712                            1916     1916        C     322C       0
                text711                            1BE8     1BE8       6C     37D0       0
                text710                            1C54     1C54       6E     38A8       0
                text709                            1F58     1F58       A8     3EB0       0
                text708                            1B82     1B82       66     3704       0
                text707                            162B     162B      1D5     2C56       0
                text706                             805      805       19     100A       0
                text705                            11E6     11E6      146     23CC       0
                text704                              1E       1E       EE       3C       0
                text703                            1AD7     1AD7       4D     35AE       0
                text702                            1A27     1A27       32     344E       0
                text701                            194D     194D       18     329A       0
                text700                            19CF     19CF       2C     339E       0
                text699                            19FB     19FB       2C     33F6       0
                text698                            1480     1480      1AB     2900       0
                text697                             900      900      2BF     1200       0
                text696                            1965     1965       1F     32CA       0
                text695                            1E22     1E22       90     3C44       0
                text694                            1984     1984       21     3308       0
                text693                            1937     1937       16     326E       0
                text692                            10B6     10B6      130     216C       0
                text691                             10C      10C      6F4      218       0
                text690                            1CC2     1CC2       6F     3984       0
                text689                            1A59     1A59       34     34B2       0
                maintext                            BBF      BBF      441     177E       0
                cstackBANK0                          20       20       4E       20       1
                cstackCOMMON                         70       70        E       70       1
                cstackBANK1                          A0       A0       44       A0       1
                bssBANK0                             6E       6E        2       20       1
                cinit                              10B0     10B0        6     2160       0
                strings                            1000     1000       AB     2000       0

TOTAL           Name                               Link     Load   Length     Space
        CLASS   CONST          

        CLASS   CODE           
                end_init                              0        0        3         0
                text723                            190A     190A        C         0
                text722                            1922     1922       15         0
                text721                             81E      81E       E2         0
                text720                            132C     132C      154         0
                text719                               4        4       1A         0
                text718                            19A5     19A5       2A         0
                text717                            1DA7     1DA7       7B         0
                text716                            1A8D     1A8D       4A         0
                text715                            1EB2     1EB2       A6         0
                text714                            1D31     1D31       76         0
                text713                            1B24     1B24       5E         0
                text712                            1916     1916        C         0
                text711                            1BE8     1BE8       6C         0
                text710                            1C54     1C54       6E         0
                text709                            1F58     1F58       A8         0
                text708                            1B82     1B82       66         0
                text707                            162B     162B      1D5         0
                text706                             805      805       19         0
                text705                            11E6     11E6      146         0
                text704                              1E       1E       EE         0
                text703                            1AD7     1AD7       4D         0
                text702                            1A27     1A27       32         0
                text701                            194D     194D       18         0
                text700                            19CF     19CF       2C         0
                text699                            19FB     19FB       2C         0
                text698                            1480     1480      1AB         0
                text697                             900      900      2BF         0
                text696                            1965     1965       1F         0
                text695                            1E22     1E22       90         0
                text694                            1984     1984       21         0
                text693                            1937     1937       16         0
                text692                            10B6     10B6      130         0
                text691                             10C      10C      6F4         0
                text690                            1CC2     1CC2       6F         0
                text689                            1A59     1A59       34         0
                maintext                            BBF      BBF      441         0
                cinit                              10B0     10B0        6         0

        CLASS   STRCODE        

        CLASS   ENTRY          

        CLASS   STRING         
                strings                            1000     1000       AB         0

        CLASS   BANK0          
                cstackBANK0                          20       20       4E         1
                bssBANK0                             6E       6E        2         1

        CLASS   BANK1          
                cstackBANK1                          A0       A0       44         1

        CLASS   BANK2          

        CLASS   BANK3          

        CLASS   RAM            

        CLASS   ABS1           
                abs_s1                               7E       7E        2         1

        CLASS   COMMON         
                cstackCOMMON                         70       70        E         1

        CLASS   SFR0           

        CLASS   SFR1           

        CLASS   SFR2           

        CLASS   SFR3           

        CLASS   CONFIG         
                config                             2007     2007        1         0

        CLASS   IDLOC          

        CLASS   EEDATA         



SEGMENTS        Name                           Load    Length   Top    Selector   Space  Class     Delta

                reset_vec                      000000  000003  000003         0       0  CODE        2
                text719                        000004  00001A  00001E         8       0  CODE        2
                cstackBANK0                    000020  000050  000070        20       1  BANK0       1
                text704                        00001E  0000EE  00010C        3C       0  CODE        2
                cstackCOMMON                   000070  00000E  00007E        70       1  COMMON      1
                cstackBANK1                    0000A0  000044  0000E4        A0       1  BANK1       1
                text691                        00010C  0006F4  000800       218       0  CODE        2
                text706                        000805  000019  00081E      100A       0  CODE        2
                text721                        00081E  0000E2  000900      103C       0  CODE        2
                text697                        000900  0002BF  000BBF      1200       0  CODE        2
                maintext                       000BBF  000441  001000      177E       0  CODE        2
                strings                        001000  0000AB  0010AB      2000       0  STRING      2
                cinit                          0010B0  000006  0010B6      2160       0  CODE        2
                text692                        0010B6  000130  0011E6      216C       0  CODE        2
                text705                        0011E6  000146  00132C      23CC       0  CODE        2
                text720                        00132C  000154  001480      2658       0  CODE        2
                text698                        001480  0001AB  00162B      2900       0  CODE        2
                text707                        00162B  0001D5  001800      2C56       0  CODE        2
                text723                        00190A  00000C  001916      3214       0  CODE        2
                text712                        001916  00000C  001922      322C       0  CODE        2
                text722                        001922  000015  001937      3244       0  CODE        2
                text693                        001937  000016  00194D      326E       0  CODE        2
                text701                        00194D  000018  001965      329A       0  CODE        2
                text696                        001965  00001F  001984      32CA       0  CODE        2
                text694                        001984  000021  0019A5      3308       0  CODE        2
                text718                        0019A5  00002A  0019CF      334A       0  CODE        2
                text700                        0019CF  00002C  0019FB      339E       0  CODE        2
                text699                        0019FB  00002C  001A27      33F6       0  CODE        2
                text702                        001A27  000032  001A59      344E       0  CODE        2
                text689                        001A59  000034  001A8D      34B2       0  CODE        2
                text716                        001A8D  00004A  001AD7      351A       0  CODE        2
                text703                        001AD7  00004D  001B24      35AE       0  CODE        2
                text713                        001B24  00005E  001B82      3648       0  CODE        2
                text708                        001B82  000066  001BE8      3704       0  CODE        2
                text711                        001BE8  00006C  001C54      37D0       0  CODE        2
                text710                        001C54  00006E  001CC2      38A8       0  CODE        2
                text690                        001CC2  00006F  001D31      3984       0  CODE        2
                text714                        001D31  000076  001DA7      3A62       0  CODE        2
                text717                        001DA7  00007B  001E22      3B4E       0  CODE        2
                text695                        001E22  000090  001EB2      3C44       0  CODE        2
                text715                        001EB2  0000A6  001F58      3D64       0  CODE        2
                text709                        001F58  0000A8  002000      3EB0       0  CODE        2
                config                         002007  000001  002008      400E       0  CONFIG      2


UNUSED ADDRESS RANGES

        Name                Unused          Largest block    Delta
        BANK1            00E4-00EF              C           1
        BANK2            0110-016F             60           1
        BANK3            0190-01EF             60           1
        CODE             0003-0003              1           2
                         0800-0804              5
                         10AB-10AF              5
                         1800-1909            10A
        CONST            0003-0003              1           2
                         0800-0804              5
                         10AB-10AF              5
                         1800-1909            100
        EEDATA           2100-21FF            100           2
        ENTRY            0003-0003              1           2
                         0800-0804              5
                         10AB-10AF              5
                         1800-1909            100
        IDLOC            2000-2003              4           2
        RAM              00E4-00EF              C           1
                         0110-016F             60
                         0190-01EF             60
        SFR0             0000-001F             20           1
        SFR1             0080-009F             20           1
        SFR2             0100-010F             10           1
        SFR3             0180-018F             10           1
        STRCODE          0003-0003              1           2
                         0800-0804              5
                         10AB-10AF              5
                         1800-1909            10A
        STRING           0003-0003              1           2
                         0800-0804              5
                         10AB-10AF              5
                         1800-1909            100

                                  Symbol Table

??_ClearLCDScreen           cstackCOMMON 0075
??_DispError                cstackCOMMON 0079
??_GetKey                   cstackCOMMON 0073
??_InitKeypad               cstackCOMMON 0070
??_InitLCD                  cstackCOMMON 0075
??_READ_SWITCHES            cstackCOMMON 0070
??_ToggleEpinOfLCD          cstackCOMMON 0070
??_WriteCommandToLCD        cstackCOMMON 0072
??_WriteDataToLCD           cstackCOMMON 0072
??_WriteStringToLCD         cstackCOMMON 0075
??___aldiv                  cstackCOMMON 0078
??___altoft                 cstackBANK0  002A
??___awdiv                  cstackCOMMON 007B
??___awmod                  cstackCOMMON 0074
??___bmul                   cstackCOMMON 007C
??___ftadd                  cstackBANK0  004B
??___ftge                   cstackCOMMON 0076
??___ftmul                  cstackBANK0  003B
??___ftneg                  cstackCOMMON 0073
??___ftpack                 cstackCOMMON 0075
??___ftsub                  cstackCOMMON 007E
??___fttol                  cstackBANK0  002B
??___lldiv                  cstackCOMMON 0078
??___llmod                  cstackBANK0  0028
??___lltoft                 cstackCOMMON 007C
??___lmul                   cstackCOMMON 0078
??___wmul                   cstackCOMMON 0074
??__div_to_l_               cstackCOMMON 0076
??__tdiv_to_l_              cstackCOMMON 0076
??_fround                   cstackBANK0  0055
??_get_num                  cstackCOMMON 0079
??_isdigit                  cstackCOMMON 0070
??_main                     cstackBANK1  00B7
??_scale                    cstackBANK0  0048
??_sprintf                  cstackBANK0  0066
??_sqrt                     cstackBANK0  005B
?_ClearLCDScreen            cstackCOMMON 0070
?_DispError                 cstackCOMMON 0077
?_GetKey                    cstackCOMMON 0070
?_InitKeypad                cstackCOMMON 0070
?_InitLCD                   cstackCOMMON 0070
?_READ_SWITCHES             cstackCOMMON 0070
?_ToggleEpinOfLCD           cstackCOMMON 0070
?_WriteCommandToLCD         cstackCOMMON 0070
?_WriteDataToLCD            cstackCOMMON 0070
?_WriteStringToLCD          cstackCOMMON 0070
?___aldiv                   cstackCOMMON 0070
?___altoft                  cstackBANK0  0026
?___awdiv                   cstackCOMMON 0077
?___awmod                   cstackCOMMON 0070
?___bmul                    cstackBANK0  0024
?___ftadd                   cstackBANK0  0045
?___ftge                    cstackCOMMON 0070
?___ftmul                   cstackBANK0  0035
?___ftneg                   cstackCOMMON 0070
?___ftpack                  cstackCOMMON 0070
?___ftsub                   cstackBANK0  0052
?___fttol                   cstackBANK0  0027
?___lldiv                   cstackCOMMON 0070
?___llmod                   cstackBANK0  0020
?___lltoft                  cstackCOMMON 0078
?___lmul                    cstackCOMMON 0070
?___wmul                    cstackCOMMON 0070
?__div_to_l_                cstackCOMMON 0070
?__tdiv_to_l_               cstackCOMMON 0070
?_fround                    cstackBANK0  0052
?_get_num                   cstackCOMMON 0077
?_isdigit                   cstackCOMMON 0070
?_main                      cstackCOMMON 0070
?_scale                     cstackBANK0  0045
?_sprintf                   cstackBANK0  0062
?_sqrt                      cstackBANK0  0058
DispError@numb              cstackCOMMON 0077
GetKey@key                  cstackCOMMON 0074
WriteCommandToLCD@Command   cstackCOMMON 0074
WriteDataToLCD@LCDChar      cstackCOMMON 0074
WriteStringToLCD@s          cstackCOMMON 0076
_CARRY                      (abs)        0018
_ClearLCDScreen             text693      1937
_DispError                  text689      1A59
_EEADR                      (abs)        010D
_EECON1                     (abs)        018C
_EECON2                     (abs)        018D
_EEDATA                     (abs)        010C
_GIE                        (abs)        005F
_GetKey                     text701      194D
_InitKeypad                 text723      190A
_InitLCD                    text695      1E22
_OPTION_REG                 (abs)        0081
_PORTB                      (abs)        0006
_PORTD                      (abs)        0008
_RB0                        (abs)        0030
_RB1                        (abs)        0031
_RB2                        (abs)        0032
_RB3                        (abs)        0033
_RB4                        (abs)        0034
_RB5                        (abs)        0035
_RB6                        (abs)        0036
_RB7                        (abs)        0037
_RD                         (abs)        0C60
_RD0                        (abs)        0040
_RD1                        (abs)        0041
_RD4                        (abs)        0044
_RD5                        (abs)        0045
_RD6                        (abs)        0046
_RD7                        (abs)        0047
_READ_SWITCHES              text707      162B
_TRISB                      (abs)        0086
_TRISD0                     (abs)        0440
_TRISD1                     (abs)        0441
_TRISD4                     (abs)        0444
_TRISD5                     (abs)        0445
_TRISD6                     (abs)        0446
_TRISD7                     (abs)        0447
_ToggleEpinOfLCD            text706      0805
_WR                         (abs)        0C61
_WREN                       (abs)        0C62
_WriteCommandToLCD          text700      19CF
_WriteDataToLCD             text699      19FB
_WriteStringToLCD           text694      1984
__Habs1                     abs1         0000
__Hbank0                    bank0        0000
__Hbank1                    bank1        0000
__Hbank2                    bank2        0000
__Hbank3                    bank3        0000
__HbssBANK0                 bssBANK0     0000
__Hcinit                    cinit        0000
__Hclrtext                  clrtext      0000
__Hcode                     code         0000
__Hcommon                   common       0000
__Hconfig                   config       2008
__HcstackBANK0              cstackBANK0  0000
__HcstackBANK1              cstackBANK1  0000
__HcstackCOMMON             cstackCOMMON 0000
__Heeprom_data              eeprom_data  0000
__Hend_init                 end_init     0003
__Hfunctab                  functab      0000
__Hidloc                    idloc        0000
__Hinit                     init         0000
__Hintentry                 intentry     0000
__Hmaintext                 maintext     0000
__Hpowerup                  powerup      0000
__Hram                      ram          0000
__Hreset_vec                reset_vec    0000
__Hsfr0                     sfr0         0000
__Hsfr1                     sfr1         0000
__Hsfr2                     sfr2         0000
__Hsfr3                     sfr3         0000
__Hstrings                  strings      0000
__Htext                     text         0000
__Labs1                     abs1         0000
__Lbank0                    bank0        0000
__Lbank1                    bank1        0000
__Lbank2                    bank2        0000
__Lbank3                    bank3        0000
__LbssBANK0                 bssBANK0     0000
__Lcinit                    cinit        0000
__Lclrtext                  clrtext      0000
__Lcode                     code         0000
__Lcommon                   common       0000
__Lconfig                   config       2007
__LcstackBANK0              cstackBANK0  0000
__LcstackBANK1              cstackBANK1  0000
__LcstackCOMMON             cstackCOMMON 0000
__Leeprom_data              eeprom_data  0000
__Lend_init                 end_init     0000
__Lfunctab                  functab      0000
__Lidloc                    idloc        0000
__Linit                     init         0000
__Lintentry                 intentry     0000
__Lmaintext                 maintext     0000
__Lpowerup                  powerup      0000
__Lram                      ram          0000
__Lreset_vec                reset_vec    0000
__Lsfr0                     sfr0         0000
__Lsfr1                     sfr1         0000
__Lsfr2                     sfr2         0000
__Lsfr3                     sfr3         0000
__Lstrings                  strings      0000
__Ltext                     text         0000
__S0                        (abs)        2008
__S1                        (abs)        00E4
__S2                        (abs)        0000
___aldiv                    text709      1F58
___aldiv@counter            cstackBANK0  0020
___aldiv@dividend           cstackCOMMON 0074
___aldiv@divisor            cstackCOMMON 0070
___aldiv@quotient           cstackBANK0  0022
___aldiv@sign               cstackBANK0  0021
___altoft                   text703      1AD7
___altoft@c                 cstackBANK0  0026
___altoft@exp               cstackBANK0  002C
___altoft@sign              cstackBANK0  002D
___awdiv                    text714      1D31
___awdiv@counter            cstackBANK0  0020
___awdiv@dividend           cstackCOMMON 0079
___awdiv@divisor            cstackCOMMON 0077
___awdiv@quotient           cstackBANK0  0022
___awdiv@sign               cstackBANK0  0021
___awmod                    text708      1B82
___awmod@counter            cstackCOMMON 0075
___awmod@dividend           cstackCOMMON 0072
___awmod@divisor            cstackCOMMON 0070
___awmod@sign               cstackCOMMON 0076
___bmul                     text719      0004
___bmul@multiplicand        cstackBANK0  0024
___bmul@multiplier          cstackBANK0  0026
___bmul@product             cstackBANK0  0025
___ftadd                    text705      11E6
___ftadd@exp1               cstackBANK0  0051
___ftadd@exp2               cstackBANK0  0050
___ftadd@f1                 cstackBANK0  0045
___ftadd@f2                 cstackBANK0  0048
___ftadd@sign               cstackBANK0  004F
___ftge                     text711      1BE8
___ftge@ff1                 cstackCOMMON 0070
___ftge@ff2                 cstackCOMMON 0073
___ftmul                    text704      001E
___ftmul@cntr               cstackBANK0  0043
___ftmul@exp                cstackBANK0  003F
___ftmul@f1                 cstackBANK0  0035
___ftmul@f2                 cstackBANK0  0038
___ftmul@f3_as_product      cstackBANK0  0040
___ftmul@sign               cstackBANK0  0044
___ftneg                    text712      1916
___ftneg@f1                 cstackCOMMON 0070
___ftpack                   text717      1DA7
___ftpack@arg               cstackCOMMON 0070
___ftpack@exp               cstackCOMMON 0073
___ftpack@sign              cstackCOMMON 0074
___ftsub                    text696      1965
___ftsub@f1                 cstackBANK0  0055
___ftsub@f2                 cstackBANK0  0052
___fttol                    text715      1EB2
___fttol@exp1               cstackBANK0  0034
___fttol@f1                 cstackBANK0  0027
___fttol@lval               cstackBANK0  0030
___fttol@sign1              cstackBANK0  002F
___lldiv                    text710      1C54
___lldiv@counter            cstackCOMMON 007D
___lldiv@dividend           cstackCOMMON 0074
___lldiv@divisor            cstackCOMMON 0070
___lldiv@quotient           cstackCOMMON 0079
___llmod                    text713      1B24
___llmod@counter            cstackBANK0  0029
___llmod@dividend           cstackBANK0  0024
___llmod@divisor            cstackBANK0  0020
___lltoft                   text702      1A27
___lltoft@c                 cstackCOMMON 0078
___lltoft@exp               cstackCOMMON 007D
___lmul                     text716      1A8D
___lmul@multiplicand        cstackCOMMON 0074
___lmul@multiplier          cstackCOMMON 0070
___lmul@product             cstackCOMMON 0079
___wmul                     text718      19A5
___wmul@multiplicand        cstackCOMMON 0072
___wmul@multiplier          cstackCOMMON 0070
___wmul@product             cstackCOMMON 0074
__div_to_l_                 text720      132C
__div_to_l_@cntr            cstackBANK0  0024
__div_to_l_@exp1            cstackBANK0  0025
__div_to_l_@f1              cstackCOMMON 0070
__div_to_l_@f2              cstackCOMMON 0073
__div_to_l_@quot            cstackBANK0  0020
__end_of_ClearLCDScreen     text693      194D
__end_of_DispError          text689      1A8D
__end_of_GetKey             text701      1965
__end_of_InitKeypad         text723      1916
__end_of_InitLCD            text695      1EB2
__end_of_READ_SWITCHES      text707      1800
__end_of_ToggleEpinOfLCD    text706      081E
__end_of_WriteCommandToLCD  text700      19FB
__end_of_WriteDataToLCD     text699      1A27
__end_of_WriteStringToLCD   text694      19A5
__end_of___aldiv            text709      2000
__end_of___altoft           text703      1B24
__end_of___awdiv            text714      1DA7
__end_of___awmod            text708      1BE8
__end_of___bmul             text719      001E
__end_of___ftadd            text705      132C
__end_of___ftge             text711      1C54
__end_of___ftmul            text704      010C
__end_of___ftneg            text712      1922
__end_of___ftpack           text717      1E22
__end_of___ftsub            text696      1984
__end_of___fttol            text715      1F58
__end_of___lldiv            text710      1CC2
__end_of___llmod            text713      1B82
__end_of___lltoft           text702      1A59
__end_of___lmul             text716      1AD7
__end_of___wmul             text718      19CF
__end_of__div_to_l_         text720      1480
__end_of__tdiv_to_l_        text721      0900
__end_of_fround             text698      162B
__end_of_get_num            text690      1D31
__end_of_isdigit            text722      1937
__end_of_main               maintext     1000
__end_of_scale              text697      0BBF
__end_of_sprintf            text691      0800
__end_of_sqrt               text692      11E6
__npowers_                  strings      102E
__pbssBANK0                 bssBANK0     006E
__pcstackBANK0              cstackBANK0  0020
__pcstackBANK1              cstackBANK1  00A0
__pcstackCOMMON             cstackCOMMON 0070
__pmaintext                 maintext     0BBF
__powers_                   strings      1055
__pstrings                  strings      1000
__ptext689                  text689      1A59
__ptext690                  text690      1CC2
__ptext691                  text691      010C
__ptext692                  text692      10B6
__ptext693                  text693      1937
__ptext694                  text694      1984
__ptext695                  text695      1E22
__ptext696                  text696      1965
__ptext697                  text697      0900
__ptext698                  text698      1480
__ptext699                  text699      19FB
__ptext700                  text700      19CF
__ptext701                  text701      194D
__ptext702                  text702      1A27
__ptext703                  text703      1AD7
__ptext704                  text704      001E
__ptext705                  text705      11E6
__ptext706                  text706      0805
__ptext707                  text707      162B
__ptext708                  text708      1B82
__ptext709                  text709      1F58
__ptext710                  text710      1C54
__ptext711                  text711      1BE8
__ptext712                  text712      1916
__ptext713                  text713      1B24
__ptext714                  text714      1D31
__ptext715                  text715      1EB2
__ptext716                  text716      1A8D
__ptext717                  text717      1DA7
__ptext718                  text718      19A5
__ptext719                  text719      0004
__ptext720                  text720      132C
__ptext721                  text721      081E
__ptext722                  text722      1922
__ptext723                  text723      190A
__ptext724                  text724      0000
__size_of_ClearLCDScreen    (abs)        0000
__size_of_DispError         (abs)        0000
__size_of_GetKey            (abs)        0000
__size_of_InitKeypad        (abs)        0000
__size_of_InitLCD           (abs)        0000
__size_of_READ_SWITCHES     (abs)        0000
__size_of_ToggleEpinOfLCD   (abs)        0000
__size_of_WriteCommandToLCD (abs)        0000
__size_of_WriteDataToLCD    (abs)        0000
__size_of_WriteStringToLCD  (abs)        0000
__size_of___aldiv           (abs)        0000
__size_of___altoft          (abs)        0000
__size_of___awdiv           (abs)        0000
__size_of___awmod           (abs)        0000
__size_of___bmul            (abs)        0000
__size_of___ftadd           (abs)        0000
__size_of___ftge            (abs)        0000
__size_of___ftmul           (abs)        0000
__size_of___ftneg           (abs)        0000
__size_of___ftpack          (abs)        0000
__size_of___ftsub           (abs)        0000
__size_of___fttol           (abs)        0000
__size_of___lldiv           (abs)        0000
__size_of___llmod           (abs)        0000
__size_of___lltoft          (abs)        0000
__size_of___lmul            (abs)        0000
__size_of___wmul            (abs)        0000
__size_of__div_to_l_        (abs)        0000
__size_of__tdiv_to_l_       (abs)        0000
__size_of_fround            (abs)        0000
__size_of_get_num           (abs)        0000
__size_of_isdigit           (abs)        0000
__size_of_main              (abs)        0000
__size_of_scale             (abs)        0000
__size_of_sprintf           (abs)        0000
__size_of_sqrt              (abs)        0000
__tdiv_to_l_                text721      081E
__tdiv_to_l_@cntr           cstackBANK0  0024
__tdiv_to_l_@exp1           cstackBANK0  0025
__tdiv_to_l_@f1             cstackCOMMON 0070
__tdiv_to_l_@f2             cstackCOMMON 0073
__tdiv_to_l_@quot           cstackBANK0  0020
_dpowers                    strings      1006
_errno                      bssBANK0     006E
_exit                       init         0000
_fround                     text698      1480
_fround$3633                cstackBANK0  005E
_fround$3634                cstackBANK0  005B
_get_num                    text690      1CC2
_isdigit                    text722      1922
_isdigit$3155               cstackCOMMON 0070
_main                       maintext     0BBF
_scale                      text697      0900
_scale$3635                 cstackBANK0  004A
_sprintf                    text691      010C
_sprintf$2820               cstackBANK1  00A0
_sqrt                       text692      10B6
btemp                       (abs)        007E
end_of_initialization       cinit        10B2
fround@prec                 cstackBANK0  0061
get_num@ch                  cstackCOMMON 0079
get_num@num                 cstackCOMMON 007A
intlevel0                   functab      0000
intlevel1                   functab      0000
intlevel2                   functab      0000
intlevel3                   functab      0000
intlevel4                   functab      0000
intlevel5                   functab      0000
isdigit@c                   cstackCOMMON 0071
main@func                   cstackBANK1  00DA
main@i                      cstackBANK1  00D6
main@key                    cstackBANK1  00E3
main@msg                    cstackBANK1  00BF
main@next                   cstackBANK1  00D4
main@num1                   cstackBANK1  00DF
main@num2                   cstackBANK1  00DB
main@result                 cstackBANK1  00CF
main@shift                  cstackBANK1  00D2
main@tmp                    cstackBANK1  00D8
reset_vec                   reset_vec    0000
scale@scl                   cstackBANK0  004D
sprintf@_val                cstackBANK1  00AA
sprintf@ap                  cstackBANK1  00A4
sprintf@c                   cstackBANK1  00B6
sprintf@exp                 cstackBANK1  00AE
sprintf@f                   cstackBANK0  0062
sprintf@flag                cstackBANK1  00A5
sprintf@fval                cstackBANK1  00B3
sprintf@integ               cstackBANK1  00A7
sprintf@prec                cstackBANK1  00B1
sprintf@sp                  cstackBANK1  00B0
sqrt@i                      cstackBANK0  0067
sqrt@og                     cstackBANK0  0061
sqrt@q                      cstackBANK0  0068
sqrt@x                      cstackBANK0  006B
sqrt@y                      cstackBANK0  0058
sqrt@z                      cstackBANK0  0064
start                       init         0000
start_initialization        cinit        10B0
wtemp0                      (abs)        007E
